
EthMotorsArm.elf:     file format elf32-littlearm

Sections:
Idx Name          Size      VMA       LMA       File off  Algn
  0 .text         0000d504  00000000  00000000  00010000  2**4
                  CONTENTS, ALLOC, LOAD, READONLY, CODE
  1 .relocate     00000074  20000000  0000d504  00020000  2**2
                  CONTENTS, ALLOC, LOAD, DATA
  2 .bkupram      00000000  47000000  47000000  00020074  2**0
                  CONTENTS
  3 .qspi         00000000  04000000  04000000  00020074  2**0
                  CONTENTS
  4 .bss          00009030  20000080  0000d5a0  00020080  2**5
                  ALLOC
  5 .stack        00010000  200090b0  000165d0  00020080  2**0
                  ALLOC
  6 .ARM.attributes 0000002e  00000000  00000000  00020074  2**0
                  CONTENTS, READONLY
  7 .comment      00000059  00000000  00000000  000200a2  2**0
                  CONTENTS, READONLY
  8 .debug_frame  000008e8  00000000  00000000  000200fc  2**2
                  CONTENTS, READONLY, DEBUGGING

Disassembly of section .text:

00000000 <exception_table>:
       0:	b0 90 01 20 f5 02 00 00 f1 02 00 00 f1 02 00 00     ... ............
      10:	f1 02 00 00 f1 02 00 00 f1 02 00 00 00 00 00 00     ................
	...
      2c:	f1 02 00 00 f1 02 00 00 00 00 00 00 f1 02 00 00     ................
      3c:	ad 80 00 00 f1 02 00 00 f1 02 00 00 f1 02 00 00     ................
      4c:	f1 02 00 00 f1 02 00 00 f1 02 00 00 f1 02 00 00     ................
      5c:	f1 02 00 00 f1 02 00 00 f1 02 00 00 f1 02 00 00     ................
      6c:	41 0f 00 00 f1 02 00 00 f1 02 00 00 f1 02 00 00     A...............
      7c:	f1 02 00 00 f1 02 00 00 f1 02 00 00 f1 02 00 00     ................
      8c:	f1 02 00 00 f1 02 00 00 f1 02 00 00 f1 02 00 00     ................
      9c:	f1 02 00 00 f1 02 00 00 f1 02 00 00 f1 02 00 00     ................
      ac:	f1 02 00 00 f1 02 00 00 f1 02 00 00 f1 02 00 00     ................
      bc:	f1 02 00 00 f1 02 00 00 f1 02 00 00 f1 02 00 00     ................
      cc:	f1 02 00 00 f1 02 00 00 f1 02 00 00 f1 02 00 00     ................
      dc:	f1 02 00 00 f1 02 00 00 f1 02 00 00 00 00 00 00     ................
	...
      f4:	ad 0e 00 00 f1 02 00 00 f1 02 00 00 f1 02 00 00     ................
     104:	f1 02 00 00 f1 02 00 00 f1 02 00 00 f1 02 00 00     ................
     114:	f1 02 00 00 f1 02 00 00 f1 02 00 00 f1 02 00 00     ................
     124:	f1 02 00 00 f1 02 00 00 f1 02 00 00 f1 02 00 00     ................
     134:	f1 02 00 00 f1 02 00 00 f1 02 00 00 f1 02 00 00     ................
     144:	f1 02 00 00 f1 02 00 00 f1 02 00 00 f1 02 00 00     ................
     154:	f1 02 00 00 f1 02 00 00 f1 02 00 00 f1 02 00 00     ................
     164:	f1 02 00 00 f1 02 00 00 f1 02 00 00 f1 02 00 00     ................
     174:	f1 02 00 00 00 00 00 00 00 00 00 00 f1 02 00 00     ................
     184:	f1 02 00 00 f1 02 00 00 f1 02 00 00 51 0a 00 00     ............Q...
     194:	f1 02 00 00 f1 02 00 00 f1 02 00 00 f1 02 00 00     ................
     1a4:	f1 02 00 00 f1 02 00 00 f1 02 00 00 f1 02 00 00     ................
     1b4:	f1 02 00 00 f1 02 00 00 f1 02 00 00 f1 02 00 00     ................
     1c4:	f1 02 00 00 f1 02 00 00 f1 02 00 00 f1 02 00 00     ................
     1d4:	f1 02 00 00 f1 02 00 00 f1 02 00 00 f1 02 00 00     ................
     1e4:	f1 02 00 00 f1 02 00 00 f1 02 00 00 f1 02 00 00     ................
     1f4:	f1 02 00 00 f1 02 00 00 f1 02 00 00 f1 02 00 00     ................
     204:	f1 02 00 00 f1 02 00 00 f1 02 00 00 f1 02 00 00     ................
     214:	f1 02 00 00 f1 02 00 00 f1 02 00 00 f1 02 00 00     ................
     224:	f1 02 00 00 f1 02 00 00 f1 02 00 00 f1 02 00 00     ................
     234:	f1 02 00 00 f1 02 00 00 f1 02 00 00 f1 02 00 00     ................
     244:	f1 02 00 00 f1 02 00 00 f1 02 00 00 f1 02 00 00     ................
     254:	f1 02 00 00 f1 02 00 00 f1 02 00 00 f1 02 00 00     ................

00000264 <__do_global_dtors_aux>:
     264:	b510      	push	{r4, lr}
     266:	4c05      	ldr	r4, [pc, #20]	; (27c <__do_global_dtors_aux+0x18>)
     268:	7823      	ldrb	r3, [r4, #0]
     26a:	b933      	cbnz	r3, 27a <__do_global_dtors_aux+0x16>
     26c:	4b04      	ldr	r3, [pc, #16]	; (280 <__do_global_dtors_aux+0x1c>)
     26e:	b113      	cbz	r3, 276 <__do_global_dtors_aux+0x12>
     270:	4804      	ldr	r0, [pc, #16]	; (284 <__do_global_dtors_aux+0x20>)
     272:	f3af 8000 	nop.w
     276:	2301      	movs	r3, #1
     278:	7023      	strb	r3, [r4, #0]
     27a:	bd10      	pop	{r4, pc}
     27c:	20000080 	.word	0x20000080
     280:	00000000 	.word	0x00000000
     284:	0000d504 	.word	0x0000d504

00000288 <frame_dummy>:
     288:	4b0c      	ldr	r3, [pc, #48]	; (2bc <frame_dummy+0x34>)
     28a:	b143      	cbz	r3, 29e <frame_dummy+0x16>
     28c:	480c      	ldr	r0, [pc, #48]	; (2c0 <frame_dummy+0x38>)
     28e:	490d      	ldr	r1, [pc, #52]	; (2c4 <frame_dummy+0x3c>)
     290:	b510      	push	{r4, lr}
     292:	f3af 8000 	nop.w
     296:	480c      	ldr	r0, [pc, #48]	; (2c8 <frame_dummy+0x40>)
     298:	6803      	ldr	r3, [r0, #0]
     29a:	b923      	cbnz	r3, 2a6 <frame_dummy+0x1e>
     29c:	bd10      	pop	{r4, pc}
     29e:	480a      	ldr	r0, [pc, #40]	; (2c8 <frame_dummy+0x40>)
     2a0:	6803      	ldr	r3, [r0, #0]
     2a2:	b933      	cbnz	r3, 2b2 <frame_dummy+0x2a>
     2a4:	4770      	bx	lr
     2a6:	4b09      	ldr	r3, [pc, #36]	; (2cc <frame_dummy+0x44>)
     2a8:	2b00      	cmp	r3, #0
     2aa:	d0f7      	beq.n	29c <frame_dummy+0x14>
     2ac:	e8bd 4010 	ldmia.w	sp!, {r4, lr}
     2b0:	4718      	bx	r3
     2b2:	4b06      	ldr	r3, [pc, #24]	; (2cc <frame_dummy+0x44>)
     2b4:	2b00      	cmp	r3, #0
     2b6:	d0f5      	beq.n	2a4 <frame_dummy+0x1c>
     2b8:	4718      	bx	r3
     2ba:	bf00      	nop
     2bc:	00000000 	.word	0x00000000
     2c0:	0000d504 	.word	0x0000d504
     2c4:	20000084 	.word	0x20000084
     2c8:	0000d504 	.word	0x0000d504
     2cc:	00000000 	.word	0x00000000

000002d0 <atmel_start_init>:
     2d0:	b510      	push	{r4, lr}
     2d2:	4b04      	ldr	r3, [pc, #16]	; (2e4 <atmel_start_init+0x14>)
     2d4:	4798      	blx	r3
     2d6:	4b04      	ldr	r3, [pc, #16]	; (2e8 <atmel_start_init+0x18>)
     2d8:	4798      	blx	r3
     2da:	4b04      	ldr	r3, [pc, #16]	; (2ec <atmel_start_init+0x1c>)
     2dc:	e8bd 4010 	ldmia.w	sp!, {r4, lr}
     2e0:	4718      	bx	r3
     2e2:	bf00      	nop
     2e4:	00000569 	.word	0x00000569
     2e8:	000083d9 	.word	0x000083d9
     2ec:	00000691 	.word	0x00000691

000002f0 <Dummy_Handler>:
     2f0:	e7fe      	b.n	2f0 <Dummy_Handler>
	...

000002f4 <Reset_Handler>:
     2f4:	b508      	push	{r3, lr}
     2f6:	4a14      	ldr	r2, [pc, #80]	; (348 <Reset_Handler+0x54>)
     2f8:	4b14      	ldr	r3, [pc, #80]	; (34c <Reset_Handler+0x58>)
     2fa:	429a      	cmp	r2, r3
     2fc:	d118      	bne.n	330 <Reset_Handler+0x3c>
     2fe:	4b14      	ldr	r3, [pc, #80]	; (350 <Reset_Handler+0x5c>)
     300:	4a14      	ldr	r2, [pc, #80]	; (354 <Reset_Handler+0x60>)
     302:	2100      	movs	r1, #0
     304:	4293      	cmp	r3, r2
     306:	d31c      	bcc.n	342 <Reset_Handler+0x4e>
     308:	4a13      	ldr	r2, [pc, #76]	; (358 <Reset_Handler+0x64>)
     30a:	4b14      	ldr	r3, [pc, #80]	; (35c <Reset_Handler+0x68>)
     30c:	f022 027f 	bic.w	r2, r2, #127	; 0x7f
     310:	609a      	str	r2, [r3, #8]
     312:	f8d3 2088 	ldr.w	r2, [r3, #136]	; 0x88
     316:	f442 0270 	orr.w	r2, r2, #15728640	; 0xf00000
     31a:	f8c3 2088 	str.w	r2, [r3, #136]	; 0x88
     31e:	f3bf 8f4f 	dsb	sy
     322:	f3bf 8f6f 	isb	sy
     326:	4b0e      	ldr	r3, [pc, #56]	; (360 <Reset_Handler+0x6c>)
     328:	4798      	blx	r3
     32a:	4b0e      	ldr	r3, [pc, #56]	; (364 <Reset_Handler+0x70>)
     32c:	4798      	blx	r3
     32e:	e7fe      	b.n	32e <Reset_Handler+0x3a>
     330:	490d      	ldr	r1, [pc, #52]	; (368 <Reset_Handler+0x74>)
     332:	3a04      	subs	r2, #4
     334:	428b      	cmp	r3, r1
     336:	d2e2      	bcs.n	2fe <Reset_Handler+0xa>
     338:	f852 0f04 	ldr.w	r0, [r2, #4]!
     33c:	f843 0b04 	str.w	r0, [r3], #4
     340:	e7f8      	b.n	334 <Reset_Handler+0x40>
     342:	f843 1b04 	str.w	r1, [r3], #4
     346:	e7dd      	b.n	304 <Reset_Handler+0x10>
     348:	0000d504 	.word	0x0000d504
     34c:	20000000 	.word	0x20000000
     350:	20000080 	.word	0x20000080
     354:	200090b0 	.word	0x200090b0
     358:	00000000 	.word	0x00000000
     35c:	e000ed00 	.word	0xe000ed00
     360:	000083f9 	.word	0x000083f9
     364:	000080e9 	.word	0x000080e9
     368:	20000074 	.word	0x20000074

0000036c <_gpio_set_pin_function>:
     36c:	b530      	push	{r4, r5, lr}
     36e:	1c4a      	adds	r2, r1, #1
     370:	b2c4      	uxtb	r4, r0
     372:	f3c0 1247 	ubfx	r2, r0, #5, #8
     376:	4816      	ldr	r0, [pc, #88]	; (3d0 <_gpio_set_pin_function+0x64>)
     378:	f004 031f 	and.w	r3, r4, #31
     37c:	eb00 10c2 	add.w	r0, r0, r2, lsl #7
     380:	d107      	bne.n	392 <_gpio_set_pin_function+0x26>
     382:	4418      	add	r0, r3
     384:	f890 3040 	ldrb.w	r3, [r0, #64]	; 0x40
     388:	f003 03fe 	and.w	r3, r3, #254	; 0xfe
     38c:	f880 3040 	strb.w	r3, [r0, #64]	; 0x40
     390:	bd30      	pop	{r4, r5, pc}
     392:	18c5      	adds	r5, r0, r3
     394:	085b      	lsrs	r3, r3, #1
     396:	f895 2040 	ldrb.w	r2, [r5, #64]	; 0x40
     39a:	f002 02fe 	and.w	r2, r2, #254	; 0xfe
     39e:	4418      	add	r0, r3
     3a0:	f042 0201 	orr.w	r2, r2, #1
     3a4:	f885 2040 	strb.w	r2, [r5, #64]	; 0x40
     3a8:	f890 3030 	ldrb.w	r3, [r0, #48]	; 0x30
     3ac:	f014 0f01 	tst.w	r4, #1
     3b0:	bf19      	ittee	ne
     3b2:	f003 030f 	andne.w	r3, r3, #15
     3b6:	ea43 1101 	orrne.w	r1, r3, r1, lsl #4
     3ba:	f001 010f 	andeq.w	r1, r1, #15
     3be:	f003 03f0 	andeq.w	r3, r3, #240	; 0xf0
     3c2:	bf14      	ite	ne
     3c4:	b2c9      	uxtbne	r1, r1
     3c6:	4319      	orreq	r1, r3
     3c8:	f880 1030 	strb.w	r1, [r0, #48]	; 0x30
     3cc:	bd30      	pop	{r4, r5, pc}
     3ce:	bf00      	nop
     3d0:	41008000 	.word	0x41008000

000003d4 <USART_0_PORT_init>:
     3d4:	b510      	push	{r4, lr}
     3d6:	4c05      	ldr	r4, [pc, #20]	; (3ec <USART_0_PORT_init+0x18>)
     3d8:	4905      	ldr	r1, [pc, #20]	; (3f0 <USART_0_PORT_init+0x1c>)
     3da:	205b      	movs	r0, #91	; 0x5b
     3dc:	47a0      	blx	r4
     3de:	4623      	mov	r3, r4
     3e0:	4904      	ldr	r1, [pc, #16]	; (3f4 <USART_0_PORT_init+0x20>)
     3e2:	205c      	movs	r0, #92	; 0x5c
     3e4:	e8bd 4010 	ldmia.w	sp!, {r4, lr}
     3e8:	4718      	bx	r3
     3ea:	bf00      	nop
     3ec:	0000036d 	.word	0x0000036d
     3f0:	005b0002 	.word	0x005b0002
     3f4:	005c0002 	.word	0x005c0002

000003f8 <USART_0_CLOCK_init>:
     3f8:	4b06      	ldr	r3, [pc, #24]	; (414 <USART_0_CLOCK_init+0x1c>)
     3fa:	2240      	movs	r2, #64	; 0x40
     3fc:	f8c3 20a0 	str.w	r2, [r3, #160]	; 0xa0
     400:	2243      	movs	r2, #67	; 0x43
     402:	f8c3 208c 	str.w	r2, [r3, #140]	; 0x8c
     406:	4a04      	ldr	r2, [pc, #16]	; (418 <USART_0_CLOCK_init+0x20>)
     408:	6953      	ldr	r3, [r2, #20]
     40a:	f443 5300 	orr.w	r3, r3, #8192	; 0x2000
     40e:	6153      	str	r3, [r2, #20]
     410:	4770      	bx	lr
     412:	bf00      	nop
     414:	40001c00 	.word	0x40001c00
     418:	40000800 	.word	0x40000800

0000041c <USART_0_init>:
     41c:	b510      	push	{r4, lr}
     41e:	4b05      	ldr	r3, [pc, #20]	; (434 <USART_0_init+0x18>)
     420:	4798      	blx	r3
     422:	4b05      	ldr	r3, [pc, #20]	; (438 <USART_0_init+0x1c>)
     424:	4905      	ldr	r1, [pc, #20]	; (43c <USART_0_init+0x20>)
     426:	4806      	ldr	r0, [pc, #24]	; (440 <USART_0_init+0x24>)
     428:	2200      	movs	r2, #0
     42a:	4798      	blx	r3
     42c:	4b05      	ldr	r3, [pc, #20]	; (444 <USART_0_init+0x28>)
     42e:	e8bd 4010 	ldmia.w	sp!, {r4, lr}
     432:	4718      	bx	r3
     434:	000003f9 	.word	0x000003f9
     438:	00000965 	.word	0x00000965
     43c:	40003400 	.word	0x40003400
     440:	20007fe8 	.word	0x20007fe8
     444:	000003d5 	.word	0x000003d5

00000448 <USART_1_PORT_init>:
     448:	b510      	push	{r4, lr}
     44a:	4c05      	ldr	r4, [pc, #20]	; (460 <USART_1_PORT_init+0x18>)
     44c:	4905      	ldr	r1, [pc, #20]	; (464 <USART_1_PORT_init+0x1c>)
     44e:	2030      	movs	r0, #48	; 0x30
     450:	47a0      	blx	r4
     452:	4623      	mov	r3, r4
     454:	4904      	ldr	r1, [pc, #16]	; (468 <USART_1_PORT_init+0x20>)
     456:	2031      	movs	r0, #49	; 0x31
     458:	e8bd 4010 	ldmia.w	sp!, {r4, lr}
     45c:	4718      	bx	r3
     45e:	bf00      	nop
     460:	0000036d 	.word	0x0000036d
     464:	00300002 	.word	0x00300002
     468:	00310002 	.word	0x00310002

0000046c <USART_1_CLOCK_init>:
     46c:	4b06      	ldr	r3, [pc, #24]	; (488 <USART_1_CLOCK_init+0x1c>)
     46e:	2240      	movs	r2, #64	; 0x40
     470:	f8c3 210c 	str.w	r2, [r3, #268]	; 0x10c
     474:	2243      	movs	r2, #67	; 0x43
     476:	f8c3 208c 	str.w	r2, [r3, #140]	; 0x8c
     47a:	4a04      	ldr	r2, [pc, #16]	; (48c <USART_1_CLOCK_init+0x20>)
     47c:	6a13      	ldr	r3, [r2, #32]
     47e:	f043 0302 	orr.w	r3, r3, #2
     482:	6213      	str	r3, [r2, #32]
     484:	4770      	bx	lr
     486:	bf00      	nop
     488:	40001c00 	.word	0x40001c00
     48c:	40000800 	.word	0x40000800

00000490 <USART_1_init>:
     490:	b510      	push	{r4, lr}
     492:	4b05      	ldr	r3, [pc, #20]	; (4a8 <USART_1_init+0x18>)
     494:	4798      	blx	r3
     496:	4b05      	ldr	r3, [pc, #20]	; (4ac <USART_1_init+0x1c>)
     498:	4905      	ldr	r1, [pc, #20]	; (4b0 <USART_1_init+0x20>)
     49a:	4806      	ldr	r0, [pc, #24]	; (4b4 <USART_1_init+0x24>)
     49c:	2200      	movs	r2, #0
     49e:	4798      	blx	r3
     4a0:	4b05      	ldr	r3, [pc, #20]	; (4b8 <USART_1_init+0x28>)
     4a2:	e8bd 4010 	ldmia.w	sp!, {r4, lr}
     4a6:	4718      	bx	r3
     4a8:	0000046d 	.word	0x0000046d
     4ac:	00000965 	.word	0x00000965
     4b0:	43000400 	.word	0x43000400
     4b4:	20007ff4 	.word	0x20007ff4
     4b8:	00000449 	.word	0x00000449

000004bc <ETHERNET_MAC_0_PORT_init>:
     4bc:	b510      	push	{r4, lr}
     4be:	490f      	ldr	r1, [pc, #60]	; (4fc <ETHERNET_MAC_0_PORT_init+0x40>)
     4c0:	4c0f      	ldr	r4, [pc, #60]	; (500 <ETHERNET_MAC_0_PORT_init+0x44>)
     4c2:	204b      	movs	r0, #75	; 0x4b
     4c4:	47a0      	blx	r4
     4c6:	490f      	ldr	r1, [pc, #60]	; (504 <ETHERNET_MAC_0_PORT_init+0x48>)
     4c8:	204c      	movs	r0, #76	; 0x4c
     4ca:	47a0      	blx	r4
     4cc:	490e      	ldr	r1, [pc, #56]	; (508 <ETHERNET_MAC_0_PORT_init+0x4c>)
     4ce:	200d      	movs	r0, #13
     4d0:	47a0      	blx	r4
     4d2:	490e      	ldr	r1, [pc, #56]	; (50c <ETHERNET_MAC_0_PORT_init+0x50>)
     4d4:	200c      	movs	r0, #12
     4d6:	47a0      	blx	r4
     4d8:	490d      	ldr	r1, [pc, #52]	; (510 <ETHERNET_MAC_0_PORT_init+0x54>)
     4da:	2054      	movs	r0, #84	; 0x54
     4dc:	47a0      	blx	r4
     4de:	490d      	ldr	r1, [pc, #52]	; (514 <ETHERNET_MAC_0_PORT_init+0x58>)
     4e0:	200f      	movs	r0, #15
     4e2:	47a0      	blx	r4
     4e4:	490c      	ldr	r1, [pc, #48]	; (518 <ETHERNET_MAC_0_PORT_init+0x5c>)
     4e6:	2012      	movs	r0, #18
     4e8:	47a0      	blx	r4
     4ea:	490c      	ldr	r1, [pc, #48]	; (51c <ETHERNET_MAC_0_PORT_init+0x60>)
     4ec:	2013      	movs	r0, #19
     4ee:	47a0      	blx	r4
     4f0:	4623      	mov	r3, r4
     4f2:	490b      	ldr	r1, [pc, #44]	; (520 <ETHERNET_MAC_0_PORT_init+0x64>)
     4f4:	2011      	movs	r0, #17
     4f6:	e8bd 4010 	ldmia.w	sp!, {r4, lr}
     4fa:	4718      	bx	r3
     4fc:	004b000b 	.word	0x004b000b
     500:	0000036d 	.word	0x0000036d
     504:	004c000b 	.word	0x004c000b
     508:	000d000b 	.word	0x000d000b
     50c:	000c000b 	.word	0x000c000b
     510:	0054000b 	.word	0x0054000b
     514:	000f000b 	.word	0x000f000b
     518:	0012000b 	.word	0x0012000b
     51c:	0013000b 	.word	0x0013000b
     520:	0011000b 	.word	0x0011000b

00000524 <ETHERNET_MAC_0_CLOCK_init>:
     524:	4b04      	ldr	r3, [pc, #16]	; (538 <ETHERNET_MAC_0_CLOCK_init+0x14>)
     526:	691a      	ldr	r2, [r3, #16]
     528:	f442 4280 	orr.w	r2, r2, #16384	; 0x4000
     52c:	611a      	str	r2, [r3, #16]
     52e:	69da      	ldr	r2, [r3, #28]
     530:	f042 0204 	orr.w	r2, r2, #4
     534:	61da      	str	r2, [r3, #28]
     536:	4770      	bx	lr
     538:	40000800 	.word	0x40000800

0000053c <ETHERNET_MAC_0_init>:
     53c:	b510      	push	{r4, lr}
     53e:	4b05      	ldr	r3, [pc, #20]	; (554 <ETHERNET_MAC_0_init+0x18>)
     540:	4798      	blx	r3
     542:	4b05      	ldr	r3, [pc, #20]	; (558 <ETHERNET_MAC_0_init+0x1c>)
     544:	4905      	ldr	r1, [pc, #20]	; (55c <ETHERNET_MAC_0_init+0x20>)
     546:	4806      	ldr	r0, [pc, #24]	; (560 <ETHERNET_MAC_0_init+0x24>)
     548:	4798      	blx	r3
     54a:	4b06      	ldr	r3, [pc, #24]	; (564 <ETHERNET_MAC_0_init+0x28>)
     54c:	e8bd 4010 	ldmia.w	sp!, {r4, lr}
     550:	4718      	bx	r3
     552:	bf00      	nop
     554:	00000525 	.word	0x00000525
     558:	00000779 	.word	0x00000779
     55c:	42000800 	.word	0x42000800
     560:	20008000 	.word	0x20008000
     564:	000004bd 	.word	0x000004bd

00000568 <system_init>:
     568:	b510      	push	{r4, lr}
     56a:	4b0b      	ldr	r3, [pc, #44]	; (598 <system_init+0x30>)
     56c:	4798      	blx	r3
     56e:	4a0b      	ldr	r2, [pc, #44]	; (59c <system_init+0x34>)
     570:	6953      	ldr	r3, [r2, #20]
     572:	f443 7300 	orr.w	r3, r3, #512	; 0x200
     576:	6153      	str	r3, [r2, #20]
     578:	4b09      	ldr	r3, [pc, #36]	; (5a0 <system_init+0x38>)
     57a:	4798      	blx	r3
     57c:	4909      	ldr	r1, [pc, #36]	; (5a4 <system_init+0x3c>)
     57e:	4b0a      	ldr	r3, [pc, #40]	; (5a8 <system_init+0x40>)
     580:	4602      	mov	r2, r0
     582:	480a      	ldr	r0, [pc, #40]	; (5ac <system_init+0x44>)
     584:	4798      	blx	r3
     586:	4b0a      	ldr	r3, [pc, #40]	; (5b0 <system_init+0x48>)
     588:	4798      	blx	r3
     58a:	4b0a      	ldr	r3, [pc, #40]	; (5b4 <system_init+0x4c>)
     58c:	4798      	blx	r3
     58e:	4b0a      	ldr	r3, [pc, #40]	; (5b8 <system_init+0x50>)
     590:	e8bd 4010 	ldmia.w	sp!, {r4, lr}
     594:	4718      	bx	r3
     596:	bf00      	nop
     598:	000009f1 	.word	0x000009f1
     59c:	40000800 	.word	0x40000800
     5a0:	00000f3d 	.word	0x00000f3d
     5a4:	40002400 	.word	0x40002400
     5a8:	000008c1 	.word	0x000008c1
     5ac:	2000801c 	.word	0x2000801c
     5b0:	0000041d 	.word	0x0000041d
     5b4:	00000491 	.word	0x00000491
     5b8:	0000053d 	.word	0x0000053d

000005bc <ethernet_phy_init>:
     5bc:	6001      	str	r1, [r0, #0]
     5be:	8082      	strh	r2, [r0, #4]
     5c0:	2000      	movs	r0, #0
     5c2:	4770      	bx	lr

000005c4 <ethernet_phy_set_reg_bit>:
     5c4:	b5f7      	push	{r0, r1, r2, r4, r5, r6, r7, lr}
     5c6:	4604      	mov	r4, r0
     5c8:	460e      	mov	r6, r1
     5ca:	4615      	mov	r5, r2
     5cc:	f10d 0306 	add.w	r3, sp, #6
     5d0:	460a      	mov	r2, r1
     5d2:	4f08      	ldr	r7, [pc, #32]	; (5f4 <ethernet_phy_set_reg_bit+0x30>)
     5d4:	8881      	ldrh	r1, [r0, #4]
     5d6:	6800      	ldr	r0, [r0, #0]
     5d8:	47b8      	blx	r7
     5da:	b948      	cbnz	r0, 5f0 <ethernet_phy_set_reg_bit+0x2c>
     5dc:	f8bd 3006 	ldrh.w	r3, [sp, #6]
     5e0:	88a1      	ldrh	r1, [r4, #4]
     5e2:	6820      	ldr	r0, [r4, #0]
     5e4:	4c04      	ldr	r4, [pc, #16]	; (5f8 <ethernet_phy_set_reg_bit+0x34>)
     5e6:	432b      	orrs	r3, r5
     5e8:	4632      	mov	r2, r6
     5ea:	f8ad 3006 	strh.w	r3, [sp, #6]
     5ee:	47a0      	blx	r4
     5f0:	b003      	add	sp, #12
     5f2:	bdf0      	pop	{r4, r5, r6, r7, pc}
     5f4:	000007f9 	.word	0x000007f9
     5f8:	000007e9 	.word	0x000007e9

000005fc <ethernet_phy_restart_autoneg>:
     5fc:	f44f 7200 	mov.w	r2, #512	; 0x200
     600:	2100      	movs	r1, #0
     602:	4b01      	ldr	r3, [pc, #4]	; (608 <ethernet_phy_restart_autoneg+0xc>)
     604:	4718      	bx	r3
     606:	bf00      	nop
     608:	000005c5 	.word	0x000005c5

0000060c <ethernet_phy_get_link_status>:
     60c:	b537      	push	{r0, r1, r2, r4, r5, lr}
     60e:	460c      	mov	r4, r1
     610:	f10d 0306 	add.w	r3, sp, #6
     614:	8881      	ldrh	r1, [r0, #4]
     616:	4d06      	ldr	r5, [pc, #24]	; (630 <ethernet_phy_get_link_status+0x24>)
     618:	6800      	ldr	r0, [r0, #0]
     61a:	2201      	movs	r2, #1
     61c:	47a8      	blx	r5
     61e:	b920      	cbnz	r0, 62a <ethernet_phy_get_link_status+0x1e>
     620:	f8bd 3006 	ldrh.w	r3, [sp, #6]
     624:	f3c3 0380 	ubfx	r3, r3, #2, #1
     628:	7023      	strb	r3, [r4, #0]
     62a:	b003      	add	sp, #12
     62c:	bd30      	pop	{r4, r5, pc}
     62e:	bf00      	nop
     630:	000007f9 	.word	0x000007f9

00000634 <ETHERNET_PHY_0_init>:
     634:	b510      	push	{r4, lr}
     636:	4c05      	ldr	r4, [pc, #20]	; (64c <ETHERNET_PHY_0_init+0x18>)
     638:	4b05      	ldr	r3, [pc, #20]	; (650 <ETHERNET_PHY_0_init+0x1c>)
     63a:	4620      	mov	r0, r4
     63c:	4798      	blx	r3
     63e:	4621      	mov	r1, r4
     640:	2200      	movs	r2, #0
     642:	4804      	ldr	r0, [pc, #16]	; (654 <ETHERNET_PHY_0_init+0x20>)
     644:	4b04      	ldr	r3, [pc, #16]	; (658 <ETHERNET_PHY_0_init+0x24>)
     646:	e8bd 4010 	ldmia.w	sp!, {r4, lr}
     64a:	4718      	bx	r3
     64c:	20008000 	.word	0x20008000
     650:	00000781 	.word	0x00000781
     654:	20007fe0 	.word	0x20007fe0
     658:	000005bd 	.word	0x000005bd

0000065c <ETHERNET_PHY_0_example>:
     65c:	b537      	push	{r0, r1, r2, r4, r5, lr}
     65e:	4b09      	ldr	r3, [pc, #36]	; (684 <ETHERNET_PHY_0_example+0x28>)
     660:	4809      	ldr	r0, [pc, #36]	; (688 <ETHERNET_PHY_0_example+0x2c>)
     662:	4798      	blx	r3
     664:	2800      	cmp	r0, #0
     666:	d1fd      	bne.n	664 <ETHERNET_PHY_0_example+0x8>
     668:	4d07      	ldr	r5, [pc, #28]	; (688 <ETHERNET_PHY_0_example+0x2c>)
     66a:	4c08      	ldr	r4, [pc, #32]	; (68c <ETHERNET_PHY_0_example+0x30>)
     66c:	f10d 0107 	add.w	r1, sp, #7
     670:	4628      	mov	r0, r5
     672:	47a0      	blx	r4
     674:	b918      	cbnz	r0, 67e <ETHERNET_PHY_0_example+0x22>
     676:	f89d 3007 	ldrb.w	r3, [sp, #7]
     67a:	2b00      	cmp	r3, #0
     67c:	d0f6      	beq.n	66c <ETHERNET_PHY_0_example+0x10>
     67e:	b003      	add	sp, #12
     680:	bd30      	pop	{r4, r5, pc}
     682:	bf00      	nop
     684:	000005fd 	.word	0x000005fd
     688:	20007fe0 	.word	0x20007fe0
     68c:	0000060d 	.word	0x0000060d

00000690 <ethernet_phys_init>:
     690:	4b07      	ldr	r3, [pc, #28]	; (6b0 <ethernet_phys_init+0x20>)
     692:	4908      	ldr	r1, [pc, #32]	; (6b4 <ethernet_phys_init+0x24>)
     694:	2210      	movs	r2, #16
     696:	f8c3 2088 	str.w	r2, [r3, #136]	; 0x88
     69a:	f8c3 10a8 	str.w	r1, [r3, #168]	; 0xa8
     69e:	f04f 4140 	mov.w	r1, #3221225472	; 0xc0000000
     6a2:	f8c3 10a8 	str.w	r1, [r3, #168]	; 0xa8
     6a6:	f8c3 2098 	str.w	r2, [r3, #152]	; 0x98
     6aa:	4b03      	ldr	r3, [pc, #12]	; (6b8 <ethernet_phys_init+0x28>)
     6ac:	4718      	bx	r3
     6ae:	bf00      	nop
     6b0:	41008000 	.word	0x41008000
     6b4:	40000010 	.word	0x40000010
     6b8:	00000635 	.word	0x00000635

000006bc <LWIP_MACIF_stack_init>:
     6bc:	4a0e      	ldr	r2, [pc, #56]	; (6f8 <LWIP_MACIF_stack_init+0x3c>)
     6be:	b508      	push	{r3, lr}
     6c0:	6142      	str	r2, [r0, #20]
     6c2:	4b0e      	ldr	r3, [pc, #56]	; (6fc <LWIP_MACIF_stack_init+0x40>)
     6c4:	4a0e      	ldr	r2, [pc, #56]	; (700 <LWIP_MACIF_stack_init+0x44>)
     6c6:	6182      	str	r2, [r0, #24]
     6c8:	226a      	movs	r2, #106	; 0x6a
     6ca:	f883 2035 	strb.w	r2, [r3, #53]	; 0x35
     6ce:	f44f 62c0 	mov.w	r2, #1536	; 0x600
     6d2:	859a      	strh	r2, [r3, #44]	; 0x2c
     6d4:	4a0b      	ldr	r2, [pc, #44]	; (704 <LWIP_MACIF_stack_init+0x48>)
     6d6:	6811      	ldr	r1, [r2, #0]
     6d8:	8892      	ldrh	r2, [r2, #4]
     6da:	f8a3 2033 	strh.w	r2, [r3, #51]	; 0x33
     6de:	2206      	movs	r2, #6
     6e0:	f883 202e 	strb.w	r2, [r3, #46]	; 0x2e
     6e4:	f646 6265 	movw	r2, #28261	; 0x6e65
     6e8:	f8c3 102f 	str.w	r1, [r3, #47]	; 0x2f
     6ec:	86da      	strh	r2, [r3, #54]	; 0x36
     6ee:	4b06      	ldr	r3, [pc, #24]	; (708 <LWIP_MACIF_stack_init+0x4c>)
     6f0:	4798      	blx	r3
     6f2:	2000      	movs	r0, #0
     6f4:	bd08      	pop	{r3, pc}
     6f6:	bf00      	nop
     6f8:	00007bf1 	.word	0x00007bf1
     6fc:	20008038 	.word	0x20008038
     700:	000010ed 	.word	0x000010ed
     704:	2000009c 	.word	0x2000009c
     708:	000010c5 	.word	0x000010c5

0000070c <LWIP_MACIF_init>:
     70c:	b510      	push	{r4, lr}
     70e:	b088      	sub	sp, #32
     710:	ab08      	add	r3, sp, #32
     712:	2200      	movs	r2, #0
     714:	f843 2d04 	str.w	r2, [r3, #-4]!
     718:	9205      	str	r2, [sp, #20]
     71a:	9206      	str	r2, [sp, #24]
     71c:	4a08      	ldr	r2, [pc, #32]	; (740 <LWIP_MACIF_init+0x34>)
     71e:	6801      	ldr	r1, [r0, #0]
     720:	6011      	str	r1, [r2, #0]
     722:	8881      	ldrh	r1, [r0, #4]
     724:	8091      	strh	r1, [r2, #4]
     726:	4a07      	ldr	r2, [pc, #28]	; (744 <LWIP_MACIF_init+0x38>)
     728:	9202      	str	r2, [sp, #8]
     72a:	4a07      	ldr	r2, [pc, #28]	; (748 <LWIP_MACIF_init+0x3c>)
     72c:	9201      	str	r2, [sp, #4]
     72e:	4a07      	ldr	r2, [pc, #28]	; (74c <LWIP_MACIF_init+0x40>)
     730:	9200      	str	r2, [sp, #0]
     732:	a905      	add	r1, sp, #20
     734:	aa06      	add	r2, sp, #24
     736:	4c06      	ldr	r4, [pc, #24]	; (750 <LWIP_MACIF_init+0x44>)
     738:	4806      	ldr	r0, [pc, #24]	; (754 <LWIP_MACIF_init+0x48>)
     73a:	47a0      	blx	r4
     73c:	b008      	add	sp, #32
     73e:	bd10      	pop	{r4, pc}
     740:	2000009c 	.word	0x2000009c
     744:	00007cfd 	.word	0x00007cfd
     748:	000006bd 	.word	0x000006bd
     74c:	20008000 	.word	0x20008000
     750:	00003c9d 	.word	0x00003c9d
     754:	20008038 	.word	0x20008038

00000758 <eth_ipstack_init>:
     758:	4b00      	ldr	r3, [pc, #0]	; (75c <eth_ipstack_init+0x4>)
     75a:	4718      	bx	r3
     75c:	00002785 	.word	0x00002785

00000760 <io_write>:
     760:	6803      	ldr	r3, [r0, #0]
     762:	4718      	bx	r3

00000764 <io_read>:
     764:	6843      	ldr	r3, [r0, #4]
     766:	4718      	bx	r3

00000768 <mac_read_cb>:
     768:	6943      	ldr	r3, [r0, #20]
     76a:	b103      	cbz	r3, 76e <mac_read_cb+0x6>
     76c:	4718      	bx	r3
     76e:	4770      	bx	lr

00000770 <mac_write_cb>:
     770:	6983      	ldr	r3, [r0, #24]
     772:	b103      	cbz	r3, 776 <mac_write_cb+0x6>
     774:	4718      	bx	r3
     776:	4770      	bx	lr

00000778 <mac_async_init>:
     778:	4b00      	ldr	r3, [pc, #0]	; (77c <mac_async_init+0x4>)
     77a:	4718      	bx	r3
     77c:	00000a9d 	.word	0x00000a9d

00000780 <mac_async_enable>:
     780:	4b00      	ldr	r3, [pc, #0]	; (784 <mac_async_enable+0x4>)
     782:	4718      	bx	r3
     784:	00000b45 	.word	0x00000b45

00000788 <mac_async_write>:
     788:	4b00      	ldr	r3, [pc, #0]	; (78c <mac_async_write+0x4>)
     78a:	4718      	bx	r3
     78c:	00000b55 	.word	0x00000b55

00000790 <mac_async_read>:
     790:	4b00      	ldr	r3, [pc, #0]	; (794 <mac_async_read+0x4>)
     792:	4718      	bx	r3
     794:	00000c55 	.word	0x00000c55

00000798 <mac_async_read_len>:
     798:	4b00      	ldr	r3, [pc, #0]	; (79c <mac_async_read_len+0x4>)
     79a:	4718      	bx	r3
     79c:	00000d49 	.word	0x00000d49

000007a0 <mac_async_enable_irq>:
     7a0:	4b00      	ldr	r3, [pc, #0]	; (7a4 <mac_async_enable_irq+0x4>)
     7a2:	4718      	bx	r3
     7a4:	00000da5 	.word	0x00000da5

000007a8 <mac_async_register_callback>:
     7a8:	b410      	push	{r4}
     7aa:	b131      	cbz	r1, 7ba <mac_async_register_callback+0x12>
     7ac:	2901      	cmp	r1, #1
     7ae:	d00d      	beq.n	7cc <mac_async_register_callback+0x24>
     7b0:	f06f 000c 	mvn.w	r0, #12
     7b4:	f85d 4b04 	ldr.w	r4, [sp], #4
     7b8:	4770      	bx	lr
     7ba:	6142      	str	r2, [r0, #20]
     7bc:	2a00      	cmp	r2, #0
     7be:	4a05      	ldr	r2, [pc, #20]	; (7d4 <mac_async_register_callback+0x2c>)
     7c0:	4b05      	ldr	r3, [pc, #20]	; (7d8 <mac_async_register_callback+0x30>)
     7c2:	f85d 4b04 	ldr.w	r4, [sp], #4
     7c6:	bf08      	it	eq
     7c8:	2200      	moveq	r2, #0
     7ca:	4718      	bx	r3
     7cc:	6182      	str	r2, [r0, #24]
     7ce:	2a00      	cmp	r2, #0
     7d0:	4a02      	ldr	r2, [pc, #8]	; (7dc <mac_async_register_callback+0x34>)
     7d2:	e7f5      	b.n	7c0 <mac_async_register_callback+0x18>
     7d4:	00000769 	.word	0x00000769
     7d8:	00000db5 	.word	0x00000db5
     7dc:	00000771 	.word	0x00000771

000007e0 <mac_async_set_filter>:
     7e0:	4b00      	ldr	r3, [pc, #0]	; (7e4 <mac_async_set_filter+0x4>)
     7e2:	4718      	bx	r3
     7e4:	00000ddd 	.word	0x00000ddd

000007e8 <mac_async_write_phy_reg>:
     7e8:	b410      	push	{r4}
     7ea:	4c02      	ldr	r4, [pc, #8]	; (7f4 <mac_async_write_phy_reg+0xc>)
     7ec:	46a4      	mov	ip, r4
     7ee:	f85d 4b04 	ldr.w	r4, [sp], #4
     7f2:	4760      	bx	ip
     7f4:	00000dfd 	.word	0x00000dfd

000007f8 <mac_async_read_phy_reg>:
     7f8:	b410      	push	{r4}
     7fa:	4c02      	ldr	r4, [pc, #8]	; (804 <mac_async_read_phy_reg+0xc>)
     7fc:	46a4      	mov	ip, r4
     7fe:	f85d 4b04 	ldr.w	r4, [sp], #4
     802:	4760      	bx	ip
     804:	00000e35 	.word	0x00000e35

00000808 <timer_add_timer_task>:
     808:	b5f0      	push	{r4, r5, r6, r7, lr}
     80a:	6805      	ldr	r5, [r0, #0]
     80c:	b91d      	cbnz	r5, 816 <timer_add_timer_task+0xe>
     80e:	4b0f      	ldr	r3, [pc, #60]	; (84c <timer_add_timer_task+0x44>)
     810:	e8bd 40f0 	ldmia.w	sp!, {r4, r5, r6, r7, lr}
     814:	4718      	bx	r3
     816:	f8d1 e008 	ldr.w	lr, [r1, #8]
     81a:	462c      	mov	r4, r5
     81c:	2600      	movs	r6, #0
     81e:	f1c2 0c01 	rsb	ip, r2, #1
     822:	6863      	ldr	r3, [r4, #4]
     824:	68a7      	ldr	r7, [r4, #8]
     826:	4293      	cmp	r3, r2
     828:	bf95      	itete	ls
     82a:	19db      	addls	r3, r3, r7
     82c:	4463      	addhi	r3, ip
     82e:	1a9b      	subls	r3, r3, r2
     830:	19db      	addhi	r3, r3, r7
     832:	4573      	cmp	r3, lr
     834:	d207      	bcs.n	846 <timer_add_timer_task+0x3e>
     836:	6823      	ldr	r3, [r4, #0]
     838:	4626      	mov	r6, r4
     83a:	b913      	cbnz	r3, 842 <timer_add_timer_task+0x3a>
     83c:	4630      	mov	r0, r6
     83e:	4b04      	ldr	r3, [pc, #16]	; (850 <timer_add_timer_task+0x48>)
     840:	e7e6      	b.n	810 <timer_add_timer_task+0x8>
     842:	461c      	mov	r4, r3
     844:	e7ed      	b.n	822 <timer_add_timer_task+0x1a>
     846:	42a5      	cmp	r5, r4
     848:	d1f8      	bne.n	83c <timer_add_timer_task+0x34>
     84a:	e7e0      	b.n	80e <timer_add_timer_task+0x6>
     84c:	0000099f 	.word	0x0000099f
     850:	000009a7 	.word	0x000009a7

00000854 <timer_process_counted>:
     854:	e92d 47f0 	stmdb	sp!, {r4, r5, r6, r7, r8, r9, sl, lr}
     858:	6906      	ldr	r6, [r0, #16]
     85a:	7e03      	ldrb	r3, [r0, #24]
     85c:	6944      	ldr	r4, [r0, #20]
     85e:	3601      	adds	r6, #1
     860:	07da      	lsls	r2, r3, #31
     862:	4605      	mov	r5, r0
     864:	6106      	str	r6, [r0, #16]
     866:	d410      	bmi.n	88a <timer_process_counted+0x36>
     868:	7e03      	ldrb	r3, [r0, #24]
     86a:	079b      	lsls	r3, r3, #30
     86c:	d40d      	bmi.n	88a <timer_process_counted+0x36>
     86e:	f8df 8048 	ldr.w	r8, [pc, #72]	; 8b8 <timer_process_counted+0x64>
     872:	f8df 9048 	ldr.w	r9, [pc, #72]	; 8bc <timer_process_counted+0x68>
     876:	f100 0714 	add.w	r7, r0, #20
     87a:	b124      	cbz	r4, 886 <timer_process_counted+0x32>
     87c:	6863      	ldr	r3, [r4, #4]
     87e:	68a2      	ldr	r2, [r4, #8]
     880:	1af3      	subs	r3, r6, r3
     882:	4293      	cmp	r3, r2
     884:	d207      	bcs.n	896 <timer_process_counted+0x42>
     886:	e8bd 87f0 	ldmia.w	sp!, {r4, r5, r6, r7, r8, r9, sl, pc}
     88a:	7e2b      	ldrb	r3, [r5, #24]
     88c:	f043 0302 	orr.w	r3, r3, #2
     890:	762b      	strb	r3, [r5, #24]
     892:	e8bd 87f0 	ldmia.w	sp!, {r4, r5, r6, r7, r8, r9, sl, pc}
     896:	4638      	mov	r0, r7
     898:	47c0      	blx	r8
     89a:	7c23      	ldrb	r3, [r4, #16]
     89c:	2b01      	cmp	r3, #1
     89e:	d104      	bne.n	8aa <timer_process_counted+0x56>
     8a0:	6066      	str	r6, [r4, #4]
     8a2:	4632      	mov	r2, r6
     8a4:	4621      	mov	r1, r4
     8a6:	4638      	mov	r0, r7
     8a8:	47c8      	blx	r9
     8aa:	f8d5 a014 	ldr.w	sl, [r5, #20]
     8ae:	68e3      	ldr	r3, [r4, #12]
     8b0:	4620      	mov	r0, r4
     8b2:	4798      	blx	r3
     8b4:	4654      	mov	r4, sl
     8b6:	e7e0      	b.n	87a <timer_process_counted+0x26>
     8b8:	000009af 	.word	0x000009af
     8bc:	00000809 	.word	0x00000809

000008c0 <timer_init>:
     8c0:	b510      	push	{r4, lr}
     8c2:	4b04      	ldr	r3, [pc, #16]	; (8d4 <timer_init+0x14>)
     8c4:	4604      	mov	r4, r0
     8c6:	4798      	blx	r3
     8c8:	2000      	movs	r0, #0
     8ca:	4b03      	ldr	r3, [pc, #12]	; (8d8 <timer_init+0x18>)
     8cc:	6120      	str	r0, [r4, #16]
     8ce:	6023      	str	r3, [r4, #0]
     8d0:	bd10      	pop	{r4, pc}
     8d2:	bf00      	nop
     8d4:	00000ef1 	.word	0x00000ef1
     8d8:	00000855 	.word	0x00000855

000008dc <usart_sync_write>:
     8dc:	e92d 43f8 	stmdb	sp!, {r3, r4, r5, r6, r7, r8, r9, lr}
     8e0:	4c0f      	ldr	r4, [pc, #60]	; (920 <usart_sync_write+0x44>)
     8e2:	460f      	mov	r7, r1
     8e4:	4616      	mov	r6, r2
     8e6:	f100 0508 	add.w	r5, r0, #8
     8ea:	46a1      	mov	r9, r4
     8ec:	4628      	mov	r0, r5
     8ee:	47a0      	blx	r4
     8f0:	2800      	cmp	r0, #0
     8f2:	d0fb      	beq.n	8ec <usart_sync_write+0x10>
     8f4:	f8df 8030 	ldr.w	r8, [pc, #48]	; 928 <usart_sync_write+0x4c>
     8f8:	2400      	movs	r4, #0
     8fa:	5d39      	ldrb	r1, [r7, r4]
     8fc:	4628      	mov	r0, r5
     8fe:	47c0      	blx	r8
     900:	4628      	mov	r0, r5
     902:	47c8      	blx	r9
     904:	2800      	cmp	r0, #0
     906:	d0fb      	beq.n	900 <usart_sync_write+0x24>
     908:	3401      	adds	r4, #1
     90a:	42b4      	cmp	r4, r6
     90c:	d3f5      	bcc.n	8fa <usart_sync_write+0x1e>
     90e:	4e05      	ldr	r6, [pc, #20]	; (924 <usart_sync_write+0x48>)
     910:	4628      	mov	r0, r5
     912:	47b0      	blx	r6
     914:	2800      	cmp	r0, #0
     916:	d0fb      	beq.n	910 <usart_sync_write+0x34>
     918:	4620      	mov	r0, r4
     91a:	e8bd 83f8 	ldmia.w	sp!, {r3, r4, r5, r6, r7, r8, r9, pc}
     91e:	bf00      	nop
     920:	000010a7 	.word	0x000010a7
     924:	000010b1 	.word	0x000010b1
     928:	00001099 	.word	0x00001099

0000092c <usart_sync_read>:
     92c:	e92d 43f8 	stmdb	sp!, {r3, r4, r5, r6, r7, r8, r9, lr}
     930:	f8df 9028 	ldr.w	r9, [pc, #40]	; 95c <usart_sync_read+0x30>
     934:	f8df 8028 	ldr.w	r8, [pc, #40]	; 960 <usart_sync_read+0x34>
     938:	460f      	mov	r7, r1
     93a:	4616      	mov	r6, r2
     93c:	2400      	movs	r4, #0
     93e:	f100 0508 	add.w	r5, r0, #8
     942:	4628      	mov	r0, r5
     944:	47c8      	blx	r9
     946:	2800      	cmp	r0, #0
     948:	d0fb      	beq.n	942 <usart_sync_read+0x16>
     94a:	4628      	mov	r0, r5
     94c:	47c0      	blx	r8
     94e:	5538      	strb	r0, [r7, r4]
     950:	3401      	adds	r4, #1
     952:	42b4      	cmp	r4, r6
     954:	d3f5      	bcc.n	942 <usart_sync_read+0x16>
     956:	4620      	mov	r0, r4
     958:	e8bd 83f8 	ldmia.w	sp!, {r3, r4, r5, r6, r7, r8, r9, pc}
     95c:	000010bb 	.word	0x000010bb
     960:	0000109f 	.word	0x0000109f

00000964 <usart_sync_init>:
     964:	b510      	push	{r4, lr}
     966:	4b05      	ldr	r3, [pc, #20]	; (97c <usart_sync_init+0x18>)
     968:	4604      	mov	r4, r0
     96a:	3008      	adds	r0, #8
     96c:	4798      	blx	r3
     96e:	b918      	cbnz	r0, 978 <usart_sync_init+0x14>
     970:	4b03      	ldr	r3, [pc, #12]	; (980 <usart_sync_init+0x1c>)
     972:	6063      	str	r3, [r4, #4]
     974:	4b03      	ldr	r3, [pc, #12]	; (984 <usart_sync_init+0x20>)
     976:	6023      	str	r3, [r4, #0]
     978:	bd10      	pop	{r4, pc}
     97a:	bf00      	nop
     97c:	00001079 	.word	0x00001079
     980:	0000092d 	.word	0x0000092d
     984:	000008dd 	.word	0x000008dd

00000988 <usart_sync_enable>:
     988:	b508      	push	{r3, lr}
     98a:	3008      	adds	r0, #8
     98c:	4b01      	ldr	r3, [pc, #4]	; (994 <usart_sync_enable+0xc>)
     98e:	4798      	blx	r3
     990:	2000      	movs	r0, #0
     992:	bd08      	pop	{r3, pc}
     994:	00001085 	.word	0x00001085

00000998 <usart_sync_get_io_descriptor>:
     998:	6008      	str	r0, [r1, #0]
     99a:	2000      	movs	r0, #0
     99c:	4770      	bx	lr

0000099e <list_insert_as_head>:
     99e:	6803      	ldr	r3, [r0, #0]
     9a0:	600b      	str	r3, [r1, #0]
     9a2:	6001      	str	r1, [r0, #0]
     9a4:	4770      	bx	lr

000009a6 <list_insert_after>:
     9a6:	6803      	ldr	r3, [r0, #0]
     9a8:	600b      	str	r3, [r1, #0]
     9aa:	6001      	str	r1, [r0, #0]
     9ac:	4770      	bx	lr

000009ae <list_remove_head>:
     9ae:	6803      	ldr	r3, [r0, #0]
     9b0:	b10b      	cbz	r3, 9b6 <list_remove_head+0x8>
     9b2:	681a      	ldr	r2, [r3, #0]
     9b4:	6002      	str	r2, [r0, #0]
     9b6:	4618      	mov	r0, r3
     9b8:	4770      	bx	lr
	...

000009bc <_sbrk>:
     9bc:	4b04      	ldr	r3, [pc, #16]	; (9d0 <_sbrk+0x14>)
     9be:	6819      	ldr	r1, [r3, #0]
     9c0:	4602      	mov	r2, r0
     9c2:	b909      	cbnz	r1, 9c8 <_sbrk+0xc>
     9c4:	4903      	ldr	r1, [pc, #12]	; (9d4 <_sbrk+0x18>)
     9c6:	6019      	str	r1, [r3, #0]
     9c8:	6818      	ldr	r0, [r3, #0]
     9ca:	4402      	add	r2, r0
     9cc:	601a      	str	r2, [r3, #0]
     9ce:	4770      	bx	lr
     9d0:	200000a4 	.word	0x200000a4
     9d4:	200190b0 	.word	0x200190b0

000009d8 <_close>:
     9d8:	f04f 30ff 	mov.w	r0, #4294967295
     9dc:	4770      	bx	lr

000009de <_fstat>:
     9de:	f44f 5300 	mov.w	r3, #8192	; 0x2000
     9e2:	604b      	str	r3, [r1, #4]
     9e4:	2000      	movs	r0, #0
     9e6:	4770      	bx	lr

000009e8 <_isatty>:
     9e8:	2001      	movs	r0, #1
     9ea:	4770      	bx	lr

000009ec <_lseek>:
     9ec:	2000      	movs	r0, #0
     9ee:	4770      	bx	lr

000009f0 <_init_chip>:
     9f0:	b510      	push	{r4, lr}
     9f2:	4a09      	ldr	r2, [pc, #36]	; (a18 <_init_chip+0x28>)
     9f4:	8813      	ldrh	r3, [r2, #0]
     9f6:	b29b      	uxth	r3, r3
     9f8:	8013      	strh	r3, [r2, #0]
     9fa:	4b08      	ldr	r3, [pc, #32]	; (a1c <_init_chip+0x2c>)
     9fc:	4798      	blx	r3
     9fe:	4b08      	ldr	r3, [pc, #32]	; (a20 <_init_chip+0x30>)
     a00:	4798      	blx	r3
     a02:	4b08      	ldr	r3, [pc, #32]	; (a24 <_init_chip+0x34>)
     a04:	4798      	blx	r3
     a06:	4b08      	ldr	r3, [pc, #32]	; (a28 <_init_chip+0x38>)
     a08:	4798      	blx	r3
     a0a:	f640 70ff 	movw	r0, #4095	; 0xfff
     a0e:	4b07      	ldr	r3, [pc, #28]	; (a2c <_init_chip+0x3c>)
     a10:	e8bd 4010 	ldmia.w	sp!, {r4, lr}
     a14:	4718      	bx	r3
     a16:	bf00      	nop
     a18:	41004000 	.word	0x41004000
     a1c:	00000e7d 	.word	0x00000e7d
     a20:	00000e91 	.word	0x00000e91
     a24:	00000e71 	.word	0x00000e71
     a28:	00000ea9 	.word	0x00000ea9
     a2c:	00000a31 	.word	0x00000a31

00000a30 <_gclk_init_generators_by_fref>:
     a30:	07c3      	lsls	r3, r0, #31
     a32:	d507      	bpl.n	a44 <_gclk_init_generators_by_fref+0x14>
     a34:	4b04      	ldr	r3, [pc, #16]	; (a48 <_gclk_init_generators_by_fref+0x18>)
     a36:	4a05      	ldr	r2, [pc, #20]	; (a4c <_gclk_init_generators_by_fref+0x1c>)
     a38:	621a      	str	r2, [r3, #32]
     a3a:	f643 72fd 	movw	r2, #16381	; 0x3ffd
     a3e:	6859      	ldr	r1, [r3, #4]
     a40:	4211      	tst	r1, r2
     a42:	d1fc      	bne.n	a3e <_gclk_init_generators_by_fref+0xe>
     a44:	4770      	bx	lr
     a46:	bf00      	nop
     a48:	40001c00 	.word	0x40001c00
     a4c:	00010101 	.word	0x00010101

00000a50 <GMAC_Handler>:
     a50:	b513      	push	{r0, r1, r4, lr}
     a52:	4c11      	ldr	r4, [pc, #68]	; (a98 <GMAC_Handler+0x48>)
     a54:	6820      	ldr	r0, [r4, #0]
     a56:	6803      	ldr	r3, [r0, #0]
     a58:	695a      	ldr	r2, [r3, #20]
     a5a:	9200      	str	r2, [sp, #0]
     a5c:	6a1a      	ldr	r2, [r3, #32]
     a5e:	9201      	str	r2, [sp, #4]
     a60:	6a5a      	ldr	r2, [r3, #36]	; 0x24
     a62:	9a00      	ldr	r2, [sp, #0]
     a64:	0692      	lsls	r2, r2, #26
     a66:	d50a      	bpl.n	a7e <GMAC_Handler+0x2e>
     a68:	9a00      	ldr	r2, [sp, #0]
     a6a:	615a      	str	r2, [r3, #20]
     a6c:	6863      	ldr	r3, [r4, #4]
     a6e:	eb04 03c3 	add.w	r3, r4, r3, lsl #3
     a72:	7bdb      	ldrb	r3, [r3, #15]
     a74:	09db      	lsrs	r3, r3, #7
     a76:	d002      	beq.n	a7e <GMAC_Handler+0x2e>
     a78:	6843      	ldr	r3, [r0, #4]
     a7a:	b103      	cbz	r3, a7e <GMAC_Handler+0x2e>
     a7c:	4798      	blx	r3
     a7e:	9b01      	ldr	r3, [sp, #4]
     a80:	079b      	lsls	r3, r3, #30
     a82:	d503      	bpl.n	a8c <GMAC_Handler+0x3c>
     a84:	6820      	ldr	r0, [r4, #0]
     a86:	6883      	ldr	r3, [r0, #8]
     a88:	b103      	cbz	r3, a8c <GMAC_Handler+0x3c>
     a8a:	4798      	blx	r3
     a8c:	6823      	ldr	r3, [r4, #0]
     a8e:	9a01      	ldr	r2, [sp, #4]
     a90:	681b      	ldr	r3, [r3, #0]
     a92:	621a      	str	r2, [r3, #32]
     a94:	b002      	add	sp, #8
     a96:	bd10      	pop	{r4, pc}
     a98:	200000c0 	.word	0x200000c0

00000a9c <_mac_async_init>:
     a9c:	2310      	movs	r3, #16
     a9e:	b5f0      	push	{r4, r5, r6, r7, lr}
     aa0:	6001      	str	r1, [r0, #0]
     aa2:	600b      	str	r3, [r1, #0]
     aa4:	4b21      	ldr	r3, [pc, #132]	; (b2c <_mac_async_init+0x90>)
     aa6:	604b      	str	r3, [r1, #4]
     aa8:	2200      	movs	r2, #0
     aaa:	4b21      	ldr	r3, [pc, #132]	; (b30 <_mac_async_init+0x94>)
     aac:	60ca      	str	r2, [r1, #12]
     aae:	610b      	str	r3, [r1, #16]
     ab0:	f240 1301 	movw	r3, #257	; 0x101
     ab4:	f8c1 20b8 	str.w	r2, [r1, #184]	; 0xb8
     ab8:	f8c1 30bc 	str.w	r3, [r1, #188]	; 0xbc
     abc:	4b1d      	ldr	r3, [pc, #116]	; (b34 <_mac_async_init+0x98>)
     abe:	f103 0420 	add.w	r4, r3, #32
     ac2:	609c      	str	r4, [r3, #8]
     ac4:	2480      	movs	r4, #128	; 0x80
     ac6:	60da      	str	r2, [r3, #12]
     ac8:	73dc      	strb	r4, [r3, #15]
     aca:	f203 54fc 	addw	r4, r3, #1532	; 0x5fc
     ace:	611c      	str	r4, [r3, #16]
     ad0:	24c0      	movs	r4, #192	; 0xc0
     ad2:	615a      	str	r2, [r3, #20]
     ad4:	605a      	str	r2, [r3, #4]
     ad6:	75dc      	strb	r4, [r3, #23]
     ad8:	f8c3 2bd8 	str.w	r2, [r3, #3032]	; 0xbd8
     adc:	f503 643e 	add.w	r4, r3, #3040	; 0xbe0
     ae0:	f503 6746 	add.w	r7, r3, #3168	; 0xc60
     ae4:	4615      	mov	r5, r2
     ae6:	eb07 1602 	add.w	r6, r7, r2, lsl #4
     aea:	5116      	str	r6, [r2, r4]
     aec:	18a6      	adds	r6, r4, r2
     aee:	3208      	adds	r2, #8
     af0:	2a80      	cmp	r2, #128	; 0x80
     af2:	6075      	str	r5, [r6, #4]
     af4:	d1f7      	bne.n	ae6 <_mac_async_init+0x4a>
     af6:	f893 2c58 	ldrb.w	r2, [r3, #3160]	; 0xc58
     afa:	6018      	str	r0, [r3, #0]
     afc:	f042 0202 	orr.w	r2, r2, #2
     b00:	f883 2c58 	strb.w	r2, [r3, #3160]	; 0xc58
     b04:	4a0c      	ldr	r2, [pc, #48]	; (b38 <_mac_async_init+0x9c>)
     b06:	4b0d      	ldr	r3, [pc, #52]	; (b3c <_mac_async_init+0xa0>)
     b08:	f8c2 5368 	str.w	r5, [r2, #872]	; 0x368
     b0c:	4a0c      	ldr	r2, [pc, #48]	; (b40 <_mac_async_init+0xa4>)
     b0e:	61ca      	str	r2, [r1, #28]
     b10:	f44f 1280 	mov.w	r2, #1048576	; 0x100000
     b14:	618c      	str	r4, [r1, #24]
     b16:	f8c3 2088 	str.w	r2, [r3, #136]	; 0x88
     b1a:	f3bf 8f4f 	dsb	sy
     b1e:	f3bf 8f6f 	isb	sy
     b22:	2000      	movs	r0, #0
     b24:	f8c3 2188 	str.w	r2, [r3, #392]	; 0x188
     b28:	609a      	str	r2, [r3, #8]
     b2a:	bdf0      	pop	{r4, r5, r6, r7, pc}
     b2c:	00100103 	.word	0x00100103
     b30:	00020704 	.word	0x00020704
     b34:	200000c0 	.word	0x200000c0
     b38:	200011b8 	.word	0x200011b8
     b3c:	e000e100 	.word	0xe000e100
     b40:	200000c8 	.word	0x200000c8

00000b44 <_mac_async_enable>:
     b44:	6802      	ldr	r2, [r0, #0]
     b46:	6813      	ldr	r3, [r2, #0]
     b48:	f043 030c 	orr.w	r3, r3, #12
     b4c:	6013      	str	r3, [r2, #0]
     b4e:	2000      	movs	r0, #0
     b50:	4770      	bx	lr
	...

00000b54 <_mac_async_write>:
     b54:	e92d 4ff7 	stmdb	sp!, {r0, r1, r2, r4, r5, r6, r7, r8, r9, sl, fp, lr}
     b58:	4c3b      	ldr	r4, [pc, #236]	; (c48 <_mac_async_write+0xf4>)
     b5a:	f8d4 3bd8 	ldr.w	r3, [r4, #3032]	; 0xbd8
     b5e:	eb04 03c3 	add.w	r3, r4, r3, lsl #3
     b62:	4680      	mov	r8, r0
     b64:	7bdb      	ldrb	r3, [r3, #15]
     b66:	09db      	lsrs	r3, r3, #7
     b68:	4616      	mov	r6, r2
     b6a:	d013      	beq.n	b94 <_mac_async_write+0x40>
     b6c:	f8d4 3bd8 	ldr.w	r3, [r4, #3032]	; 0xbd8
     b70:	eb04 03c3 	add.w	r3, r4, r3, lsl #3
     b74:	7b5b      	ldrb	r3, [r3, #13]
     b76:	09db      	lsrs	r3, r3, #7
     b78:	d10c      	bne.n	b94 <_mac_async_write+0x40>
     b7a:	f8d4 2bd8 	ldr.w	r2, [r4, #3032]	; 0xbd8
     b7e:	1c53      	adds	r3, r2, #1
     b80:	2b01      	cmp	r3, #1
     b82:	bf88      	it	hi
     b84:	f102 33ff 	addhi.w	r3, r2, #4294967295
     b88:	eb04 03c3 	add.w	r3, r4, r3, lsl #3
     b8c:	7bda      	ldrb	r2, [r3, #15]
     b8e:	f042 0280 	orr.w	r2, r2, #128	; 0x80
     b92:	73da      	strb	r2, [r3, #15]
     b94:	6863      	ldr	r3, [r4, #4]
     b96:	eb04 03c3 	add.w	r3, r4, r3, lsl #3
     b9a:	7bdb      	ldrb	r3, [r3, #15]
     b9c:	09db      	lsrs	r3, r3, #7
     b9e:	d050      	beq.n	c42 <_mac_async_write+0xee>
     ba0:	f240 53dc 	movw	r3, #1500	; 0x5dc
     ba4:	429e      	cmp	r6, r3
     ba6:	d90a      	bls.n	bbe <_mac_async_write+0x6a>
     ba8:	6862      	ldr	r2, [r4, #4]
     baa:	1c53      	adds	r3, r2, #1
     bac:	2b01      	cmp	r3, #1
     bae:	bf88      	it	hi
     bb0:	f102 33ff 	addhi.w	r3, r2, #4294967295
     bb4:	eb04 03c3 	add.w	r3, r4, r3, lsl #3
     bb8:	7bdb      	ldrb	r3, [r3, #15]
     bba:	09db      	lsrs	r3, r3, #7
     bbc:	d041      	beq.n	c42 <_mac_async_write+0xee>
     bbe:	6863      	ldr	r3, [r4, #4]
     bc0:	f8c4 3bd8 	str.w	r3, [r4, #3032]	; 0xbd8
     bc4:	f8df b088 	ldr.w	fp, [pc, #136]	; c50 <_mac_async_write+0xfc>
     bc8:	4b20      	ldr	r3, [pc, #128]	; (c4c <_mac_async_write+0xf8>)
     bca:	460d      	mov	r5, r1
     bcc:	f601 3ab8 	addw	sl, r1, #3000	; 0xbb8
     bd0:	f240 59dc 	movw	r9, #1500	; 0x5dc
     bd4:	454e      	cmp	r6, r9
     bd6:	6860      	ldr	r0, [r4, #4]
     bd8:	9301      	str	r3, [sp, #4]
     bda:	4637      	mov	r7, r6
     bdc:	bf28      	it	cs
     bde:	464f      	movcs	r7, r9
     be0:	4629      	mov	r1, r5
     be2:	463a      	mov	r2, r7
     be4:	fb09 b000 	mla	r0, r9, r0, fp
     be8:	4798      	blx	r3
     bea:	6862      	ldr	r2, [r4, #4]
     bec:	9b01      	ldr	r3, [sp, #4]
     bee:	eb04 02c2 	add.w	r2, r4, r2, lsl #3
     bf2:	1bf6      	subs	r6, r6, r7
     bf4:	60d7      	str	r7, [r2, #12]
     bf6:	bf01      	itttt	eq
     bf8:	6862      	ldreq	r2, [r4, #4]
     bfa:	eb04 02c2 	addeq.w	r2, r4, r2, lsl #3
     bfe:	7b51      	ldrbeq	r1, [r2, #13]
     c00:	f041 0180 	orreq.w	r1, r1, #128	; 0x80
     c04:	bf08      	it	eq
     c06:	7351      	strbeq	r1, [r2, #13]
     c08:	6862      	ldr	r2, [r4, #4]
     c0a:	3201      	adds	r2, #1
     c0c:	6062      	str	r2, [r4, #4]
     c0e:	6862      	ldr	r2, [r4, #4]
     c10:	2a02      	cmp	r2, #2
     c12:	d105      	bne.n	c20 <_mac_async_write+0xcc>
     c14:	2200      	movs	r2, #0
     c16:	6062      	str	r2, [r4, #4]
     c18:	7de2      	ldrb	r2, [r4, #23]
     c1a:	f042 0240 	orr.w	r2, r2, #64	; 0x40
     c1e:	75e2      	strb	r2, [r4, #23]
     c20:	b11e      	cbz	r6, c2a <_mac_async_write+0xd6>
     c22:	f205 55dc 	addw	r5, r5, #1500	; 0x5dc
     c26:	4555      	cmp	r5, sl
     c28:	d1d4      	bne.n	bd4 <_mac_async_write+0x80>
     c2a:	f3bf 8f4f 	dsb	sy
     c2e:	f8d8 2000 	ldr.w	r2, [r8]
     c32:	6813      	ldr	r3, [r2, #0]
     c34:	f443 7300 	orr.w	r3, r3, #512	; 0x200
     c38:	6013      	str	r3, [r2, #0]
     c3a:	2000      	movs	r0, #0
     c3c:	b003      	add	sp, #12
     c3e:	e8bd 8ff0 	ldmia.w	sp!, {r4, r5, r6, r7, r8, r9, sl, fp, pc}
     c42:	f06f 001b 	mvn.w	r0, #27
     c46:	e7f9      	b.n	c3c <_mac_async_write+0xe8>
     c48:	200000c0 	.word	0x200000c0
     c4c:	0000845f 	.word	0x0000845f
     c50:	200000e0 	.word	0x200000e0

00000c54 <_mac_async_read>:
     c54:	e92d 4ff8 	stmdb	sp!, {r3, r4, r5, r6, r7, r8, r9, sl, fp, lr}
     c58:	460b      	mov	r3, r1
     c5a:	4937      	ldr	r1, [pc, #220]	; (d38 <_mac_async_read+0xe4>)
     c5c:	4837      	ldr	r0, [pc, #220]	; (d3c <_mac_async_read+0xe8>)
     c5e:	4617      	mov	r7, r2
     c60:	f04f 35ff 	mov.w	r5, #4294967295
     c64:	2400      	movs	r4, #0
     c66:	4688      	mov	r8, r1
     c68:	f8d1 2368 	ldr.w	r2, [r1, #872]	; 0x368
     c6c:	4422      	add	r2, r4
     c6e:	2a0f      	cmp	r2, #15
     c70:	bf88      	it	hi
     c72:	3a10      	subhi	r2, #16
     c74:	eb00 02c2 	add.w	r2, r0, r2, lsl #3
     c78:	f892 6be0 	ldrb.w	r6, [r2, #3040]	; 0xbe0
     c7c:	07f6      	lsls	r6, r6, #31
     c7e:	d51e      	bpl.n	cbe <_mac_async_read+0x6a>
     c80:	f892 6be5 	ldrb.w	r6, [r2, #3045]	; 0xbe5
     c84:	f016 0f40 	tst.w	r6, #64	; 0x40
     c88:	bf18      	it	ne
     c8a:	4625      	movne	r5, r4
     c8c:	09f6      	lsrs	r6, r6, #7
     c8e:	f104 0601 	add.w	r6, r4, #1
     c92:	d011      	beq.n	cb8 <_mac_async_read+0x64>
     c94:	f1b5 3fff 	cmp.w	r5, #4294967295
     c98:	d00e      	beq.n	cb8 <_mac_async_read+0x64>
     c9a:	f8b2 2be4 	ldrh.w	r2, [r2, #3044]	; 0xbe4
     c9e:	f3c2 020c 	ubfx	r2, r2, #0, #13
     ca2:	4297      	cmp	r7, r2
     ca4:	bf28      	it	cs
     ca6:	4617      	movcs	r7, r2
     ca8:	f04f 0900 	mov.w	r9, #0
     cac:	46ca      	mov	sl, r9
     cae:	45b2      	cmp	sl, r6
     cb0:	d10d      	bne.n	cce <_mac_async_read+0x7a>
     cb2:	4648      	mov	r0, r9
     cb4:	e8bd 8ff8 	ldmia.w	sp!, {r3, r4, r5, r6, r7, r8, r9, sl, fp, pc}
     cb8:	2e10      	cmp	r6, #16
     cba:	4634      	mov	r4, r6
     cbc:	d1d4      	bne.n	c68 <_mac_async_read+0x14>
     cbe:	1c6a      	adds	r2, r5, #1
     cc0:	d101      	bne.n	cc6 <_mac_async_read+0x72>
     cc2:	4626      	mov	r6, r4
     cc4:	e000      	b.n	cc8 <_mac_async_read+0x74>
     cc6:	462e      	mov	r6, r5
     cc8:	f04f 34ff 	mov.w	r4, #4294967295
     ccc:	e7ec      	b.n	ca8 <_mac_async_read+0x54>
     cce:	1c61      	adds	r1, r4, #1
     cd0:	d017      	beq.n	d02 <_mac_async_read+0xae>
     cd2:	45aa      	cmp	sl, r5
     cd4:	d315      	bcc.n	d02 <_mac_async_read+0xae>
     cd6:	45a2      	cmp	sl, r4
     cd8:	d813      	bhi.n	d02 <_mac_async_read+0xae>
     cda:	b197      	cbz	r7, d02 <_mac_async_read+0xae>
     cdc:	2f80      	cmp	r7, #128	; 0x80
     cde:	f8d8 1368 	ldr.w	r1, [r8, #872]	; 0x368
     ce2:	4817      	ldr	r0, [pc, #92]	; (d40 <_mac_async_read+0xec>)
     ce4:	46bb      	mov	fp, r7
     ce6:	bf28      	it	cs
     ce8:	f04f 0b80 	movcs.w	fp, #128	; 0x80
     cec:	eb00 11c1 	add.w	r1, r0, r1, lsl #7
     cf0:	465a      	mov	r2, fp
     cf2:	4618      	mov	r0, r3
     cf4:	4b13      	ldr	r3, [pc, #76]	; (d44 <_mac_async_read+0xf0>)
     cf6:	4798      	blx	r3
     cf8:	4603      	mov	r3, r0
     cfa:	445b      	add	r3, fp
     cfc:	44d9      	add	r9, fp
     cfe:	eba7 070b 	sub.w	r7, r7, fp
     d02:	f8d8 2368 	ldr.w	r2, [r8, #872]	; 0x368
     d06:	490d      	ldr	r1, [pc, #52]	; (d3c <_mac_async_read+0xe8>)
     d08:	eb01 02c2 	add.w	r2, r1, r2, lsl #3
     d0c:	f10a 0a01 	add.w	sl, sl, #1
     d10:	f892 1be0 	ldrb.w	r1, [r2, #3040]	; 0xbe0
     d14:	f36f 0100 	bfc	r1, #0, #1
     d18:	f882 1be0 	strb.w	r1, [r2, #3040]	; 0xbe0
     d1c:	f8d8 2368 	ldr.w	r2, [r8, #872]	; 0x368
     d20:	3201      	adds	r2, #1
     d22:	f8c8 2368 	str.w	r2, [r8, #872]	; 0x368
     d26:	f8d8 2368 	ldr.w	r2, [r8, #872]	; 0x368
     d2a:	2a10      	cmp	r2, #16
     d2c:	bf04      	itt	eq
     d2e:	2200      	moveq	r2, #0
     d30:	f8c8 2368 	streq.w	r2, [r8, #872]	; 0x368
     d34:	e7bb      	b.n	cae <_mac_async_read+0x5a>
     d36:	bf00      	nop
     d38:	200011b8 	.word	0x200011b8
     d3c:	200000c0 	.word	0x200000c0
     d40:	20000d20 	.word	0x20000d20
     d44:	0000845f 	.word	0x0000845f

00000d48 <_mac_async_read_len>:
     d48:	b5f0      	push	{r4, r5, r6, r7, lr}
     d4a:	4c14      	ldr	r4, [pc, #80]	; (d9c <_mac_async_read_len+0x54>)
     d4c:	4f14      	ldr	r7, [pc, #80]	; (da0 <_mac_async_read_len+0x58>)
     d4e:	2000      	movs	r0, #0
     d50:	4601      	mov	r1, r0
     d52:	4602      	mov	r2, r0
     d54:	4625      	mov	r5, r4
     d56:	f8d7 3368 	ldr.w	r3, [r7, #872]	; 0x368
     d5a:	4413      	add	r3, r2
     d5c:	2b0f      	cmp	r3, #15
     d5e:	bf88      	it	hi
     d60:	3b10      	subhi	r3, #16
     d62:	00db      	lsls	r3, r3, #3
     d64:	18e6      	adds	r6, r4, r3
     d66:	f896 ebe0 	ldrb.w	lr, [r6, #3040]	; 0xbe0
     d6a:	f01e 0f01 	tst.w	lr, #1
     d6e:	d013      	beq.n	d98 <_mac_async_read_len+0x50>
     d70:	f896 6be5 	ldrb.w	r6, [r6, #3045]	; 0xbe5
     d74:	0676      	lsls	r6, r6, #25
     d76:	d400      	bmi.n	d7a <_mac_async_read_len+0x32>
     d78:	b131      	cbz	r1, d88 <_mac_async_read_len+0x40>
     d7a:	18e9      	adds	r1, r5, r3
     d7c:	f8b1 1be4 	ldrh.w	r1, [r1, #3044]	; 0xbe4
     d80:	f3c1 010c 	ubfx	r1, r1, #0, #13
     d84:	4408      	add	r0, r1
     d86:	2101      	movs	r1, #1
     d88:	442b      	add	r3, r5
     d8a:	f893 3be5 	ldrb.w	r3, [r3, #3045]	; 0xbe5
     d8e:	09db      	lsrs	r3, r3, #7
     d90:	d102      	bne.n	d98 <_mac_async_read_len+0x50>
     d92:	3201      	adds	r2, #1
     d94:	2a10      	cmp	r2, #16
     d96:	d1de      	bne.n	d56 <_mac_async_read_len+0xe>
     d98:	bdf0      	pop	{r4, r5, r6, r7, pc}
     d9a:	bf00      	nop
     d9c:	200000c0 	.word	0x200000c0
     da0:	200011b8 	.word	0x200011b8

00000da4 <_mac_async_enable_irq>:
     da4:	4b02      	ldr	r3, [pc, #8]	; (db0 <_mac_async_enable_irq+0xc>)
     da6:	f44f 1280 	mov.w	r2, #1048576	; 0x100000
     daa:	609a      	str	r2, [r3, #8]
     dac:	4770      	bx	lr
     dae:	bf00      	nop
     db0:	e000e100 	.word	0xe000e100

00000db4 <_mac_async_register_callback>:
     db4:	b151      	cbz	r1, dcc <_mac_async_register_callback+0x18>
     db6:	2901      	cmp	r1, #1
     db8:	d10d      	bne.n	dd6 <_mac_async_register_callback+0x22>
     dba:	6042      	str	r2, [r0, #4]
     dbc:	6803      	ldr	r3, [r0, #0]
     dbe:	2180      	movs	r1, #128	; 0x80
     dc0:	b112      	cbz	r2, dc8 <_mac_async_register_callback+0x14>
     dc2:	6299      	str	r1, [r3, #40]	; 0x28
     dc4:	2000      	movs	r0, #0
     dc6:	4770      	bx	lr
     dc8:	62d9      	str	r1, [r3, #44]	; 0x2c
     dca:	e7fb      	b.n	dc4 <_mac_async_register_callback+0x10>
     dcc:	6803      	ldr	r3, [r0, #0]
     dce:	6082      	str	r2, [r0, #8]
     dd0:	2002      	movs	r0, #2
     dd2:	6298      	str	r0, [r3, #40]	; 0x28
     dd4:	e7f6      	b.n	dc4 <_mac_async_register_callback+0x10>
     dd6:	f06f 000c 	mvn.w	r0, #12
     dda:	4770      	bx	lr

00000ddc <_mac_async_set_filter>:
     ddc:	6803      	ldr	r3, [r0, #0]
     dde:	b510      	push	{r4, lr}
     de0:	eb03 00c1 	add.w	r0, r3, r1, lsl #3
     de4:	6814      	ldr	r4, [r2, #0]
     de6:	f8c0 4088 	str.w	r4, [r0, #136]	; 0x88
     dea:	312a      	adds	r1, #42	; 0x2a
     dec:	8894      	ldrh	r4, [r2, #4]
     dee:	88d2      	ldrh	r2, [r2, #6]
     df0:	f8c0 408c 	str.w	r4, [r0, #140]	; 0x8c
     df4:	f843 2021 	str.w	r2, [r3, r1, lsl #2]
     df8:	2000      	movs	r0, #0
     dfa:	bd10      	pop	{r4, pc}

00000dfc <_mac_async_write_phy_reg>:
     dfc:	b510      	push	{r4, lr}
     dfe:	6800      	ldr	r0, [r0, #0]
     e00:	0492      	lsls	r2, r2, #18
     e02:	f043 43a0 	orr.w	r3, r3, #1342177280	; 0x50000000
     e06:	6804      	ldr	r4, [r0, #0]
     e08:	f402 02f8 	and.w	r2, r2, #8126464	; 0x7c0000
     e0c:	f443 3300 	orr.w	r3, r3, #131072	; 0x20000
     e10:	05c9      	lsls	r1, r1, #23
     e12:	431a      	orrs	r2, r3
     e14:	f001 6178 	and.w	r1, r1, #260046848	; 0xf800000
     e18:	f044 0410 	orr.w	r4, r4, #16
     e1c:	430a      	orrs	r2, r1
     e1e:	6004      	str	r4, [r0, #0]
     e20:	6342      	str	r2, [r0, #52]	; 0x34
     e22:	6883      	ldr	r3, [r0, #8]
     e24:	075b      	lsls	r3, r3, #29
     e26:	d5fc      	bpl.n	e22 <_mac_async_write_phy_reg+0x26>
     e28:	6803      	ldr	r3, [r0, #0]
     e2a:	f023 0310 	bic.w	r3, r3, #16
     e2e:	6003      	str	r3, [r0, #0]
     e30:	2000      	movs	r0, #0
     e32:	bd10      	pop	{r4, pc}

00000e34 <_mac_async_read_phy_reg>:
     e34:	b510      	push	{r4, lr}
     e36:	6800      	ldr	r0, [r0, #0]
     e38:	0492      	lsls	r2, r2, #18
     e3a:	f402 02f8 	and.w	r2, r2, #8126464	; 0x7c0000
     e3e:	6804      	ldr	r4, [r0, #0]
     e40:	f042 42c0 	orr.w	r2, r2, #1610612736	; 0x60000000
     e44:	05c9      	lsls	r1, r1, #23
     e46:	f442 3200 	orr.w	r2, r2, #131072	; 0x20000
     e4a:	f001 6178 	and.w	r1, r1, #260046848	; 0xf800000
     e4e:	f044 0410 	orr.w	r4, r4, #16
     e52:	430a      	orrs	r2, r1
     e54:	6004      	str	r4, [r0, #0]
     e56:	6342      	str	r2, [r0, #52]	; 0x34
     e58:	6882      	ldr	r2, [r0, #8]
     e5a:	0752      	lsls	r2, r2, #29
     e5c:	d5fc      	bpl.n	e58 <_mac_async_read_phy_reg+0x24>
     e5e:	6b42      	ldr	r2, [r0, #52]	; 0x34
     e60:	801a      	strh	r2, [r3, #0]
     e62:	6803      	ldr	r3, [r0, #0]
     e64:	f023 0310 	bic.w	r3, r3, #16
     e68:	6003      	str	r3, [r0, #0]
     e6a:	2000      	movs	r0, #0
     e6c:	bd10      	pop	{r4, pc}
	...

00000e70 <_mclk_init>:
     e70:	4b01      	ldr	r3, [pc, #4]	; (e78 <_mclk_init+0x8>)
     e72:	2201      	movs	r2, #1
     e74:	715a      	strb	r2, [r3, #5]
     e76:	4770      	bx	lr
     e78:	40000800 	.word	0x40000800

00000e7c <_osc32kctrl_init_sources>:
     e7c:	4b03      	ldr	r3, [pc, #12]	; (e8c <_osc32kctrl_init_sources+0x10>)
     e7e:	69da      	ldr	r2, [r3, #28]
     e80:	f402 527c 	and.w	r2, r2, #16128	; 0x3f00
     e84:	61da      	str	r2, [r3, #28]
     e86:	2201      	movs	r2, #1
     e88:	741a      	strb	r2, [r3, #16]
     e8a:	4770      	bx	lr
     e8c:	40001400 	.word	0x40001400

00000e90 <_oscctrl_init_sources>:
     e90:	4b03      	ldr	r3, [pc, #12]	; (ea0 <_oscctrl_init_sources+0x10>)
     e92:	4a04      	ldr	r2, [pc, #16]	; (ea4 <_oscctrl_init_sources+0x14>)
     e94:	619a      	str	r2, [r3, #24]
     e96:	691a      	ldr	r2, [r3, #16]
     e98:	0792      	lsls	r2, r2, #30
     e9a:	d5fc      	bpl.n	e96 <_oscctrl_init_sources+0x6>
     e9c:	4770      	bx	lr
     e9e:	bf00      	nop
     ea0:	40001000 	.word	0x40001000
     ea4:	03002606 	.word	0x03002606

00000ea8 <_oscctrl_init_referenced_generators>:
     ea8:	4770      	bx	lr
	...

00000eac <RAMECC_Handler>:
     eac:	b507      	push	{r0, r1, r2, lr}
     eae:	4a0c      	ldr	r2, [pc, #48]	; (ee0 <RAMECC_Handler+0x34>)
     eb0:	7893      	ldrb	r3, [r2, #2]
     eb2:	b2db      	uxtb	r3, r3
     eb4:	9301      	str	r3, [sp, #4]
     eb6:	9b01      	ldr	r3, [sp, #4]
     eb8:	0799      	lsls	r1, r3, #30
     eba:	d507      	bpl.n	ecc <RAMECC_Handler+0x20>
     ebc:	4b09      	ldr	r3, [pc, #36]	; (ee4 <RAMECC_Handler+0x38>)
     ebe:	681b      	ldr	r3, [r3, #0]
     ec0:	b123      	cbz	r3, ecc <RAMECC_Handler+0x20>
     ec2:	6850      	ldr	r0, [r2, #4]
     ec4:	4798      	blx	r3
     ec6:	b003      	add	sp, #12
     ec8:	f85d fb04 	ldr.w	pc, [sp], #4
     ecc:	9b01      	ldr	r3, [sp, #4]
     ece:	07db      	lsls	r3, r3, #31
     ed0:	d5f9      	bpl.n	ec6 <RAMECC_Handler+0x1a>
     ed2:	4b04      	ldr	r3, [pc, #16]	; (ee4 <RAMECC_Handler+0x38>)
     ed4:	685b      	ldr	r3, [r3, #4]
     ed6:	2b00      	cmp	r3, #0
     ed8:	d0f5      	beq.n	ec6 <RAMECC_Handler+0x1a>
     eda:	4a01      	ldr	r2, [pc, #4]	; (ee0 <RAMECC_Handler+0x34>)
     edc:	e7f1      	b.n	ec2 <RAMECC_Handler+0x16>
     ede:	bf00      	nop
     ee0:	41020000 	.word	0x41020000
     ee4:	20008074 	.word	0x20008074

00000ee8 <hri_rtcmode0_wait_for_sync>:
     ee8:	6903      	ldr	r3, [r0, #16]
     eea:	420b      	tst	r3, r1
     eec:	d1fc      	bne.n	ee8 <hri_rtcmode0_wait_for_sync>
     eee:	4770      	bx	lr

00000ef0 <_timer_init>:
     ef0:	4602      	mov	r2, r0
     ef2:	b538      	push	{r3, r4, r5, lr}
     ef4:	2501      	movs	r5, #1
     ef6:	60d1      	str	r1, [r2, #12]
     ef8:	4c0e      	ldr	r4, [pc, #56]	; (f34 <_timer_init+0x44>)
     efa:	800d      	strh	r5, [r1, #0]
     efc:	4608      	mov	r0, r1
     efe:	f248 0103 	movw	r1, #32771	; 0x8003
     f02:	47a0      	blx	r4
     f04:	4629      	mov	r1, r5
     f06:	68d0      	ldr	r0, [r2, #12]
     f08:	47a0      	blx	r4
     f0a:	68d0      	ldr	r0, [r2, #12]
     f0c:	f248 0380 	movw	r3, #32896	; 0x8080
     f10:	8003      	strh	r3, [r0, #0]
     f12:	f248 0103 	movw	r1, #32771	; 0x8003
     f16:	47a0      	blx	r4
     f18:	68d0      	ldr	r0, [r2, #12]
     f1a:	2320      	movs	r3, #32
     f1c:	6203      	str	r3, [r0, #32]
     f1e:	2160      	movs	r1, #96	; 0x60
     f20:	47a0      	blx	r4
     f22:	68d3      	ldr	r3, [r2, #12]
     f24:	f44f 7180 	mov.w	r1, #256	; 0x100
     f28:	8159      	strh	r1, [r3, #10]
     f2a:	4b03      	ldr	r3, [pc, #12]	; (f38 <_timer_init+0x48>)
     f2c:	2000      	movs	r0, #0
     f2e:	601a      	str	r2, [r3, #0]
     f30:	bd38      	pop	{r3, r4, r5, pc}
     f32:	bf00      	nop
     f34:	00000ee9 	.word	0x00000ee9
     f38:	20001524 	.word	0x20001524

00000f3c <_rtc_get_timer>:
     f3c:	2000      	movs	r0, #0
     f3e:	4770      	bx	lr

00000f40 <RTC_Handler>:
     f40:	4b07      	ldr	r3, [pc, #28]	; (f60 <RTC_Handler+0x20>)
     f42:	b510      	push	{r4, lr}
     f44:	681c      	ldr	r4, [r3, #0]
     f46:	68e3      	ldr	r3, [r4, #12]
     f48:	899b      	ldrh	r3, [r3, #12]
     f4a:	05db      	lsls	r3, r3, #23
     f4c:	d507      	bpl.n	f5e <RTC_Handler+0x1e>
     f4e:	6823      	ldr	r3, [r4, #0]
     f50:	b10b      	cbz	r3, f56 <RTC_Handler+0x16>
     f52:	4620      	mov	r0, r4
     f54:	4798      	blx	r3
     f56:	68e3      	ldr	r3, [r4, #12]
     f58:	f44f 7280 	mov.w	r2, #256	; 0x100
     f5c:	819a      	strh	r2, [r3, #12]
     f5e:	bd10      	pop	{r4, pc}
     f60:	20001524 	.word	0x20001524

00000f64 <hri_sercomusart_wait_for_sync>:
     f64:	69c3      	ldr	r3, [r0, #28]
     f66:	420b      	tst	r3, r1
     f68:	d1fc      	bne.n	f64 <hri_sercomusart_wait_for_sync>
     f6a:	4770      	bx	lr

00000f6c <hri_sercomusart_clear_CTRLA_ENABLE_bit>:
     f6c:	6803      	ldr	r3, [r0, #0]
     f6e:	f023 0302 	bic.w	r3, r3, #2
     f72:	6003      	str	r3, [r0, #0]
     f74:	2103      	movs	r1, #3
     f76:	4b01      	ldr	r3, [pc, #4]	; (f7c <hri_sercomusart_clear_CTRLA_ENABLE_bit+0x10>)
     f78:	4718      	bx	r3
     f7a:	bf00      	nop
     f7c:	00000f65 	.word	0x00000f65

00000f80 <_sercom_get_hardware_index>:
     f80:	b570      	push	{r4, r5, r6, lr}
     f82:	4d0b      	ldr	r5, [pc, #44]	; (fb0 <_sercom_get_hardware_index+0x30>)
     f84:	4606      	mov	r6, r0
     f86:	cd0f      	ldmia	r5!, {r0, r1, r2, r3}
     f88:	b088      	sub	sp, #32
     f8a:	466c      	mov	r4, sp
     f8c:	c40f      	stmia	r4!, {r0, r1, r2, r3}
     f8e:	e895 000f 	ldmia.w	r5, {r0, r1, r2, r3}
     f92:	e884 000f 	stmia.w	r4, {r0, r1, r2, r3}
     f96:	2000      	movs	r0, #0
     f98:	f85d 3020 	ldr.w	r3, [sp, r0, lsl #2]
     f9c:	42b3      	cmp	r3, r6
     f9e:	d102      	bne.n	fa6 <_sercom_get_hardware_index+0x26>
     fa0:	b2c0      	uxtb	r0, r0
     fa2:	b008      	add	sp, #32
     fa4:	bd70      	pop	{r4, r5, r6, pc}
     fa6:	3001      	adds	r0, #1
     fa8:	2808      	cmp	r0, #8
     faa:	d1f5      	bne.n	f98 <_sercom_get_hardware_index+0x18>
     fac:	2000      	movs	r0, #0
     fae:	e7f8      	b.n	fa2 <_sercom_get_hardware_index+0x22>
     fb0:	00009608 	.word	0x00009608

00000fb4 <_usart_init>:
     fb4:	e92d 41f0 	stmdb	sp!, {r4, r5, r6, r7, r8, lr}
     fb8:	4b2b      	ldr	r3, [pc, #172]	; (1068 <_usart_init+0xb4>)
     fba:	4f2c      	ldr	r7, [pc, #176]	; (106c <_usart_init+0xb8>)
     fbc:	4e2c      	ldr	r6, [pc, #176]	; (1070 <_usart_init+0xbc>)
     fbe:	4604      	mov	r4, r0
     fc0:	4798      	blx	r3
     fc2:	69e3      	ldr	r3, [r4, #28]
     fc4:	1f42      	subs	r2, r0, #5
     fc6:	4255      	negs	r5, r2
     fc8:	4155      	adcs	r5, r2
     fca:	f013 0f01 	tst.w	r3, #1
     fce:	d117      	bne.n	1000 <_usart_init+0x4c>
     fd0:	2318      	movs	r3, #24
     fd2:	fb03 7305 	mla	r3, r3, r5, r7
     fd6:	2103      	movs	r1, #3
     fd8:	6bda      	ldr	r2, [r3, #60]	; 0x3c
     fda:	4620      	mov	r0, r4
     fdc:	f002 021c 	and.w	r2, r2, #28
     fe0:	47b0      	blx	r6
     fe2:	6823      	ldr	r3, [r4, #0]
     fe4:	079b      	lsls	r3, r3, #30
     fe6:	d505      	bpl.n	ff4 <_usart_init+0x40>
     fe8:	4620      	mov	r0, r4
     fea:	4b22      	ldr	r3, [pc, #136]	; (1074 <_usart_init+0xc0>)
     fec:	4798      	blx	r3
     fee:	2102      	movs	r1, #2
     ff0:	4620      	mov	r0, r4
     ff2:	47b0      	blx	r6
     ff4:	f042 0201 	orr.w	r2, r2, #1
     ff8:	6022      	str	r2, [r4, #0]
     ffa:	2103      	movs	r1, #3
     ffc:	4620      	mov	r0, r4
     ffe:	47b0      	blx	r6
    1000:	4620      	mov	r0, r4
    1002:	2101      	movs	r1, #1
    1004:	47b0      	blx	r6
    1006:	2218      	movs	r2, #24
    1008:	fb02 7205 	mla	r2, r2, r5, r7
    100c:	4620      	mov	r0, r4
    100e:	f8d2 803c 	ldr.w	r8, [r2, #60]	; 0x3c
    1012:	f8c4 8000 	str.w	r8, [r4]
    1016:	2103      	movs	r1, #3
    1018:	47b0      	blx	r6
    101a:	6c13      	ldr	r3, [r2, #64]	; 0x40
    101c:	6063      	str	r3, [r4, #4]
    101e:	211f      	movs	r1, #31
    1020:	4620      	mov	r0, r4
    1022:	47b0      	blx	r6
    1024:	6c53      	ldr	r3, [r2, #68]	; 0x44
    1026:	60a3      	str	r3, [r4, #8]
    1028:	f418 4fc0 	tst.w	r8, #24576	; 0x6000
    102c:	bf1d      	ittte	ne
    102e:	89a3      	ldrhne	r3, [r4, #12]
    1030:	f8b2 1048 	ldrhne.w	r1, [r2, #72]	; 0x48
    1034:	f892 204a 	ldrbne.w	r2, [r2, #74]	; 0x4a
    1038:	f8b2 3048 	ldrheq.w	r3, [r2, #72]	; 0x48
    103c:	bf1f      	itttt	ne
    103e:	f361 030c 	bfine	r3, r1, #0, #13
    1042:	81a3      	strhne	r3, [r4, #12]
    1044:	89a3      	ldrhne	r3, [r4, #12]
    1046:	f362 334f 	bfine	r3, r2, #13, #3
    104a:	81a3      	strh	r3, [r4, #12]
    104c:	2318      	movs	r3, #24
    104e:	fb03 7505 	mla	r5, r3, r5, r7
    1052:	2000      	movs	r0, #0
    1054:	f895 304b 	ldrb.w	r3, [r5, #75]	; 0x4b
    1058:	73a3      	strb	r3, [r4, #14]
    105a:	f895 304c 	ldrb.w	r3, [r5, #76]	; 0x4c
    105e:	f884 3030 	strb.w	r3, [r4, #48]	; 0x30
    1062:	e8bd 81f0 	ldmia.w	sp!, {r4, r5, r6, r7, r8, pc}
    1066:	bf00      	nop
    1068:	00000f81 	.word	0x00000f81
    106c:	00009608 	.word	0x00009608
    1070:	00000f65 	.word	0x00000f65
    1074:	00000f6d 	.word	0x00000f6d

00001078 <_usart_sync_init>:
    1078:	6001      	str	r1, [r0, #0]
    107a:	4b01      	ldr	r3, [pc, #4]	; (1080 <_usart_sync_init+0x8>)
    107c:	4608      	mov	r0, r1
    107e:	4718      	bx	r3
    1080:	00000fb5 	.word	0x00000fb5

00001084 <_usart_sync_enable>:
    1084:	6800      	ldr	r0, [r0, #0]
    1086:	6803      	ldr	r3, [r0, #0]
    1088:	f043 0302 	orr.w	r3, r3, #2
    108c:	6003      	str	r3, [r0, #0]
    108e:	2103      	movs	r1, #3
    1090:	4b00      	ldr	r3, [pc, #0]	; (1094 <_usart_sync_enable+0x10>)
    1092:	4718      	bx	r3
    1094:	00000f65 	.word	0x00000f65

00001098 <_usart_sync_write_byte>:
    1098:	6803      	ldr	r3, [r0, #0]
    109a:	6299      	str	r1, [r3, #40]	; 0x28
    109c:	4770      	bx	lr

0000109e <_usart_sync_read_byte>:
    109e:	6803      	ldr	r3, [r0, #0]
    10a0:	6a98      	ldr	r0, [r3, #40]	; 0x28
    10a2:	b2c0      	uxtb	r0, r0
    10a4:	4770      	bx	lr

000010a6 <_usart_sync_is_ready_to_send>:
    10a6:	6803      	ldr	r3, [r0, #0]
    10a8:	7e18      	ldrb	r0, [r3, #24]
    10aa:	f000 0001 	and.w	r0, r0, #1
    10ae:	4770      	bx	lr

000010b0 <_usart_sync_is_transmit_done>:
    10b0:	6803      	ldr	r3, [r0, #0]
    10b2:	7e18      	ldrb	r0, [r3, #24]
    10b4:	f3c0 0040 	ubfx	r0, r0, #1, #1
    10b8:	4770      	bx	lr

000010ba <_usart_sync_is_byte_received>:
    10ba:	6803      	ldr	r3, [r0, #0]
    10bc:	7e18      	ldrb	r0, [r3, #24]
    10be:	f3c0 0080 	ubfx	r0, r0, #2, #1
    10c2:	4770      	bx	lr

000010c4 <mac_low_level_init>:
    10c4:	b51f      	push	{r0, r1, r2, r3, r4, lr}
    10c6:	4603      	mov	r3, r0
    10c8:	6a44      	ldr	r4, [r0, #36]	; 0x24
    10ca:	f853 0f2f 	ldr.w	r0, [r3, #47]!
    10ce:	9001      	str	r0, [sp, #4]
    10d0:	889b      	ldrh	r3, [r3, #4]
    10d2:	f8ad 3008 	strh.w	r3, [sp, #8]
    10d6:	2100      	movs	r1, #0
    10d8:	aa01      	add	r2, sp, #4
    10da:	4620      	mov	r0, r4
    10dc:	4b02      	ldr	r3, [pc, #8]	; (10e8 <mac_low_level_init+0x24>)
    10de:	f88d 100c 	strb.w	r1, [sp, #12]
    10e2:	4798      	blx	r3
    10e4:	b004      	add	sp, #16
    10e6:	bd10      	pop	{r4, pc}
    10e8:	000007e1 	.word	0x000007e1

000010ec <mac_low_level_output>:
    10ec:	e92d 41f0 	stmdb	sp!, {r4, r5, r6, r7, r8, lr}
    10f0:	894a      	ldrh	r2, [r1, #10]
    10f2:	6a47      	ldr	r7, [r0, #36]	; 0x24
    10f4:	8908      	ldrh	r0, [r1, #8]
    10f6:	4282      	cmp	r2, r0
    10f8:	460d      	mov	r5, r1
    10fa:	d106      	bne.n	110a <mac_low_level_output+0x1e>
    10fc:	6849      	ldr	r1, [r1, #4]
    10fe:	4b14      	ldr	r3, [pc, #80]	; (1150 <mac_low_level_output+0x64>)
    1100:	4638      	mov	r0, r7
    1102:	4798      	blx	r3
    1104:	2000      	movs	r0, #0
    1106:	e8bd 81f0 	ldmia.w	sp!, {r4, r5, r6, r7, r8, pc}
    110a:	1cc3      	adds	r3, r0, #3
    110c:	f64f 70fc 	movw	r0, #65532	; 0xfffc
    1110:	4018      	ands	r0, r3
    1112:	4b10      	ldr	r3, [pc, #64]	; (1154 <mac_low_level_output+0x68>)
    1114:	4798      	blx	r3
    1116:	4606      	mov	r6, r0
    1118:	b1b0      	cbz	r0, 1148 <mac_low_level_output+0x5c>
    111a:	f8df 8040 	ldr.w	r8, [pc, #64]	; 115c <mac_low_level_output+0x70>
    111e:	4603      	mov	r3, r0
    1120:	462c      	mov	r4, r5
    1122:	8962      	ldrh	r2, [r4, #10]
    1124:	6861      	ldr	r1, [r4, #4]
    1126:	4618      	mov	r0, r3
    1128:	47c0      	blx	r8
    112a:	8962      	ldrh	r2, [r4, #10]
    112c:	6824      	ldr	r4, [r4, #0]
    112e:	4603      	mov	r3, r0
    1130:	4413      	add	r3, r2
    1132:	2c00      	cmp	r4, #0
    1134:	d1f5      	bne.n	1122 <mac_low_level_output+0x36>
    1136:	892a      	ldrh	r2, [r5, #8]
    1138:	4b05      	ldr	r3, [pc, #20]	; (1150 <mac_low_level_output+0x64>)
    113a:	4631      	mov	r1, r6
    113c:	4638      	mov	r0, r7
    113e:	4798      	blx	r3
    1140:	4630      	mov	r0, r6
    1142:	4b05      	ldr	r3, [pc, #20]	; (1158 <mac_low_level_output+0x6c>)
    1144:	4798      	blx	r3
    1146:	e7dd      	b.n	1104 <mac_low_level_output+0x18>
    1148:	f04f 30ff 	mov.w	r0, #4294967295
    114c:	e8bd 81f0 	ldmia.w	sp!, {r4, r5, r6, r7, r8, pc}
    1150:	00000789 	.word	0x00000789
    1154:	000039dd 	.word	0x000039dd
    1158:	00003899 	.word	0x00003899
    115c:	0000845f 	.word	0x0000845f

00001160 <ethernetif_mac_input>:
    1160:	e92d 47f0 	stmdb	sp!, {r4, r5, r6, r7, r8, r9, sl, lr}
    1164:	f8df 807c 	ldr.w	r8, [pc, #124]	; 11e4 <ethernetif_mac_input+0x84>
    1168:	f8df 907c 	ldr.w	r9, [pc, #124]	; 11e8 <ethernetif_mac_input+0x88>
    116c:	4f18      	ldr	r7, [pc, #96]	; (11d0 <ethernetif_mac_input+0x70>)
    116e:	4605      	mov	r5, r0
    1170:	6a6e      	ldr	r6, [r5, #36]	; 0x24
    1172:	4630      	mov	r0, r6
    1174:	47c0      	blx	r8
    1176:	b281      	uxth	r1, r0
    1178:	b339      	cbz	r1, 11ca <ethernetif_mac_input+0x6a>
    117a:	2200      	movs	r2, #0
    117c:	2003      	movs	r0, #3
    117e:	47c8      	blx	r9
    1180:	4604      	mov	r4, r0
    1182:	b1d8      	cbz	r0, 11bc <ethernetif_mac_input+0x5c>
    1184:	8942      	ldrh	r2, [r0, #10]
    1186:	6841      	ldr	r1, [r0, #4]
    1188:	4630      	mov	r0, r6
    118a:	47b8      	blx	r7
    118c:	6863      	ldr	r3, [r4, #4]
    118e:	8998      	ldrh	r0, [r3, #12]
    1190:	4b10      	ldr	r3, [pc, #64]	; (11d4 <ethernetif_mac_input+0x74>)
    1192:	4798      	blx	r3
    1194:	f5b0 6f00 	cmp.w	r0, #2048	; 0x800
    1198:	d003      	beq.n	11a2 <ethernetif_mac_input+0x42>
    119a:	f640 0306 	movw	r3, #2054	; 0x806
    119e:	4298      	cmp	r0, r3
    11a0:	d108      	bne.n	11b4 <ethernetif_mac_input+0x54>
    11a2:	692b      	ldr	r3, [r5, #16]
    11a4:	4629      	mov	r1, r5
    11a6:	4620      	mov	r0, r4
    11a8:	4798      	blx	r3
    11aa:	2800      	cmp	r0, #0
    11ac:	d0e0      	beq.n	1170 <ethernetif_mac_input+0x10>
    11ae:	480a      	ldr	r0, [pc, #40]	; (11d8 <ethernetif_mac_input+0x78>)
    11b0:	4b0a      	ldr	r3, [pc, #40]	; (11dc <ethernetif_mac_input+0x7c>)
    11b2:	4798      	blx	r3
    11b4:	4620      	mov	r0, r4
    11b6:	4b0a      	ldr	r3, [pc, #40]	; (11e0 <ethernetif_mac_input+0x80>)
    11b8:	4798      	blx	r3
    11ba:	e7d9      	b.n	1170 <ethernetif_mac_input+0x10>
    11bc:	4602      	mov	r2, r0
    11be:	4601      	mov	r1, r0
    11c0:	463b      	mov	r3, r7
    11c2:	4630      	mov	r0, r6
    11c4:	e8bd 47f0 	ldmia.w	sp!, {r4, r5, r6, r7, r8, r9, sl, lr}
    11c8:	4718      	bx	r3
    11ca:	e8bd 87f0 	ldmia.w	sp!, {r4, r5, r6, r7, r8, r9, sl, pc}
    11ce:	bf00      	nop
    11d0:	00000791 	.word	0x00000791
    11d4:	000011ed 	.word	0x000011ed
    11d8:	00009670 	.word	0x00009670
    11dc:	00008595 	.word	0x00008595
    11e0:	00003f99 	.word	0x00003f99
    11e4:	00000799 	.word	0x00000799
    11e8:	00004039 	.word	0x00004039

000011ec <lwip_htons>:
    11ec:	ba40      	rev16	r0, r0
    11ee:	b280      	uxth	r0, r0
    11f0:	4770      	bx	lr

000011f2 <lwip_ntohs>:
    11f2:	ba40      	rev16	r0, r0
    11f4:	b280      	uxth	r0, r0
    11f6:	4770      	bx	lr

000011f8 <lwip_htonl>:
    11f8:	ba00      	rev	r0, r0
    11fa:	4770      	bx	lr

000011fc <lwip_ntohl>:
    11fc:	4b00      	ldr	r3, [pc, #0]	; (1200 <lwip_ntohl+0x4>)
    11fe:	4718      	bx	r3
    1200:	000011f9 	.word	0x000011f9

00001204 <dhcp_set_state>:
    1204:	7b03      	ldrb	r3, [r0, #12]
    1206:	428b      	cmp	r3, r1
    1208:	bf1f      	itttt	ne
    120a:	2300      	movne	r3, #0
    120c:	7301      	strbne	r1, [r0, #12]
    120e:	7343      	strbne	r3, [r0, #13]
    1210:	8343      	strhne	r3, [r0, #26]
    1212:	4770      	bx	lr

00001214 <dhcp_option>:
    1214:	8b03      	ldrh	r3, [r0, #24]
    1216:	b530      	push	{r4, r5, lr}
    1218:	6944      	ldr	r4, [r0, #20]
    121a:	18e5      	adds	r5, r4, r3
    121c:	f885 10f0 	strb.w	r1, [r5, #240]	; 0xf0
    1220:	1c99      	adds	r1, r3, #2
    1222:	3301      	adds	r3, #1
    1224:	fa14 f383 	uxtah	r3, r4, r3
    1228:	8301      	strh	r1, [r0, #24]
    122a:	f883 20f0 	strb.w	r2, [r3, #240]	; 0xf0
    122e:	bd30      	pop	{r4, r5, pc}

00001230 <dhcp_option_byte>:
    1230:	8b02      	ldrh	r2, [r0, #24]
    1232:	6943      	ldr	r3, [r0, #20]
    1234:	b510      	push	{r4, lr}
    1236:	4413      	add	r3, r2
    1238:	1c54      	adds	r4, r2, #1
    123a:	8304      	strh	r4, [r0, #24]
    123c:	f883 10f0 	strb.w	r1, [r3, #240]	; 0xf0
    1240:	bd10      	pop	{r4, pc}

00001242 <dhcp_option_short>:
    1242:	8b03      	ldrh	r3, [r0, #24]
    1244:	6942      	ldr	r2, [r0, #20]
    1246:	b530      	push	{r4, r5, lr}
    1248:	18d4      	adds	r4, r2, r3
    124a:	0a0d      	lsrs	r5, r1, #8
    124c:	f884 50f0 	strb.w	r5, [r4, #240]	; 0xf0
    1250:	1c9c      	adds	r4, r3, #2
    1252:	3301      	adds	r3, #1
    1254:	fa12 f383 	uxtah	r3, r2, r3
    1258:	8304      	strh	r4, [r0, #24]
    125a:	f883 10f0 	strb.w	r1, [r3, #240]	; 0xf0
    125e:	bd30      	pop	{r4, r5, pc}

00001260 <dhcp_option_long>:
    1260:	8b03      	ldrh	r3, [r0, #24]
    1262:	6942      	ldr	r2, [r0, #20]
    1264:	b530      	push	{r4, r5, lr}
    1266:	18d4      	adds	r4, r2, r3
    1268:	0e0d      	lsrs	r5, r1, #24
    126a:	f884 50f0 	strb.w	r5, [r4, #240]	; 0xf0
    126e:	1c5c      	adds	r4, r3, #1
    1270:	fa12 f484 	uxtah	r4, r2, r4
    1274:	0c0d      	lsrs	r5, r1, #16
    1276:	f884 50f0 	strb.w	r5, [r4, #240]	; 0xf0
    127a:	1c9c      	adds	r4, r3, #2
    127c:	fa12 f484 	uxtah	r4, r2, r4
    1280:	0a0d      	lsrs	r5, r1, #8
    1282:	f884 50f0 	strb.w	r5, [r4, #240]	; 0xf0
    1286:	1d1c      	adds	r4, r3, #4
    1288:	3303      	adds	r3, #3
    128a:	fa12 f383 	uxtah	r3, r2, r3
    128e:	8304      	strh	r4, [r0, #24]
    1290:	f883 10f0 	strb.w	r1, [r3, #240]	; 0xf0
    1294:	bd30      	pop	{r4, r5, pc}
	...

00001298 <dhcp_create_msg>:
    1298:	e92d 41f0 	stmdb	sp!, {r4, r5, r6, r7, r8, lr}
    129c:	460c      	mov	r4, r1
    129e:	4616      	mov	r6, r2
    12a0:	4680      	mov	r8, r0
    12a2:	b938      	cbnz	r0, 12b4 <dhcp_create_msg+0x1c>
    12a4:	4b4f      	ldr	r3, [pc, #316]	; (13e4 <dhcp_create_msg+0x14c>)
    12a6:	4950      	ldr	r1, [pc, #320]	; (13e8 <dhcp_create_msg+0x150>)
    12a8:	4850      	ldr	r0, [pc, #320]	; (13ec <dhcp_create_msg+0x154>)
    12aa:	4c51      	ldr	r4, [pc, #324]	; (13f0 <dhcp_create_msg+0x158>)
    12ac:	f44f 62d1 	mov.w	r2, #1672	; 0x688
    12b0:	47a0      	blx	r4
    12b2:	e7fe      	b.n	12b2 <dhcp_create_msg+0x1a>
    12b4:	b939      	cbnz	r1, 12c6 <dhcp_create_msg+0x2e>
    12b6:	4b4b      	ldr	r3, [pc, #300]	; (13e4 <dhcp_create_msg+0x14c>)
    12b8:	494e      	ldr	r1, [pc, #312]	; (13f4 <dhcp_create_msg+0x15c>)
    12ba:	484c      	ldr	r0, [pc, #304]	; (13ec <dhcp_create_msg+0x154>)
    12bc:	4c4c      	ldr	r4, [pc, #304]	; (13f0 <dhcp_create_msg+0x158>)
    12be:	f240 6289 	movw	r2, #1673	; 0x689
    12c2:	47a0      	blx	r4
    12c4:	e7fe      	b.n	12c4 <dhcp_create_msg+0x2c>
    12c6:	2200      	movs	r2, #0
    12c8:	f44f 719a 	mov.w	r1, #308	; 0x134
    12cc:	4610      	mov	r0, r2
    12ce:	4b4a      	ldr	r3, [pc, #296]	; (13f8 <dhcp_create_msg+0x160>)
    12d0:	4798      	blx	r3
    12d2:	6120      	str	r0, [r4, #16]
    12d4:	b930      	cbnz	r0, 12e4 <dhcp_create_msg+0x4c>
    12d6:	4b49      	ldr	r3, [pc, #292]	; (13fc <dhcp_create_msg+0x164>)
    12d8:	4849      	ldr	r0, [pc, #292]	; (1400 <dhcp_create_msg+0x168>)
    12da:	4798      	blx	r3
    12dc:	f04f 30ff 	mov.w	r0, #4294967295
    12e0:	e8bd 81f0 	ldmia.w	sp!, {r4, r5, r6, r7, r8, pc}
    12e4:	7b62      	ldrb	r2, [r4, #13]
    12e6:	4b47      	ldr	r3, [pc, #284]	; (1404 <dhcp_create_msg+0x16c>)
    12e8:	b912      	cbnz	r2, 12f0 <dhcp_create_msg+0x58>
    12ea:	681a      	ldr	r2, [r3, #0]
    12ec:	3201      	adds	r2, #1
    12ee:	601a      	str	r2, [r3, #0]
    12f0:	6819      	ldr	r1, [r3, #0]
    12f2:	6021      	str	r1, [r4, #0]
    12f4:	4b3e      	ldr	r3, [pc, #248]	; (13f0 <dhcp_create_msg+0x158>)
    12f6:	4844      	ldr	r0, [pc, #272]	; (1408 <dhcp_create_msg+0x170>)
    12f8:	4798      	blx	r3
    12fa:	6923      	ldr	r3, [r4, #16]
    12fc:	685f      	ldr	r7, [r3, #4]
    12fe:	6167      	str	r7, [r4, #20]
    1300:	2301      	movs	r3, #1
    1302:	703b      	strb	r3, [r7, #0]
    1304:	707b      	strb	r3, [r7, #1]
    1306:	2500      	movs	r5, #0
    1308:	f898 302e 	ldrb.w	r3, [r8, #46]	; 0x2e
    130c:	70bb      	strb	r3, [r7, #2]
    130e:	70fd      	strb	r5, [r7, #3]
    1310:	4b3e      	ldr	r3, [pc, #248]	; (140c <dhcp_create_msg+0x174>)
    1312:	6820      	ldr	r0, [r4, #0]
    1314:	4798      	blx	r3
    1316:	6963      	ldr	r3, [r4, #20]
    1318:	6078      	str	r0, [r7, #4]
    131a:	2e08      	cmp	r6, #8
    131c:	721d      	strb	r5, [r3, #8]
    131e:	725d      	strb	r5, [r3, #9]
    1320:	729d      	strb	r5, [r3, #10]
    1322:	72dd      	strb	r5, [r3, #11]
    1324:	731d      	strb	r5, [r3, #12]
    1326:	735d      	strb	r5, [r3, #13]
    1328:	739d      	strb	r5, [r3, #14]
    132a:	73dd      	strb	r5, [r3, #15]
    132c:	d007      	beq.n	133e <dhcp_create_msg+0xa6>
    132e:	2e04      	cmp	r6, #4
    1330:	d005      	beq.n	133e <dhcp_create_msg+0xa6>
    1332:	2e03      	cmp	r6, #3
    1334:	d106      	bne.n	1344 <dhcp_create_msg+0xac>
    1336:	7b22      	ldrb	r2, [r4, #12]
    1338:	3a04      	subs	r2, #4
    133a:	2a01      	cmp	r2, #1
    133c:	d802      	bhi.n	1344 <dhcp_create_msg+0xac>
    133e:	f8d8 2004 	ldr.w	r2, [r8, #4]
    1342:	60da      	str	r2, [r3, #12]
    1344:	2200      	movs	r2, #0
    1346:	741a      	strb	r2, [r3, #16]
    1348:	745a      	strb	r2, [r3, #17]
    134a:	749a      	strb	r2, [r3, #18]
    134c:	74da      	strb	r2, [r3, #19]
    134e:	751a      	strb	r2, [r3, #20]
    1350:	755a      	strb	r2, [r3, #21]
    1352:	759a      	strb	r2, [r3, #22]
    1354:	75da      	strb	r2, [r3, #23]
    1356:	761a      	strb	r2, [r3, #24]
    1358:	765a      	strb	r2, [r3, #25]
    135a:	769a      	strb	r2, [r3, #26]
    135c:	76da      	strb	r2, [r3, #27]
    135e:	f898 502e 	ldrb.w	r5, [r8, #46]	; 0x2e
    1362:	f103 011c 	add.w	r1, r3, #28
    1366:	b290      	uxth	r0, r2
    1368:	4285      	cmp	r5, r0
    136a:	bf88      	it	hi
    136c:	eb08 0002 	addhi.w	r0, r8, r2
    1370:	f102 0201 	add.w	r2, r2, #1
    1374:	bf8c      	ite	hi
    1376:	f890 002f 	ldrbhi.w	r0, [r0, #47]	; 0x2f
    137a:	2000      	movls	r0, #0
    137c:	2a10      	cmp	r2, #16
    137e:	f801 0b01 	strb.w	r0, [r1], #1
    1382:	d1f0      	bne.n	1366 <dhcp_create_msg+0xce>
    1384:	f103 022c 	add.w	r2, r3, #44	; 0x2c
    1388:	f103 016c 	add.w	r1, r3, #108	; 0x6c
    138c:	2000      	movs	r0, #0
    138e:	f802 0b01 	strb.w	r0, [r2], #1
    1392:	428a      	cmp	r2, r1
    1394:	d1fb      	bne.n	138e <dhcp_create_msg+0xf6>
    1396:	f103 00ec 	add.w	r0, r3, #236	; 0xec
    139a:	2100      	movs	r1, #0
    139c:	f802 1b01 	strb.w	r1, [r2], #1
    13a0:	4282      	cmp	r2, r0
    13a2:	d1fb      	bne.n	139c <dhcp_create_msg+0x104>
    13a4:	f06f 007d 	mvn.w	r0, #125	; 0x7d
    13a8:	2263      	movs	r2, #99	; 0x63
    13aa:	f883 00ed 	strb.w	r0, [r3, #237]	; 0xed
    13ae:	2053      	movs	r0, #83	; 0x53
    13b0:	f883 20ec 	strb.w	r2, [r3, #236]	; 0xec
    13b4:	f883 20ef 	strb.w	r2, [r3, #239]	; 0xef
    13b8:	f883 00ee 	strb.w	r0, [r3, #238]	; 0xee
    13bc:	2200      	movs	r2, #0
    13be:	8321      	strh	r1, [r4, #24]
    13c0:	33f0      	adds	r3, #240	; 0xf0
    13c2:	f803 2b01 	strb.w	r2, [r3], #1
    13c6:	3201      	adds	r2, #1
    13c8:	2a44      	cmp	r2, #68	; 0x44
    13ca:	d1fa      	bne.n	13c2 <dhcp_create_msg+0x12a>
    13cc:	2201      	movs	r2, #1
    13ce:	4620      	mov	r0, r4
    13d0:	2135      	movs	r1, #53	; 0x35
    13d2:	4b0f      	ldr	r3, [pc, #60]	; (1410 <dhcp_create_msg+0x178>)
    13d4:	4798      	blx	r3
    13d6:	4620      	mov	r0, r4
    13d8:	4631      	mov	r1, r6
    13da:	4b0e      	ldr	r3, [pc, #56]	; (1414 <dhcp_create_msg+0x17c>)
    13dc:	4798      	blx	r3
    13de:	2000      	movs	r0, #0
    13e0:	e8bd 81f0 	ldmia.w	sp!, {r4, r5, r6, r7, r8, pc}
    13e4:	00009695 	.word	0x00009695
    13e8:	000096b8 	.word	0x000096b8
    13ec:	000096d7 	.word	0x000096d7
    13f0:	00008485 	.word	0x00008485
    13f4:	000096ff 	.word	0x000096ff
    13f8:	00004039 	.word	0x00004039
    13fc:	00008595 	.word	0x00008595
    1400:	0000971d 	.word	0x0000971d
    1404:	20000000 	.word	0x20000000
    1408:	00009748 	.word	0x00009748
    140c:	000011f9 	.word	0x000011f9
    1410:	00001215 	.word	0x00001215
    1414:	00001231 	.word	0x00001231

00001418 <dhcp_check>:
    1418:	b570      	push	{r4, r5, r6, lr}
    141a:	6a84      	ldr	r4, [r0, #40]	; 0x28
    141c:	f890 2036 	ldrb.w	r2, [r0, #54]	; 0x36
    1420:	f890 3037 	ldrb.w	r3, [r0, #55]	; 0x37
    1424:	4e0f      	ldr	r6, [pc, #60]	; (1464 <dhcp_check+0x4c>)
    1426:	4601      	mov	r1, r0
    1428:	4605      	mov	r5, r0
    142a:	480f      	ldr	r0, [pc, #60]	; (1468 <dhcp_check+0x50>)
    142c:	47b0      	blx	r6
    142e:	2108      	movs	r1, #8
    1430:	4620      	mov	r0, r4
    1432:	4b0e      	ldr	r3, [pc, #56]	; (146c <dhcp_check+0x54>)
    1434:	4798      	blx	r3
    1436:	2200      	movs	r2, #0
    1438:	f104 0124 	add.w	r1, r4, #36	; 0x24
    143c:	4628      	mov	r0, r5
    143e:	4b0c      	ldr	r3, [pc, #48]	; (1470 <dhcp_check+0x58>)
    1440:	4798      	blx	r3
    1442:	b110      	cbz	r0, 144a <dhcp_check+0x32>
    1444:	480b      	ldr	r0, [pc, #44]	; (1474 <dhcp_check+0x5c>)
    1446:	4b0c      	ldr	r3, [pc, #48]	; (1478 <dhcp_check+0x60>)
    1448:	4798      	blx	r3
    144a:	7b63      	ldrb	r3, [r4, #13]
    144c:	480b      	ldr	r0, [pc, #44]	; (147c <dhcp_check+0x64>)
    144e:	3301      	adds	r3, #1
    1450:	7363      	strb	r3, [r4, #13]
    1452:	2301      	movs	r3, #1
    1454:	8363      	strh	r3, [r4, #26]
    1456:	f44f 71fa 	mov.w	r1, #500	; 0x1f4
    145a:	4633      	mov	r3, r6
    145c:	e8bd 4070 	ldmia.w	sp!, {r4, r5, r6, lr}
    1460:	4718      	bx	r3
    1462:	bf00      	nop
    1464:	00008485 	.word	0x00008485
    1468:	00009760 	.word	0x00009760
    146c:	00001205 	.word	0x00001205
    1470:	00007a89 	.word	0x00007a89
    1474:	0000977b 	.word	0x0000977b
    1478:	00008595 	.word	0x00008595
    147c:	000097a3 	.word	0x000097a3

00001480 <dhcp_bind>:
    1480:	b5f0      	push	{r4, r5, r6, r7, lr}
    1482:	4605      	mov	r5, r0
    1484:	b085      	sub	sp, #20
    1486:	4e4b      	ldr	r6, [pc, #300]	; (15b4 <dhcp_bind+0x134>)
    1488:	b930      	cbnz	r0, 1498 <dhcp_bind+0x18>
    148a:	4b4b      	ldr	r3, [pc, #300]	; (15b8 <dhcp_bind+0x138>)
    148c:	494b      	ldr	r1, [pc, #300]	; (15bc <dhcp_bind+0x13c>)
    148e:	484c      	ldr	r0, [pc, #304]	; (15c0 <dhcp_bind+0x140>)
    1490:	f240 32a3 	movw	r2, #931	; 0x3a3
    1494:	47b0      	blx	r6
    1496:	e7fe      	b.n	1496 <dhcp_bind+0x16>
    1498:	6a84      	ldr	r4, [r0, #40]	; 0x28
    149a:	b934      	cbnz	r4, 14aa <dhcp_bind+0x2a>
    149c:	4b46      	ldr	r3, [pc, #280]	; (15b8 <dhcp_bind+0x138>)
    149e:	4949      	ldr	r1, [pc, #292]	; (15c4 <dhcp_bind+0x144>)
    14a0:	4847      	ldr	r0, [pc, #284]	; (15c0 <dhcp_bind+0x140>)
    14a2:	f240 32a5 	movw	r2, #933	; 0x3a5
    14a6:	47b0      	blx	r6
    14a8:	e7fe      	b.n	14a8 <dhcp_bind+0x28>
    14aa:	f890 1038 	ldrb.w	r1, [r0, #56]	; 0x38
    14ae:	f890 3037 	ldrb.w	r3, [r0, #55]	; 0x37
    14b2:	f890 2036 	ldrb.w	r2, [r0, #54]	; 0x36
    14b6:	9100      	str	r1, [sp, #0]
    14b8:	4601      	mov	r1, r0
    14ba:	4843      	ldr	r0, [pc, #268]	; (15c8 <dhcp_bind+0x148>)
    14bc:	47b0      	blx	r6
    14be:	6b61      	ldr	r1, [r4, #52]	; 0x34
    14c0:	1c4f      	adds	r7, r1, #1
    14c2:	d014      	beq.n	14ee <dhcp_bind+0x6e>
    14c4:	4841      	ldr	r0, [pc, #260]	; (15cc <dhcp_bind+0x14c>)
    14c6:	47b0      	blx	r6
    14c8:	6b62      	ldr	r2, [r4, #52]	; 0x34
    14ca:	213c      	movs	r1, #60	; 0x3c
    14cc:	f102 031e 	add.w	r3, r2, #30
    14d0:	fbb3 f3f1 	udiv	r3, r3, r1
    14d4:	f64f 71ff 	movw	r1, #65535	; 0xffff
    14d8:	428b      	cmp	r3, r1
    14da:	bf28      	it	cs
    14dc:	460b      	movcs	r3, r1
    14de:	2b00      	cmp	r3, #0
    14e0:	d056      	beq.n	1590 <dhcp_bind+0x110>
    14e2:	f44f 717a 	mov.w	r1, #1000	; 0x3e8
    14e6:	83a3      	strh	r3, [r4, #28]
    14e8:	4351      	muls	r1, r2
    14ea:	4839      	ldr	r0, [pc, #228]	; (15d0 <dhcp_bind+0x150>)
    14ec:	47b0      	blx	r6
    14ee:	6ba1      	ldr	r1, [r4, #56]	; 0x38
    14f0:	1c48      	adds	r0, r1, #1
    14f2:	d014      	beq.n	151e <dhcp_bind+0x9e>
    14f4:	4837      	ldr	r0, [pc, #220]	; (15d4 <dhcp_bind+0x154>)
    14f6:	47b0      	blx	r6
    14f8:	6ba2      	ldr	r2, [r4, #56]	; 0x38
    14fa:	213c      	movs	r1, #60	; 0x3c
    14fc:	f102 031e 	add.w	r3, r2, #30
    1500:	fbb3 f3f1 	udiv	r3, r3, r1
    1504:	f64f 71ff 	movw	r1, #65535	; 0xffff
    1508:	428b      	cmp	r3, r1
    150a:	bf28      	it	cs
    150c:	460b      	movcs	r3, r1
    150e:	2b00      	cmp	r3, #0
    1510:	d040      	beq.n	1594 <dhcp_bind+0x114>
    1512:	f44f 717a 	mov.w	r1, #1000	; 0x3e8
    1516:	83e3      	strh	r3, [r4, #30]
    1518:	4351      	muls	r1, r2
    151a:	482d      	ldr	r0, [pc, #180]	; (15d0 <dhcp_bind+0x150>)
    151c:	47b0      	blx	r6
    151e:	8be3      	ldrh	r3, [r4, #30]
    1520:	8ba2      	ldrh	r2, [r4, #28]
    1522:	429a      	cmp	r2, r3
    1524:	d302      	bcc.n	152c <dhcp_bind+0xac>
    1526:	b10b      	cbz	r3, 152c <dhcp_bind+0xac>
    1528:	2300      	movs	r3, #0
    152a:	83a3      	strh	r3, [r4, #28]
    152c:	7ba3      	ldrb	r3, [r4, #14]
    152e:	2b00      	cmp	r3, #0
    1530:	d032      	beq.n	1598 <dhcp_bind+0x118>
    1532:	6aa3      	ldr	r3, [r4, #40]	; 0x28
    1534:	9302      	str	r3, [sp, #8]
    1536:	6ae3      	ldr	r3, [r4, #44]	; 0x2c
    1538:	9303      	str	r3, [sp, #12]
    153a:	b92b      	cbnz	r3, 1548 <dhcp_bind+0xc8>
    153c:	6a63      	ldr	r3, [r4, #36]	; 0x24
    153e:	9a02      	ldr	r2, [sp, #8]
    1540:	4013      	ands	r3, r2
    1542:	f043 7380 	orr.w	r3, r3, #16777216	; 0x1000000
    1546:	9303      	str	r3, [sp, #12]
    1548:	4627      	mov	r7, r4
    154a:	4823      	ldr	r0, [pc, #140]	; (15d8 <dhcp_bind+0x158>)
    154c:	f857 1f24 	ldr.w	r1, [r7, #36]!
    1550:	47b0      	blx	r6
    1552:	4639      	mov	r1, r7
    1554:	af04      	add	r7, sp, #16
    1556:	4628      	mov	r0, r5
    1558:	4b20      	ldr	r3, [pc, #128]	; (15dc <dhcp_bind+0x15c>)
    155a:	4798      	blx	r3
    155c:	f857 1d08 	ldr.w	r1, [r7, #-8]!
    1560:	481f      	ldr	r0, [pc, #124]	; (15e0 <dhcp_bind+0x160>)
    1562:	47b0      	blx	r6
    1564:	4639      	mov	r1, r7
    1566:	af04      	add	r7, sp, #16
    1568:	4628      	mov	r0, r5
    156a:	4b1e      	ldr	r3, [pc, #120]	; (15e4 <dhcp_bind+0x164>)
    156c:	4798      	blx	r3
    156e:	f857 1d04 	ldr.w	r1, [r7, #-4]!
    1572:	481d      	ldr	r0, [pc, #116]	; (15e8 <dhcp_bind+0x168>)
    1574:	47b0      	blx	r6
    1576:	4639      	mov	r1, r7
    1578:	4628      	mov	r0, r5
    157a:	4b1c      	ldr	r3, [pc, #112]	; (15ec <dhcp_bind+0x16c>)
    157c:	4798      	blx	r3
    157e:	4628      	mov	r0, r5
    1580:	4b1b      	ldr	r3, [pc, #108]	; (15f0 <dhcp_bind+0x170>)
    1582:	4798      	blx	r3
    1584:	210a      	movs	r1, #10
    1586:	4620      	mov	r0, r4
    1588:	4b1a      	ldr	r3, [pc, #104]	; (15f4 <dhcp_bind+0x174>)
    158a:	4798      	blx	r3
    158c:	b005      	add	sp, #20
    158e:	bdf0      	pop	{r4, r5, r6, r7, pc}
    1590:	2301      	movs	r3, #1
    1592:	e7a6      	b.n	14e2 <dhcp_bind+0x62>
    1594:	2301      	movs	r3, #1
    1596:	e7bc      	b.n	1512 <dhcp_bind+0x92>
    1598:	f894 3024 	ldrb.w	r3, [r4, #36]	; 0x24
    159c:	061a      	lsls	r2, r3, #24
    159e:	d401      	bmi.n	15a4 <dhcp_bind+0x124>
    15a0:	23ff      	movs	r3, #255	; 0xff
    15a2:	e7c7      	b.n	1534 <dhcp_bind+0xb4>
    15a4:	2bbf      	cmp	r3, #191	; 0xbf
    15a6:	bf8c      	ite	hi
    15a8:	f06f 437f 	mvnhi.w	r3, #4278190080	; 0xff000000
    15ac:	f64f 73ff 	movwls	r3, #65535	; 0xffff
    15b0:	e7c0      	b.n	1534 <dhcp_bind+0xb4>
    15b2:	bf00      	nop
    15b4:	00008485 	.word	0x00008485
    15b8:	00009695 	.word	0x00009695
    15bc:	000097d0 	.word	0x000097d0
    15c0:	000096d7 	.word	0x000096d7
    15c4:	000097e9 	.word	0x000097e9
    15c8:	00009801 	.word	0x00009801
    15cc:	0000981e 	.word	0x0000981e
    15d0:	00009845 	.word	0x00009845
    15d4:	00009870 	.word	0x00009870
    15d8:	00009896 	.word	0x00009896
    15dc:	00003b5d 	.word	0x00003b5d
    15e0:	000098af 	.word	0x000098af
    15e4:	00003c39 	.word	0x00003c39
    15e8:	000098c8 	.word	0x000098c8
    15ec:	00003c01 	.word	0x00003c01
    15f0:	00003dc9 	.word	0x00003dc9
    15f4:	00001205 	.word	0x00001205

000015f8 <dhcp_option_trailer>:
    15f8:	b510      	push	{r4, lr}
    15fa:	b938      	cbnz	r0, 160c <dhcp_option_trailer+0x14>
    15fc:	4b0d      	ldr	r3, [pc, #52]	; (1634 <dhcp_option_trailer+0x3c>)
    15fe:	490e      	ldr	r1, [pc, #56]	; (1638 <dhcp_option_trailer+0x40>)
    1600:	480e      	ldr	r0, [pc, #56]	; (163c <dhcp_option_trailer+0x44>)
    1602:	4c0f      	ldr	r4, [pc, #60]	; (1640 <dhcp_option_trailer+0x48>)
    1604:	f240 62e7 	movw	r2, #1767	; 0x6e7
    1608:	47a0      	blx	r4
    160a:	e7fe      	b.n	160a <dhcp_option_trailer+0x12>
    160c:	8b03      	ldrh	r3, [r0, #24]
    160e:	6942      	ldr	r2, [r0, #20]
    1610:	1c59      	adds	r1, r3, #1
    1612:	4413      	add	r3, r2
    1614:	8301      	strh	r1, [r0, #24]
    1616:	21ff      	movs	r1, #255	; 0xff
    1618:	f883 10f0 	strb.w	r1, [r3, #240]	; 0xf0
    161c:	2100      	movs	r1, #0
    161e:	8b03      	ldrh	r3, [r0, #24]
    1620:	2b43      	cmp	r3, #67	; 0x43
    1622:	d900      	bls.n	1626 <dhcp_option_trailer+0x2e>
    1624:	bd10      	pop	{r4, pc}
    1626:	1c5c      	adds	r4, r3, #1
    1628:	4413      	add	r3, r2
    162a:	8304      	strh	r4, [r0, #24]
    162c:	f883 10f0 	strb.w	r1, [r3, #240]	; 0xf0
    1630:	e7f5      	b.n	161e <dhcp_option_trailer+0x26>
    1632:	bf00      	nop
    1634:	00009695 	.word	0x00009695
    1638:	000098e1 	.word	0x000098e1
    163c:	000096d7 	.word	0x000096d7
    1640:	00008485 	.word	0x00008485

00001644 <dhcp_delete_msg>:
    1644:	b510      	push	{r4, lr}
    1646:	4604      	mov	r4, r0
    1648:	b938      	cbnz	r0, 165a <dhcp_delete_msg+0x16>
    164a:	4b08      	ldr	r3, [pc, #32]	; (166c <dhcp_delete_msg+0x28>)
    164c:	4908      	ldr	r1, [pc, #32]	; (1670 <dhcp_delete_msg+0x2c>)
    164e:	4809      	ldr	r0, [pc, #36]	; (1674 <dhcp_delete_msg+0x30>)
    1650:	4c09      	ldr	r4, [pc, #36]	; (1678 <dhcp_delete_msg+0x34>)
    1652:	f240 62d3 	movw	r2, #1747	; 0x6d3
    1656:	47a0      	blx	r4
    1658:	e7fe      	b.n	1658 <dhcp_delete_msg+0x14>
    165a:	6900      	ldr	r0, [r0, #16]
    165c:	b108      	cbz	r0, 1662 <dhcp_delete_msg+0x1e>
    165e:	4b07      	ldr	r3, [pc, #28]	; (167c <dhcp_delete_msg+0x38>)
    1660:	4798      	blx	r3
    1662:	2300      	movs	r3, #0
    1664:	6123      	str	r3, [r4, #16]
    1666:	6163      	str	r3, [r4, #20]
    1668:	bd10      	pop	{r4, pc}
    166a:	bf00      	nop
    166c:	00009695 	.word	0x00009695
    1670:	00009903 	.word	0x00009903
    1674:	000096d7 	.word	0x000096d7
    1678:	00008485 	.word	0x00008485
    167c:	00003f99 	.word	0x00003f99

00001680 <dhcp_rebind>:
    1680:	b5f7      	push	{r0, r1, r2, r4, r5, r6, r7, lr}
    1682:	6a84      	ldr	r4, [r0, #40]	; 0x28
    1684:	4f25      	ldr	r7, [pc, #148]	; (171c <dhcp_rebind+0x9c>)
    1686:	4606      	mov	r6, r0
    1688:	4825      	ldr	r0, [pc, #148]	; (1720 <dhcp_rebind+0xa0>)
    168a:	47b8      	blx	r7
    168c:	2104      	movs	r1, #4
    168e:	4620      	mov	r0, r4
    1690:	4b24      	ldr	r3, [pc, #144]	; (1724 <dhcp_rebind+0xa4>)
    1692:	4798      	blx	r3
    1694:	2203      	movs	r2, #3
    1696:	4621      	mov	r1, r4
    1698:	4630      	mov	r0, r6
    169a:	4b23      	ldr	r3, [pc, #140]	; (1728 <dhcp_rebind+0xa8>)
    169c:	4798      	blx	r3
    169e:	4605      	mov	r5, r0
    16a0:	2800      	cmp	r0, #0
    16a2:	d139      	bne.n	1718 <dhcp_rebind+0x98>
    16a4:	2202      	movs	r2, #2
    16a6:	2139      	movs	r1, #57	; 0x39
    16a8:	4620      	mov	r0, r4
    16aa:	4b20      	ldr	r3, [pc, #128]	; (172c <dhcp_rebind+0xac>)
    16ac:	4798      	blx	r3
    16ae:	8db1      	ldrh	r1, [r6, #44]	; 0x2c
    16b0:	4b1f      	ldr	r3, [pc, #124]	; (1730 <dhcp_rebind+0xb0>)
    16b2:	4620      	mov	r0, r4
    16b4:	4798      	blx	r3
    16b6:	4620      	mov	r0, r4
    16b8:	4b1e      	ldr	r3, [pc, #120]	; (1734 <dhcp_rebind+0xb4>)
    16ba:	4798      	blx	r3
    16bc:	8b21      	ldrh	r1, [r4, #24]
    16be:	6920      	ldr	r0, [r4, #16]
    16c0:	4b1d      	ldr	r3, [pc, #116]	; (1738 <dhcp_rebind+0xb8>)
    16c2:	31f0      	adds	r1, #240	; 0xf0
    16c4:	b289      	uxth	r1, r1
    16c6:	4798      	blx	r3
    16c8:	9600      	str	r6, [sp, #0]
    16ca:	2343      	movs	r3, #67	; 0x43
    16cc:	4a1b      	ldr	r2, [pc, #108]	; (173c <dhcp_rebind+0xbc>)
    16ce:	6921      	ldr	r1, [r4, #16]
    16d0:	6860      	ldr	r0, [r4, #4]
    16d2:	4e1b      	ldr	r6, [pc, #108]	; (1740 <dhcp_rebind+0xc0>)
    16d4:	47b0      	blx	r6
    16d6:	4620      	mov	r0, r4
    16d8:	4b1a      	ldr	r3, [pc, #104]	; (1744 <dhcp_rebind+0xc4>)
    16da:	4798      	blx	r3
    16dc:	481a      	ldr	r0, [pc, #104]	; (1748 <dhcp_rebind+0xc8>)
    16de:	47b8      	blx	r7
    16e0:	7b61      	ldrb	r1, [r4, #13]
    16e2:	481a      	ldr	r0, [pc, #104]	; (174c <dhcp_rebind+0xcc>)
    16e4:	3101      	adds	r1, #1
    16e6:	b2c9      	uxtb	r1, r1
    16e8:	2909      	cmp	r1, #9
    16ea:	bf98      	it	ls
    16ec:	ebc1 1341 	rsbls	r3, r1, r1, lsl #5
    16f0:	7361      	strb	r1, [r4, #13]
    16f2:	bf9d      	ittte	ls
    16f4:	eb01 0183 	addls.w	r1, r1, r3, lsl #2
    16f8:	00c9      	lslls	r1, r1, #3
    16fa:	b289      	uxthls	r1, r1
    16fc:	f242 7110 	movwhi	r1, #10000	; 0x2710
    1700:	f201 13f3 	addw	r3, r1, #499	; 0x1f3
    1704:	f44f 72fa 	mov.w	r2, #500	; 0x1f4
    1708:	fb93 f3f2 	sdiv	r3, r3, r2
    170c:	8363      	strh	r3, [r4, #26]
    170e:	4b10      	ldr	r3, [pc, #64]	; (1750 <dhcp_rebind+0xd0>)
    1710:	4798      	blx	r3
    1712:	4628      	mov	r0, r5
    1714:	b003      	add	sp, #12
    1716:	bdf0      	pop	{r4, r5, r6, r7, pc}
    1718:	480e      	ldr	r0, [pc, #56]	; (1754 <dhcp_rebind+0xd4>)
    171a:	e7e0      	b.n	16de <dhcp_rebind+0x5e>
    171c:	00008595 	.word	0x00008595
    1720:	00009921 	.word	0x00009921
    1724:	00001205 	.word	0x00001205
    1728:	00001299 	.word	0x00001299
    172c:	00001215 	.word	0x00001215
    1730:	00001243 	.word	0x00001243
    1734:	000015f9 	.word	0x000015f9
    1738:	000041b1 	.word	0x000041b1
    173c:	0000ac6c 	.word	0x0000ac6c
    1740:	000071b1 	.word	0x000071b1
    1744:	00001645 	.word	0x00001645
    1748:	0000992f 	.word	0x0000992f
    174c:	00009973 	.word	0x00009973
    1750:	00008485 	.word	0x00008485
    1754:	00009946 	.word	0x00009946

00001758 <dhcp_discover>:
    1758:	e92d 41f3 	stmdb	sp!, {r0, r1, r4, r5, r6, r7, r8, lr}
    175c:	6a84      	ldr	r4, [r0, #40]	; 0x28
    175e:	4d34      	ldr	r5, [pc, #208]	; (1830 <dhcp_discover+0xd8>)
    1760:	4607      	mov	r7, r0
    1762:	4834      	ldr	r0, [pc, #208]	; (1834 <dhcp_discover+0xdc>)
    1764:	47a8      	blx	r5
    1766:	2300      	movs	r3, #0
    1768:	6263      	str	r3, [r4, #36]	; 0x24
    176a:	2106      	movs	r1, #6
    176c:	4620      	mov	r0, r4
    176e:	4b32      	ldr	r3, [pc, #200]	; (1838 <dhcp_discover+0xe0>)
    1770:	4798      	blx	r3
    1772:	2201      	movs	r2, #1
    1774:	4621      	mov	r1, r4
    1776:	4638      	mov	r0, r7
    1778:	4b30      	ldr	r3, [pc, #192]	; (183c <dhcp_discover+0xe4>)
    177a:	4798      	blx	r3
    177c:	4606      	mov	r6, r0
    177e:	2800      	cmp	r0, #0
    1780:	d153      	bne.n	182a <dhcp_discover+0xd2>
    1782:	482f      	ldr	r0, [pc, #188]	; (1840 <dhcp_discover+0xe8>)
    1784:	f8df 80f0 	ldr.w	r8, [pc, #240]	; 1878 <dhcp_discover+0x120>
    1788:	47a8      	blx	r5
    178a:	2202      	movs	r2, #2
    178c:	2139      	movs	r1, #57	; 0x39
    178e:	4620      	mov	r0, r4
    1790:	47c0      	blx	r8
    1792:	4b2c      	ldr	r3, [pc, #176]	; (1844 <dhcp_discover+0xec>)
    1794:	8db9      	ldrh	r1, [r7, #44]	; 0x2c
    1796:	4620      	mov	r0, r4
    1798:	4798      	blx	r3
    179a:	2204      	movs	r2, #4
    179c:	2137      	movs	r1, #55	; 0x37
    179e:	4620      	mov	r0, r4
    17a0:	47c0      	blx	r8
    17a2:	f8df 80d8 	ldr.w	r8, [pc, #216]	; 187c <dhcp_discover+0x124>
    17a6:	2101      	movs	r1, #1
    17a8:	4620      	mov	r0, r4
    17aa:	47c0      	blx	r8
    17ac:	2103      	movs	r1, #3
    17ae:	4620      	mov	r0, r4
    17b0:	47c0      	blx	r8
    17b2:	211c      	movs	r1, #28
    17b4:	4620      	mov	r0, r4
    17b6:	47c0      	blx	r8
    17b8:	2106      	movs	r1, #6
    17ba:	4620      	mov	r0, r4
    17bc:	47c0      	blx	r8
    17be:	4b22      	ldr	r3, [pc, #136]	; (1848 <dhcp_discover+0xf0>)
    17c0:	4620      	mov	r0, r4
    17c2:	4798      	blx	r3
    17c4:	4821      	ldr	r0, [pc, #132]	; (184c <dhcp_discover+0xf4>)
    17c6:	47a8      	blx	r5
    17c8:	8b21      	ldrh	r1, [r4, #24]
    17ca:	4b21      	ldr	r3, [pc, #132]	; (1850 <dhcp_discover+0xf8>)
    17cc:	6920      	ldr	r0, [r4, #16]
    17ce:	31f0      	adds	r1, #240	; 0xf0
    17d0:	b289      	uxth	r1, r1
    17d2:	4798      	blx	r3
    17d4:	481f      	ldr	r0, [pc, #124]	; (1854 <dhcp_discover+0xfc>)
    17d6:	47a8      	blx	r5
    17d8:	9700      	str	r7, [sp, #0]
    17da:	2343      	movs	r3, #67	; 0x43
    17dc:	4a1e      	ldr	r2, [pc, #120]	; (1858 <dhcp_discover+0x100>)
    17de:	6921      	ldr	r1, [r4, #16]
    17e0:	6860      	ldr	r0, [r4, #4]
    17e2:	4f1e      	ldr	r7, [pc, #120]	; (185c <dhcp_discover+0x104>)
    17e4:	47b8      	blx	r7
    17e6:	481e      	ldr	r0, [pc, #120]	; (1860 <dhcp_discover+0x108>)
    17e8:	47a8      	blx	r5
    17ea:	4620      	mov	r0, r4
    17ec:	4b1d      	ldr	r3, [pc, #116]	; (1864 <dhcp_discover+0x10c>)
    17ee:	4798      	blx	r3
    17f0:	481d      	ldr	r0, [pc, #116]	; (1868 <dhcp_discover+0x110>)
    17f2:	47a8      	blx	r5
    17f4:	7b61      	ldrb	r1, [r4, #13]
    17f6:	481d      	ldr	r0, [pc, #116]	; (186c <dhcp_discover+0x114>)
    17f8:	3101      	adds	r1, #1
    17fa:	b2c9      	uxtb	r1, r1
    17fc:	2905      	cmp	r1, #5
    17fe:	bf98      	it	ls
    1800:	f44f 737a 	movls.w	r3, #1000	; 0x3e8
    1804:	7361      	strb	r1, [r4, #13]
    1806:	bf94      	ite	ls
    1808:	fa03 f101 	lslls.w	r1, r3, r1
    180c:	f64e 2160 	movwhi	r1, #60000	; 0xea60
    1810:	f201 13f3 	addw	r3, r1, #499	; 0x1f3
    1814:	f44f 72fa 	mov.w	r2, #500	; 0x1f4
    1818:	fb93 f3f2 	sdiv	r3, r3, r2
    181c:	8363      	strh	r3, [r4, #26]
    181e:	4b14      	ldr	r3, [pc, #80]	; (1870 <dhcp_discover+0x118>)
    1820:	4798      	blx	r3
    1822:	4630      	mov	r0, r6
    1824:	b002      	add	sp, #8
    1826:	e8bd 81f0 	ldmia.w	sp!, {r4, r5, r6, r7, r8, pc}
    182a:	4812      	ldr	r0, [pc, #72]	; (1874 <dhcp_discover+0x11c>)
    182c:	e7e1      	b.n	17f2 <dhcp_discover+0x9a>
    182e:	bf00      	nop
    1830:	00008595 	.word	0x00008595
    1834:	000099a1 	.word	0x000099a1
    1838:	00001205 	.word	0x00001205
    183c:	00001299 	.word	0x00001299
    1840:	000099b1 	.word	0x000099b1
    1844:	00001243 	.word	0x00001243
    1848:	000015f9 	.word	0x000015f9
    184c:	000099cf 	.word	0x000099cf
    1850:	000041b1 	.word	0x000041b1
    1854:	000099eb 	.word	0x000099eb
    1858:	0000ac6c 	.word	0x0000ac6c
    185c:	000071b1 	.word	0x000071b1
    1860:	00009a30 	.word	0x00009a30
    1864:	00001645 	.word	0x00001645
    1868:	00009a4d 	.word	0x00009a4d
    186c:	00009a95 	.word	0x00009a95
    1870:	00008485 	.word	0x00008485
    1874:	00009a66 	.word	0x00009a66
    1878:	00001215 	.word	0x00001215
    187c:	00001231 	.word	0x00001231

00001880 <dhcp_select>:
    1880:	e92d 4ff7 	stmdb	sp!, {r0, r1, r2, r4, r5, r6, r7, r8, r9, sl, fp, lr}
    1884:	6a84      	ldr	r4, [r0, #40]	; 0x28
    1886:	f890 1038 	ldrb.w	r1, [r0, #56]	; 0x38
    188a:	f890 2036 	ldrb.w	r2, [r0, #54]	; 0x36
    188e:	f890 3037 	ldrb.w	r3, [r0, #55]	; 0x37
    1892:	4e3b      	ldr	r6, [pc, #236]	; (1980 <dhcp_select+0x100>)
    1894:	9100      	str	r1, [sp, #0]
    1896:	4605      	mov	r5, r0
    1898:	4601      	mov	r1, r0
    189a:	483a      	ldr	r0, [pc, #232]	; (1984 <dhcp_select+0x104>)
    189c:	f8df 9114 	ldr.w	r9, [pc, #276]	; 19b4 <dhcp_select+0x134>
    18a0:	47b0      	blx	r6
    18a2:	2101      	movs	r1, #1
    18a4:	4620      	mov	r0, r4
    18a6:	4b38      	ldr	r3, [pc, #224]	; (1988 <dhcp_select+0x108>)
    18a8:	4798      	blx	r3
    18aa:	2203      	movs	r2, #3
    18ac:	4621      	mov	r1, r4
    18ae:	4628      	mov	r0, r5
    18b0:	4b36      	ldr	r3, [pc, #216]	; (198c <dhcp_select+0x10c>)
    18b2:	4798      	blx	r3
    18b4:	4607      	mov	r7, r0
    18b6:	2800      	cmp	r0, #0
    18b8:	d160      	bne.n	197c <dhcp_select+0xfc>
    18ba:	f8df 80fc 	ldr.w	r8, [pc, #252]	; 19b8 <dhcp_select+0x138>
    18be:	f8df b0fc 	ldr.w	fp, [pc, #252]	; 19bc <dhcp_select+0x13c>
    18c2:	f8df a0fc 	ldr.w	sl, [pc, #252]	; 19c0 <dhcp_select+0x140>
    18c6:	2202      	movs	r2, #2
    18c8:	2139      	movs	r1, #57	; 0x39
    18ca:	4620      	mov	r0, r4
    18cc:	47c0      	blx	r8
    18ce:	4b30      	ldr	r3, [pc, #192]	; (1990 <dhcp_select+0x110>)
    18d0:	8da9      	ldrh	r1, [r5, #44]	; 0x2c
    18d2:	4620      	mov	r0, r4
    18d4:	4798      	blx	r3
    18d6:	2204      	movs	r2, #4
    18d8:	2132      	movs	r1, #50	; 0x32
    18da:	4620      	mov	r0, r4
    18dc:	47c0      	blx	r8
    18de:	6a60      	ldr	r0, [r4, #36]	; 0x24
    18e0:	47d8      	blx	fp
    18e2:	4601      	mov	r1, r0
    18e4:	4620      	mov	r0, r4
    18e6:	47d0      	blx	sl
    18e8:	2204      	movs	r2, #4
    18ea:	2136      	movs	r1, #54	; 0x36
    18ec:	4620      	mov	r0, r4
    18ee:	47c0      	blx	r8
    18f0:	6a20      	ldr	r0, [r4, #32]
    18f2:	47d8      	blx	fp
    18f4:	4601      	mov	r1, r0
    18f6:	4620      	mov	r0, r4
    18f8:	47d0      	blx	sl
    18fa:	2204      	movs	r2, #4
    18fc:	2137      	movs	r1, #55	; 0x37
    18fe:	4620      	mov	r0, r4
    1900:	47c0      	blx	r8
    1902:	f8df 80c0 	ldr.w	r8, [pc, #192]	; 19c4 <dhcp_select+0x144>
    1906:	2101      	movs	r1, #1
    1908:	4620      	mov	r0, r4
    190a:	47c0      	blx	r8
    190c:	2103      	movs	r1, #3
    190e:	4620      	mov	r0, r4
    1910:	47c0      	blx	r8
    1912:	211c      	movs	r1, #28
    1914:	4620      	mov	r0, r4
    1916:	47c0      	blx	r8
    1918:	2106      	movs	r1, #6
    191a:	4620      	mov	r0, r4
    191c:	47c0      	blx	r8
    191e:	4620      	mov	r0, r4
    1920:	4b1c      	ldr	r3, [pc, #112]	; (1994 <dhcp_select+0x114>)
    1922:	4798      	blx	r3
    1924:	8b21      	ldrh	r1, [r4, #24]
    1926:	6920      	ldr	r0, [r4, #16]
    1928:	4b1b      	ldr	r3, [pc, #108]	; (1998 <dhcp_select+0x118>)
    192a:	31f0      	adds	r1, #240	; 0xf0
    192c:	b289      	uxth	r1, r1
    192e:	4798      	blx	r3
    1930:	9500      	str	r5, [sp, #0]
    1932:	2343      	movs	r3, #67	; 0x43
    1934:	4a19      	ldr	r2, [pc, #100]	; (199c <dhcp_select+0x11c>)
    1936:	6921      	ldr	r1, [r4, #16]
    1938:	6860      	ldr	r0, [r4, #4]
    193a:	4d19      	ldr	r5, [pc, #100]	; (19a0 <dhcp_select+0x120>)
    193c:	47a8      	blx	r5
    193e:	4620      	mov	r0, r4
    1940:	4b18      	ldr	r3, [pc, #96]	; (19a4 <dhcp_select+0x124>)
    1942:	4798      	blx	r3
    1944:	4818      	ldr	r0, [pc, #96]	; (19a8 <dhcp_select+0x128>)
    1946:	47c8      	blx	r9
    1948:	7b61      	ldrb	r1, [r4, #13]
    194a:	4818      	ldr	r0, [pc, #96]	; (19ac <dhcp_select+0x12c>)
    194c:	3101      	adds	r1, #1
    194e:	b2c9      	uxtb	r1, r1
    1950:	2905      	cmp	r1, #5
    1952:	bf98      	it	ls
    1954:	f44f 737a 	movls.w	r3, #1000	; 0x3e8
    1958:	7361      	strb	r1, [r4, #13]
    195a:	bf94      	ite	ls
    195c:	fa03 f101 	lslls.w	r1, r3, r1
    1960:	f64e 2160 	movwhi	r1, #60000	; 0xea60
    1964:	f201 13f3 	addw	r3, r1, #499	; 0x1f3
    1968:	f44f 72fa 	mov.w	r2, #500	; 0x1f4
    196c:	fb93 f3f2 	sdiv	r3, r3, r2
    1970:	8363      	strh	r3, [r4, #26]
    1972:	47b0      	blx	r6
    1974:	4638      	mov	r0, r7
    1976:	b003      	add	sp, #12
    1978:	e8bd 8ff0 	ldmia.w	sp!, {r4, r5, r6, r7, r8, r9, sl, fp, pc}
    197c:	480c      	ldr	r0, [pc, #48]	; (19b0 <dhcp_select+0x130>)
    197e:	e7e2      	b.n	1946 <dhcp_select+0xc6>
    1980:	00008485 	.word	0x00008485
    1984:	00009ac5 	.word	0x00009ac5
    1988:	00001205 	.word	0x00001205
    198c:	00001299 	.word	0x00001299
    1990:	00001243 	.word	0x00001243
    1994:	000015f9 	.word	0x000015f9
    1998:	000041b1 	.word	0x000041b1
    199c:	0000ac6c 	.word	0x0000ac6c
    19a0:	000071b1 	.word	0x000071b1
    19a4:	00001645 	.word	0x00001645
    19a8:	00009ae4 	.word	0x00009ae4
    19ac:	00009b29 	.word	0x00009b29
    19b0:	00009afc 	.word	0x00009afc
    19b4:	00008595 	.word	0x00008595
    19b8:	00001215 	.word	0x00001215
    19bc:	000011fd 	.word	0x000011fd
    19c0:	00001261 	.word	0x00001261
    19c4:	00001231 	.word	0x00001231

000019c8 <dhcp_reboot>:
    19c8:	e92d 41f3 	stmdb	sp!, {r0, r1, r4, r5, r6, r7, r8, lr}
    19cc:	6a84      	ldr	r4, [r0, #40]	; 0x28
    19ce:	4e2d      	ldr	r6, [pc, #180]	; (1a84 <dhcp_reboot+0xbc>)
    19d0:	4607      	mov	r7, r0
    19d2:	482d      	ldr	r0, [pc, #180]	; (1a88 <dhcp_reboot+0xc0>)
    19d4:	47b0      	blx	r6
    19d6:	2103      	movs	r1, #3
    19d8:	4620      	mov	r0, r4
    19da:	4b2c      	ldr	r3, [pc, #176]	; (1a8c <dhcp_reboot+0xc4>)
    19dc:	4798      	blx	r3
    19de:	2203      	movs	r2, #3
    19e0:	4621      	mov	r1, r4
    19e2:	4638      	mov	r0, r7
    19e4:	4b2a      	ldr	r3, [pc, #168]	; (1a90 <dhcp_reboot+0xc8>)
    19e6:	4798      	blx	r3
    19e8:	4605      	mov	r5, r0
    19ea:	2800      	cmp	r0, #0
    19ec:	d147      	bne.n	1a7e <dhcp_reboot+0xb6>
    19ee:	2202      	movs	r2, #2
    19f0:	2139      	movs	r1, #57	; 0x39
    19f2:	4620      	mov	r0, r4
    19f4:	f8df 80cc 	ldr.w	r8, [pc, #204]	; 1ac4 <dhcp_reboot+0xfc>
    19f8:	47c0      	blx	r8
    19fa:	4b26      	ldr	r3, [pc, #152]	; (1a94 <dhcp_reboot+0xcc>)
    19fc:	f44f 7110 	mov.w	r1, #576	; 0x240
    1a00:	4620      	mov	r0, r4
    1a02:	4798      	blx	r3
    1a04:	2204      	movs	r2, #4
    1a06:	2132      	movs	r1, #50	; 0x32
    1a08:	4620      	mov	r0, r4
    1a0a:	47c0      	blx	r8
    1a0c:	4b22      	ldr	r3, [pc, #136]	; (1a98 <dhcp_reboot+0xd0>)
    1a0e:	6a60      	ldr	r0, [r4, #36]	; 0x24
    1a10:	4798      	blx	r3
    1a12:	4b22      	ldr	r3, [pc, #136]	; (1a9c <dhcp_reboot+0xd4>)
    1a14:	4601      	mov	r1, r0
    1a16:	4620      	mov	r0, r4
    1a18:	4798      	blx	r3
    1a1a:	4620      	mov	r0, r4
    1a1c:	4b20      	ldr	r3, [pc, #128]	; (1aa0 <dhcp_reboot+0xd8>)
    1a1e:	4798      	blx	r3
    1a20:	8b21      	ldrh	r1, [r4, #24]
    1a22:	6920      	ldr	r0, [r4, #16]
    1a24:	4b1f      	ldr	r3, [pc, #124]	; (1aa4 <dhcp_reboot+0xdc>)
    1a26:	31f0      	adds	r1, #240	; 0xf0
    1a28:	b289      	uxth	r1, r1
    1a2a:	4798      	blx	r3
    1a2c:	9700      	str	r7, [sp, #0]
    1a2e:	2343      	movs	r3, #67	; 0x43
    1a30:	4a1d      	ldr	r2, [pc, #116]	; (1aa8 <dhcp_reboot+0xe0>)
    1a32:	6921      	ldr	r1, [r4, #16]
    1a34:	6860      	ldr	r0, [r4, #4]
    1a36:	4f1d      	ldr	r7, [pc, #116]	; (1aac <dhcp_reboot+0xe4>)
    1a38:	47b8      	blx	r7
    1a3a:	4620      	mov	r0, r4
    1a3c:	4b1c      	ldr	r3, [pc, #112]	; (1ab0 <dhcp_reboot+0xe8>)
    1a3e:	4798      	blx	r3
    1a40:	481c      	ldr	r0, [pc, #112]	; (1ab4 <dhcp_reboot+0xec>)
    1a42:	47b0      	blx	r6
    1a44:	7b61      	ldrb	r1, [r4, #13]
    1a46:	481c      	ldr	r0, [pc, #112]	; (1ab8 <dhcp_reboot+0xf0>)
    1a48:	3101      	adds	r1, #1
    1a4a:	b2c9      	uxtb	r1, r1
    1a4c:	2909      	cmp	r1, #9
    1a4e:	bf98      	it	ls
    1a50:	ebc1 1341 	rsbls	r3, r1, r1, lsl #5
    1a54:	7361      	strb	r1, [r4, #13]
    1a56:	bf9d      	ittte	ls
    1a58:	eb01 0183 	addls.w	r1, r1, r3, lsl #2
    1a5c:	00c9      	lslls	r1, r1, #3
    1a5e:	b289      	uxthls	r1, r1
    1a60:	f242 7110 	movwhi	r1, #10000	; 0x2710
    1a64:	f201 13f3 	addw	r3, r1, #499	; 0x1f3
    1a68:	f44f 72fa 	mov.w	r2, #500	; 0x1f4
    1a6c:	fb93 f3f2 	sdiv	r3, r3, r2
    1a70:	8363      	strh	r3, [r4, #26]
    1a72:	4b12      	ldr	r3, [pc, #72]	; (1abc <dhcp_reboot+0xf4>)
    1a74:	4798      	blx	r3
    1a76:	4628      	mov	r0, r5
    1a78:	b002      	add	sp, #8
    1a7a:	e8bd 81f0 	ldmia.w	sp!, {r4, r5, r6, r7, r8, pc}
    1a7e:	4810      	ldr	r0, [pc, #64]	; (1ac0 <dhcp_reboot+0xf8>)
    1a80:	e7df      	b.n	1a42 <dhcp_reboot+0x7a>
    1a82:	bf00      	nop
    1a84:	00008595 	.word	0x00008595
    1a88:	00009b57 	.word	0x00009b57
    1a8c:	00001205 	.word	0x00001205
    1a90:	00001299 	.word	0x00001299
    1a94:	00001243 	.word	0x00001243
    1a98:	000011fd 	.word	0x000011fd
    1a9c:	00001261 	.word	0x00001261
    1aa0:	000015f9 	.word	0x000015f9
    1aa4:	000041b1 	.word	0x000041b1
    1aa8:	0000ac6c 	.word	0x0000ac6c
    1aac:	000071b1 	.word	0x000071b1
    1ab0:	00001645 	.word	0x00001645
    1ab4:	00009b65 	.word	0x00009b65
    1ab8:	00009ba9 	.word	0x00009ba9
    1abc:	00008485 	.word	0x00008485
    1ac0:	00009b7c 	.word	0x00009b7c
    1ac4:	00001215 	.word	0x00001215

00001ac8 <dhcp_recv>:
    1ac8:	e92d 4ff0 	stmdb	sp!, {r4, r5, r6, r7, r8, r9, sl, fp, lr}
    1acc:	b08d      	sub	sp, #52	; 0x34
    1ace:	f8d0 b028 	ldr.w	fp, [r0, #40]	; 0x28
    1ad2:	7859      	ldrb	r1, [r3, #1]
    1ad4:	6856      	ldr	r6, [r2, #4]
    1ad6:	4da9      	ldr	r5, [pc, #676]	; (1d7c <dhcp_recv+0x2b4>)
    1ad8:	4604      	mov	r4, r0
    1ada:	f8bd 0058 	ldrh.w	r0, [sp, #88]	; 0x58
    1ade:	4692      	mov	sl, r2
    1ae0:	781a      	ldrb	r2, [r3, #0]
    1ae2:	9002      	str	r0, [sp, #8]
    1ae4:	78d8      	ldrb	r0, [r3, #3]
    1ae6:	9001      	str	r0, [sp, #4]
    1ae8:	789b      	ldrb	r3, [r3, #2]
    1aea:	9300      	str	r3, [sp, #0]
    1aec:	48a4      	ldr	r0, [pc, #656]	; (1d80 <dhcp_recv+0x2b8>)
    1aee:	460b      	mov	r3, r1
    1af0:	4651      	mov	r1, sl
    1af2:	47a8      	blx	r5
    1af4:	f8ba 100a 	ldrh.w	r1, [sl, #10]
    1af8:	48a2      	ldr	r0, [pc, #648]	; (1d84 <dhcp_recv+0x2bc>)
    1afa:	47a8      	blx	r5
    1afc:	f8ba 1008 	ldrh.w	r1, [sl, #8]
    1b00:	48a1      	ldr	r0, [pc, #644]	; (1d88 <dhcp_recv+0x2c0>)
    1b02:	47a8      	blx	r5
    1b04:	f8ba 300a 	ldrh.w	r3, [sl, #10]
    1b08:	2b2b      	cmp	r3, #43	; 0x2b
    1b0a:	462f      	mov	r7, r5
    1b0c:	d803      	bhi.n	1b16 <dhcp_recv+0x4e>
    1b0e:	489f      	ldr	r0, [pc, #636]	; (1d8c <dhcp_recv+0x2c4>)
    1b10:	4b9f      	ldr	r3, [pc, #636]	; (1d90 <dhcp_recv+0x2c8>)
    1b12:	4798      	blx	r3
    1b14:	e02c      	b.n	1b70 <dhcp_recv+0xa8>
    1b16:	7831      	ldrb	r1, [r6, #0]
    1b18:	2902      	cmp	r1, #2
    1b1a:	d118      	bne.n	1b4e <dhcp_recv+0x86>
    1b1c:	f894 c02e 	ldrb.w	ip, [r4, #46]	; 0x2e
    1b20:	f104 052f 	add.w	r5, r4, #47	; 0x2f
    1b24:	f106 001c 	add.w	r0, r6, #28
    1b28:	2100      	movs	r1, #0
    1b2a:	b2cb      	uxtb	r3, r1
    1b2c:	459c      	cmp	ip, r3
    1b2e:	d811      	bhi.n	1b54 <dhcp_recv+0x8c>
    1b30:	6870      	ldr	r0, [r6, #4]
    1b32:	4d98      	ldr	r5, [pc, #608]	; (1d94 <dhcp_recv+0x2cc>)
    1b34:	47a8      	blx	r5
    1b36:	f8db 3000 	ldr.w	r3, [fp]
    1b3a:	4298      	cmp	r0, r3
    1b3c:	d021      	beq.n	1b82 <dhcp_recv+0xba>
    1b3e:	6870      	ldr	r0, [r6, #4]
    1b40:	47a8      	blx	r5
    1b42:	f8db 2000 	ldr.w	r2, [fp]
    1b46:	4601      	mov	r1, r0
    1b48:	4893      	ldr	r0, [pc, #588]	; (1d98 <dhcp_recv+0x2d0>)
    1b4a:	47b8      	blx	r7
    1b4c:	e010      	b.n	1b70 <dhcp_recv+0xa8>
    1b4e:	4893      	ldr	r0, [pc, #588]	; (1d9c <dhcp_recv+0x2d4>)
    1b50:	47a8      	blx	r5
    1b52:	e00d      	b.n	1b70 <dhcp_recv+0xa8>
    1b54:	f815 2b01 	ldrb.w	r2, [r5], #1
    1b58:	f810 eb01 	ldrb.w	lr, [r0], #1
    1b5c:	4572      	cmp	r2, lr
    1b5e:	460b      	mov	r3, r1
    1b60:	f101 0101 	add.w	r1, r1, #1
    1b64:	d0e1      	beq.n	1b2a <dhcp_recv+0x62>
    1b66:	f8cd e000 	str.w	lr, [sp]
    1b6a:	4619      	mov	r1, r3
    1b6c:	488c      	ldr	r0, [pc, #560]	; (1da0 <dhcp_recv+0x2d8>)
    1b6e:	47b8      	blx	r7
    1b70:	2300      	movs	r3, #0
    1b72:	f8cb 3008 	str.w	r3, [fp, #8]
    1b76:	4650      	mov	r0, sl
    1b78:	4b8a      	ldr	r3, [pc, #552]	; (1da4 <dhcp_recv+0x2dc>)
    1b7a:	4798      	blx	r3
    1b7c:	b00d      	add	sp, #52	; 0x34
    1b7e:	e8bd 8ff0 	ldmia.w	sp!, {r4, r5, r6, r7, r8, r9, sl, fp, pc}
    1b82:	4b89      	ldr	r3, [pc, #548]	; (1da8 <dhcp_recv+0x2e0>)
    1b84:	f04f 0800 	mov.w	r8, #0
    1b88:	f8c3 8004 	str.w	r8, [r3, #4]
    1b8c:	f8a3 8008 	strh.w	r8, [r3, #8]
    1b90:	f8c3 8000 	str.w	r8, [r3]
    1b94:	f8ba 300a 	ldrh.w	r3, [sl, #10]
    1b98:	2b2b      	cmp	r3, #43	; 0x2b
    1b9a:	d91b      	bls.n	1bd4 <dhcp_recv+0x10c>
    1b9c:	f8da 3004 	ldr.w	r3, [sl, #4]
    1ba0:	f8ba 9008 	ldrh.w	r9, [sl, #8]
    1ba4:	f8cb 3008 	str.w	r3, [fp, #8]
    1ba8:	23f0      	movs	r3, #240	; 0xf0
    1baa:	f8cd a010 	str.w	sl, [sp, #16]
    1bae:	9a04      	ldr	r2, [sp, #16]
    1bb0:	8952      	ldrh	r2, [r2, #10]
    1bb2:	429a      	cmp	r2, r3
    1bb4:	d903      	bls.n	1bbe <dhcp_recv+0xf6>
    1bb6:	9a04      	ldr	r2, [sp, #16]
    1bb8:	6852      	ldr	r2, [r2, #4]
    1bba:	9207      	str	r2, [sp, #28]
    1bbc:	e165      	b.n	1e8a <dhcp_recv+0x3c2>
    1bbe:	1a9b      	subs	r3, r3, r2
    1bc0:	eba9 0902 	sub.w	r9, r9, r2
    1bc4:	9a04      	ldr	r2, [sp, #16]
    1bc6:	6812      	ldr	r2, [r2, #0]
    1bc8:	9204      	str	r2, [sp, #16]
    1bca:	b29b      	uxth	r3, r3
    1bcc:	fa1f f989 	uxth.w	r9, r9
    1bd0:	2a00      	cmp	r2, #0
    1bd2:	d1ec      	bne.n	1bae <dhcp_recv+0xe6>
    1bd4:	4875      	ldr	r0, [pc, #468]	; (1dac <dhcp_recv+0x2e4>)
    1bd6:	e79b      	b.n	1b10 <dhcp_recv+0x48>
    1bd8:	9a04      	ldr	r2, [sp, #16]
    1bda:	6812      	ldr	r2, [r2, #0]
    1bdc:	2a00      	cmp	r2, #0
    1bde:	f000 8283 	beq.w	20e8 <dhcp_recv+0x620>
    1be2:	6852      	ldr	r2, [r2, #4]
    1be4:	7812      	ldrb	r2, [r2, #0]
    1be6:	e15f      	b.n	1ea8 <dhcp_recv+0x3e0>
    1be8:	2936      	cmp	r1, #54	; 0x36
    1bea:	f000 809c 	beq.w	1d26 <dhcp_recv+0x25e>
    1bee:	d810      	bhi.n	1c12 <dhcp_recv+0x14a>
    1bf0:	2934      	cmp	r1, #52	; 0x34
    1bf2:	f000 808e 	beq.w	1d12 <dhcp_recv+0x24a>
    1bf6:	2935      	cmp	r1, #53	; 0x35
    1bf8:	f040 8166 	bne.w	1ec8 <dhcp_recv+0x400>
    1bfc:	2a01      	cmp	r2, #1
    1bfe:	f000 80e9 	beq.w	1dd4 <dhcp_recv+0x30c>
    1c02:	4b6b      	ldr	r3, [pc, #428]	; (1db0 <dhcp_recv+0x2e8>)
    1c04:	496b      	ldr	r1, [pc, #428]	; (1db4 <dhcp_recv+0x2ec>)
    1c06:	486c      	ldr	r0, [pc, #432]	; (1db8 <dhcp_recv+0x2f0>)
    1c08:	4c5c      	ldr	r4, [pc, #368]	; (1d7c <dhcp_recv+0x2b4>)
    1c0a:	f240 5295 	movw	r2, #1429	; 0x595
    1c0e:	47a0      	blx	r4
    1c10:	e7fe      	b.n	1c10 <dhcp_recv+0x148>
    1c12:	293a      	cmp	r1, #58	; 0x3a
    1c14:	f000 8091 	beq.w	1d3a <dhcp_recv+0x272>
    1c18:	293b      	cmp	r1, #59	; 0x3b
    1c1a:	f040 8155 	bne.w	1ec8 <dhcp_recv+0x400>
    1c1e:	2a04      	cmp	r2, #4
    1c20:	f000 80dc 	beq.w	1ddc <dhcp_recv+0x314>
    1c24:	4b62      	ldr	r3, [pc, #392]	; (1db0 <dhcp_recv+0x2e8>)
    1c26:	4965      	ldr	r1, [pc, #404]	; (1dbc <dhcp_recv+0x2f4>)
    1c28:	4863      	ldr	r0, [pc, #396]	; (1db8 <dhcp_recv+0x2f0>)
    1c2a:	4c54      	ldr	r4, [pc, #336]	; (1d7c <dhcp_recv+0x2b4>)
    1c2c:	f240 52a1 	movw	r2, #1441	; 0x5a1
    1c30:	47a0      	blx	r4
    1c32:	e7fe      	b.n	1c32 <dhcp_recv+0x16a>
    1c34:	1e59      	subs	r1, r3, #1
    1c36:	2500      	movs	r5, #0
    1c38:	b289      	uxth	r1, r1
    1c3a:	f04f 36ff 	mov.w	r6, #4294967295
    1c3e:	462a      	mov	r2, r5
    1c40:	3102      	adds	r1, #2
    1c42:	fa12 f281 	uxtah	r2, r2, r1
    1c46:	b292      	uxth	r2, r2
    1c48:	9206      	str	r2, [sp, #24]
    1c4a:	2d00      	cmp	r5, #0
    1c4c:	f000 80e9 	beq.w	1e22 <dhcp_recv+0x35a>
    1c50:	3302      	adds	r3, #2
    1c52:	b29b      	uxth	r3, r3
    1c54:	9309      	str	r3, [sp, #36]	; 0x24
    1c56:	2300      	movs	r3, #0
    1c58:	930b      	str	r3, [sp, #44]	; 0x2c
    1c5a:	4b59      	ldr	r3, [pc, #356]	; (1dc0 <dhcp_recv+0x2f8>)
    1c5c:	9605      	str	r6, [sp, #20]
    1c5e:	18f3      	adds	r3, r6, r3
    1c60:	9308      	str	r3, [sp, #32]
    1c62:	9b05      	ldr	r3, [sp, #20]
    1c64:	9a09      	ldr	r2, [sp, #36]	; 0x24
    1c66:	1b9b      	subs	r3, r3, r6
    1c68:	eb02 0383 	add.w	r3, r2, r3, lsl #2
    1c6c:	9a08      	ldr	r2, [sp, #32]
    1c6e:	7852      	ldrb	r2, [r2, #1]
    1c70:	b29b      	uxth	r3, r3
    1c72:	2a00      	cmp	r2, #0
    1c74:	f040 80d5 	bne.w	1e22 <dhcp_recv+0x35a>
    1c78:	2d04      	cmp	r5, #4
    1c7a:	462a      	mov	r2, r5
    1c7c:	a90b      	add	r1, sp, #44	; 0x2c
    1c7e:	bf28      	it	cs
    1c80:	2204      	movcs	r2, #4
    1c82:	9804      	ldr	r0, [sp, #16]
    1c84:	4f4f      	ldr	r7, [pc, #316]	; (1dc4 <dhcp_recv+0x2fc>)
    1c86:	47b8      	blx	r7
    1c88:	2d04      	cmp	r5, #4
    1c8a:	f240 80bd 	bls.w	1e08 <dhcp_recv+0x340>
    1c8e:	07ab      	lsls	r3, r5, #30
    1c90:	f000 80a8 	beq.w	1de4 <dhcp_recv+0x31c>
    1c94:	4b46      	ldr	r3, [pc, #280]	; (1db0 <dhcp_recv+0x2e8>)
    1c96:	494c      	ldr	r1, [pc, #304]	; (1dc8 <dhcp_recv+0x300>)
    1c98:	4847      	ldr	r0, [pc, #284]	; (1db8 <dhcp_recv+0x2f0>)
    1c9a:	4c38      	ldr	r4, [pc, #224]	; (1d7c <dhcp_recv+0x2b4>)
    1c9c:	f240 52b4 	movw	r2, #1460	; 0x5b4
    1ca0:	47a0      	blx	r4
    1ca2:	e7fe      	b.n	1ca2 <dhcp_recv+0x1da>
    1ca4:	2a04      	cmp	r2, #4
    1ca6:	d052      	beq.n	1d4e <dhcp_recv+0x286>
    1ca8:	4b41      	ldr	r3, [pc, #260]	; (1db0 <dhcp_recv+0x2e8>)
    1caa:	4944      	ldr	r1, [pc, #272]	; (1dbc <dhcp_recv+0x2f4>)
    1cac:	4842      	ldr	r0, [pc, #264]	; (1db8 <dhcp_recv+0x2f0>)
    1cae:	4c33      	ldr	r4, [pc, #204]	; (1d7c <dhcp_recv+0x2b4>)
    1cb0:	f240 527c 	movw	r2, #1404	; 0x57c
    1cb4:	47a0      	blx	r4
    1cb6:	e7fe      	b.n	1cb6 <dhcp_recv+0x1ee>
    1cb8:	2a03      	cmp	r2, #3
    1cba:	d84c      	bhi.n	1d56 <dhcp_recv+0x28e>
    1cbc:	4b3c      	ldr	r3, [pc, #240]	; (1db0 <dhcp_recv+0x2e8>)
    1cbe:	4943      	ldr	r1, [pc, #268]	; (1dcc <dhcp_recv+0x304>)
    1cc0:	483d      	ldr	r0, [pc, #244]	; (1db8 <dhcp_recv+0x2f0>)
    1cc2:	4c2e      	ldr	r4, [pc, #184]	; (1d7c <dhcp_recv+0x2b4>)
    1cc4:	f240 5281 	movw	r2, #1409	; 0x581
    1cc8:	47a0      	blx	r4
    1cca:	e7fe      	b.n	1cca <dhcp_recv+0x202>
    1ccc:	2200      	movs	r2, #0
    1cce:	0791      	lsls	r1, r2, #30
    1cd0:	d007      	beq.n	1ce2 <dhcp_recv+0x21a>
    1cd2:	4b37      	ldr	r3, [pc, #220]	; (1db0 <dhcp_recv+0x2e8>)
    1cd4:	493e      	ldr	r1, [pc, #248]	; (1dd0 <dhcp_recv+0x308>)
    1cd6:	4838      	ldr	r0, [pc, #224]	; (1db8 <dhcp_recv+0x2f0>)
    1cd8:	4c28      	ldr	r4, [pc, #160]	; (1d7c <dhcp_recv+0x2b4>)
    1cda:	f240 5286 	movw	r2, #1414	; 0x586
    1cde:	47a0      	blx	r4
    1ce0:	e7fe      	b.n	1ce0 <dhcp_recv+0x218>
    1ce2:	2a08      	cmp	r2, #8
    1ce4:	4615      	mov	r5, r2
    1ce6:	bf28      	it	cs
    1ce8:	2508      	movcs	r5, #8
    1cea:	4295      	cmp	r5, r2
    1cec:	d937      	bls.n	1d5e <dhcp_recv+0x296>
    1cee:	4b30      	ldr	r3, [pc, #192]	; (1db0 <dhcp_recv+0x2e8>)
    1cf0:	4936      	ldr	r1, [pc, #216]	; (1dcc <dhcp_recv+0x304>)
    1cf2:	4831      	ldr	r0, [pc, #196]	; (1db8 <dhcp_recv+0x2f0>)
    1cf4:	4c21      	ldr	r4, [pc, #132]	; (1d7c <dhcp_recv+0x2b4>)
    1cf6:	f240 5289 	movw	r2, #1417	; 0x589
    1cfa:	47a0      	blx	r4
    1cfc:	e7fe      	b.n	1cfc <dhcp_recv+0x234>
    1cfe:	2a04      	cmp	r2, #4
    1d00:	d030      	beq.n	1d64 <dhcp_recv+0x29c>
    1d02:	4b2b      	ldr	r3, [pc, #172]	; (1db0 <dhcp_recv+0x2e8>)
    1d04:	492d      	ldr	r1, [pc, #180]	; (1dbc <dhcp_recv+0x2f4>)
    1d06:	482c      	ldr	r0, [pc, #176]	; (1db8 <dhcp_recv+0x2f0>)
    1d08:	4c1c      	ldr	r4, [pc, #112]	; (1d7c <dhcp_recv+0x2b4>)
    1d0a:	f240 528d 	movw	r2, #1421	; 0x58d
    1d0e:	47a0      	blx	r4
    1d10:	e7fe      	b.n	1d10 <dhcp_recv+0x248>
    1d12:	2a01      	cmp	r2, #1
    1d14:	d02a      	beq.n	1d6c <dhcp_recv+0x2a4>
    1d16:	4b26      	ldr	r3, [pc, #152]	; (1db0 <dhcp_recv+0x2e8>)
    1d18:	4926      	ldr	r1, [pc, #152]	; (1db4 <dhcp_recv+0x2ec>)
    1d1a:	4827      	ldr	r0, [pc, #156]	; (1db8 <dhcp_recv+0x2f0>)
    1d1c:	4c17      	ldr	r4, [pc, #92]	; (1d7c <dhcp_recv+0x2b4>)
    1d1e:	f240 5291 	movw	r2, #1425	; 0x591
    1d22:	47a0      	blx	r4
    1d24:	e7fe      	b.n	1d24 <dhcp_recv+0x25c>
    1d26:	2a04      	cmp	r2, #4
    1d28:	d024      	beq.n	1d74 <dhcp_recv+0x2ac>
    1d2a:	4b21      	ldr	r3, [pc, #132]	; (1db0 <dhcp_recv+0x2e8>)
    1d2c:	4923      	ldr	r1, [pc, #140]	; (1dbc <dhcp_recv+0x2f4>)
    1d2e:	4822      	ldr	r0, [pc, #136]	; (1db8 <dhcp_recv+0x2f0>)
    1d30:	4c12      	ldr	r4, [pc, #72]	; (1d7c <dhcp_recv+0x2b4>)
    1d32:	f240 5299 	movw	r2, #1433	; 0x599
    1d36:	47a0      	blx	r4
    1d38:	e7fe      	b.n	1d38 <dhcp_recv+0x270>
    1d3a:	2a04      	cmp	r2, #4
    1d3c:	d04a      	beq.n	1dd4 <dhcp_recv+0x30c>
    1d3e:	4b1c      	ldr	r3, [pc, #112]	; (1db0 <dhcp_recv+0x2e8>)
    1d40:	491e      	ldr	r1, [pc, #120]	; (1dbc <dhcp_recv+0x2f4>)
    1d42:	481d      	ldr	r0, [pc, #116]	; (1db8 <dhcp_recv+0x2f0>)
    1d44:	4c0d      	ldr	r4, [pc, #52]	; (1d7c <dhcp_recv+0x2b4>)
    1d46:	f240 529d 	movw	r2, #1437	; 0x59d
    1d4a:	47a0      	blx	r4
    1d4c:	e7fe      	b.n	1d4c <dhcp_recv+0x284>
    1d4e:	4615      	mov	r5, r2
    1d50:	4619      	mov	r1, r3
    1d52:	2606      	movs	r6, #6
    1d54:	e774      	b.n	1c40 <dhcp_recv+0x178>
    1d56:	4619      	mov	r1, r3
    1d58:	2607      	movs	r6, #7
    1d5a:	2504      	movs	r5, #4
    1d5c:	e770      	b.n	1c40 <dhcp_recv+0x178>
    1d5e:	4619      	mov	r1, r3
    1d60:	2608      	movs	r6, #8
    1d62:	e76d      	b.n	1c40 <dhcp_recv+0x178>
    1d64:	4615      	mov	r5, r2
    1d66:	4619      	mov	r1, r3
    1d68:	2603      	movs	r6, #3
    1d6a:	e769      	b.n	1c40 <dhcp_recv+0x178>
    1d6c:	4615      	mov	r5, r2
    1d6e:	4619      	mov	r1, r3
    1d70:	2600      	movs	r6, #0
    1d72:	e765      	b.n	1c40 <dhcp_recv+0x178>
    1d74:	4615      	mov	r5, r2
    1d76:	4619      	mov	r1, r3
    1d78:	2602      	movs	r6, #2
    1d7a:	e761      	b.n	1c40 <dhcp_recv+0x178>
    1d7c:	00008485 	.word	0x00008485
    1d80:	00009bd7 	.word	0x00009bd7
    1d84:	00009c17 	.word	0x00009c17
    1d88:	00009c28 	.word	0x00009c28
    1d8c:	00009c3d 	.word	0x00009c3d
    1d90:	00008595 	.word	0x00008595
    1d94:	000011fd 	.word	0x000011fd
    1d98:	00009cc6 	.word	0x00009cc6
    1d9c:	00009c62 	.word	0x00009c62
    1da0:	00009c8a 	.word	0x00009c8a
    1da4:	00003f99 	.word	0x00003f99
    1da8:	20008084 	.word	0x20008084
    1dac:	00009dd6 	.word	0x00009dd6
    1db0:	00009695 	.word	0x00009695
    1db4:	00009d1c 	.word	0x00009d1c
    1db8:	000096d7 	.word	0x000096d7
    1dbc:	00009d01 	.word	0x00009d01
    1dc0:	20008083 	.word	0x20008083
    1dc4:	00004389 	.word	0x00004389
    1dc8:	00009d45 	.word	0x00009d45
    1dcc:	00009d0a 	.word	0x00009d0a
    1dd0:	00009d4c 	.word	0x00009d4c
    1dd4:	4615      	mov	r5, r2
    1dd6:	4619      	mov	r1, r3
    1dd8:	4616      	mov	r6, r2
    1dda:	e731      	b.n	1c40 <dhcp_recv+0x178>
    1ddc:	4615      	mov	r5, r2
    1dde:	4619      	mov	r1, r3
    1de0:	2605      	movs	r6, #5
    1de2:	e72d      	b.n	1c40 <dhcp_recv+0x178>
    1de4:	9a08      	ldr	r2, [sp, #32]
    1de6:	980b      	ldr	r0, [sp, #44]	; 0x2c
    1de8:	2301      	movs	r3, #1
    1dea:	f802 3f01 	strb.w	r3, [r2, #1]!
    1dee:	4b9c      	ldr	r3, [pc, #624]	; (2060 <dhcp_recv+0x598>)
    1df0:	9208      	str	r2, [sp, #32]
    1df2:	4798      	blx	r3
    1df4:	9a05      	ldr	r2, [sp, #20]
    1df6:	4b9b      	ldr	r3, [pc, #620]	; (2064 <dhcp_recv+0x59c>)
    1df8:	f843 0022 	str.w	r0, [r3, r2, lsl #2]
    1dfc:	4613      	mov	r3, r2
    1dfe:	3d04      	subs	r5, #4
    1e00:	3301      	adds	r3, #1
    1e02:	b2ed      	uxtb	r5, r5
    1e04:	9305      	str	r3, [sp, #20]
    1e06:	e72c      	b.n	1c62 <dhcp_recv+0x19a>
    1e08:	d12b      	bne.n	1e62 <dhcp_recv+0x39a>
    1e0a:	980b      	ldr	r0, [sp, #44]	; 0x2c
    1e0c:	4b96      	ldr	r3, [pc, #600]	; (2068 <dhcp_recv+0x5a0>)
    1e0e:	4798      	blx	r3
    1e10:	900b      	str	r0, [sp, #44]	; 0x2c
    1e12:	4b96      	ldr	r3, [pc, #600]	; (206c <dhcp_recv+0x5a4>)
    1e14:	9905      	ldr	r1, [sp, #20]
    1e16:	2201      	movs	r2, #1
    1e18:	545a      	strb	r2, [r3, r1]
    1e1a:	4b92      	ldr	r3, [pc, #584]	; (2064 <dhcp_recv+0x59c>)
    1e1c:	9a0b      	ldr	r2, [sp, #44]	; 0x2c
    1e1e:	f843 2021 	str.w	r2, [r3, r1, lsl #2]
    1e22:	9b04      	ldr	r3, [sp, #16]
    1e24:	9a06      	ldr	r2, [sp, #24]
    1e26:	895b      	ldrh	r3, [r3, #10]
    1e28:	429a      	cmp	r2, r3
    1e2a:	d32d      	bcc.n	1e88 <dhcp_recv+0x3c0>
    1e2c:	1ad2      	subs	r2, r2, r3
    1e2e:	eba9 0903 	sub.w	r9, r9, r3
    1e32:	b292      	uxth	r2, r2
    1e34:	fa1f f989 	uxth.w	r9, r9
    1e38:	454a      	cmp	r2, r9
    1e3a:	9206      	str	r2, [sp, #24]
    1e3c:	d31f      	bcc.n	1e7e <dhcp_recv+0x3b6>
    1e3e:	4b8b      	ldr	r3, [pc, #556]	; (206c <dhcp_recv+0x5a4>)
    1e40:	781a      	ldrb	r2, [r3, #0]
    1e42:	461e      	mov	r6, r3
    1e44:	2a00      	cmp	r2, #0
    1e46:	d14b      	bne.n	1ee0 <dhcp_recv+0x418>
    1e48:	f1b8 0f00 	cmp.w	r8, #0
    1e4c:	d15a      	bne.n	1f04 <dhcp_recv+0x43c>
    1e4e:	4d88      	ldr	r5, [pc, #544]	; (2070 <dhcp_recv+0x5a8>)
    1e50:	4888      	ldr	r0, [pc, #544]	; (2074 <dhcp_recv+0x5ac>)
    1e52:	47a8      	blx	r5
    1e54:	7873      	ldrb	r3, [r6, #1]
    1e56:	462a      	mov	r2, r5
    1e58:	2b00      	cmp	r3, #0
    1e5a:	d165      	bne.n	1f28 <dhcp_recv+0x460>
    1e5c:	4886      	ldr	r0, [pc, #536]	; (2078 <dhcp_recv+0x5b0>)
    1e5e:	47a8      	blx	r5
    1e60:	e686      	b.n	1b70 <dhcp_recv+0xa8>
    1e62:	2d01      	cmp	r5, #1
    1e64:	d007      	beq.n	1e76 <dhcp_recv+0x3ae>
    1e66:	4b85      	ldr	r3, [pc, #532]	; (207c <dhcp_recv+0x5b4>)
    1e68:	4985      	ldr	r1, [pc, #532]	; (2080 <dhcp_recv+0x5b8>)
    1e6a:	4886      	ldr	r0, [pc, #536]	; (2084 <dhcp_recv+0x5bc>)
    1e6c:	4c86      	ldr	r4, [pc, #536]	; (2088 <dhcp_recv+0x5c0>)
    1e6e:	f240 52be 	movw	r2, #1470	; 0x5be
    1e72:	47a0      	blx	r4
    1e74:	e7fe      	b.n	1e74 <dhcp_recv+0x3ac>
    1e76:	f89d 302c 	ldrb.w	r3, [sp, #44]	; 0x2c
    1e7a:	930b      	str	r3, [sp, #44]	; 0x2c
    1e7c:	e7c9      	b.n	1e12 <dhcp_recv+0x34a>
    1e7e:	9b04      	ldr	r3, [sp, #16]
    1e80:	681b      	ldr	r3, [r3, #0]
    1e82:	9304      	str	r3, [sp, #16]
    1e84:	685b      	ldr	r3, [r3, #4]
    1e86:	9307      	str	r3, [sp, #28]
    1e88:	9b06      	ldr	r3, [sp, #24]
    1e8a:	9a07      	ldr	r2, [sp, #28]
    1e8c:	5cd1      	ldrb	r1, [r2, r3]
    1e8e:	29ff      	cmp	r1, #255	; 0xff
    1e90:	d0d5      	beq.n	1e3e <dhcp_recv+0x376>
    1e92:	454b      	cmp	r3, r9
    1e94:	d2d3      	bcs.n	1e3e <dhcp_recv+0x376>
    1e96:	9804      	ldr	r0, [sp, #16]
    1e98:	8940      	ldrh	r0, [r0, #10]
    1e9a:	1c5a      	adds	r2, r3, #1
    1e9c:	4282      	cmp	r2, r0
    1e9e:	f6bf ae9b 	bge.w	1bd8 <dhcp_recv+0x110>
    1ea2:	9a07      	ldr	r2, [sp, #28]
    1ea4:	441a      	add	r2, r3
    1ea6:	7852      	ldrb	r2, [r2, #1]
    1ea8:	2933      	cmp	r1, #51	; 0x33
    1eaa:	f43f af28 	beq.w	1cfe <dhcp_recv+0x236>
    1eae:	f63f ae9b 	bhi.w	1be8 <dhcp_recv+0x120>
    1eb2:	2901      	cmp	r1, #1
    1eb4:	f43f aef6 	beq.w	1ca4 <dhcp_recv+0x1dc>
    1eb8:	f4ff aebc 	bcc.w	1c34 <dhcp_recv+0x16c>
    1ebc:	2903      	cmp	r1, #3
    1ebe:	f43f aefb 	beq.w	1cb8 <dhcp_recv+0x1f0>
    1ec2:	2906      	cmp	r1, #6
    1ec4:	f43f af03 	beq.w	1cce <dhcp_recv+0x206>
    1ec8:	4d6f      	ldr	r5, [pc, #444]	; (2088 <dhcp_recv+0x5c0>)
    1eca:	4870      	ldr	r0, [pc, #448]	; (208c <dhcp_recv+0x5c4>)
    1ecc:	9206      	str	r2, [sp, #24]
    1ece:	9305      	str	r3, [sp, #20]
    1ed0:	47a8      	blx	r5
    1ed2:	9b05      	ldr	r3, [sp, #20]
    1ed4:	9a06      	ldr	r2, [sp, #24]
    1ed6:	4619      	mov	r1, r3
    1ed8:	f04f 36ff 	mov.w	r6, #4294967295
    1edc:	2500      	movs	r5, #0
    1ede:	e6af      	b.n	1c40 <dhcp_recv+0x178>
    1ee0:	4a60      	ldr	r2, [pc, #384]	; (2064 <dhcp_recv+0x59c>)
    1ee2:	6811      	ldr	r1, [r2, #0]
    1ee4:	2500      	movs	r5, #0
    1ee6:	2901      	cmp	r1, #1
    1ee8:	701d      	strb	r5, [r3, #0]
    1eea:	d106      	bne.n	1efa <dhcp_recv+0x432>
    1eec:	4868      	ldr	r0, [pc, #416]	; (2090 <dhcp_recv+0x5c8>)
    1eee:	4b60      	ldr	r3, [pc, #384]	; (2070 <dhcp_recv+0x5a8>)
    1ef0:	4798      	blx	r3
    1ef2:	f04f 09ec 	mov.w	r9, #236	; 0xec
    1ef6:	236c      	movs	r3, #108	; 0x6c
    1ef8:	e657      	b.n	1baa <dhcp_recv+0xe2>
    1efa:	2902      	cmp	r1, #2
    1efc:	d108      	bne.n	1f10 <dhcp_recv+0x448>
    1efe:	4865      	ldr	r0, [pc, #404]	; (2094 <dhcp_recv+0x5cc>)
    1f00:	4b5b      	ldr	r3, [pc, #364]	; (2070 <dhcp_recv+0x5a8>)
    1f02:	4798      	blx	r3
    1f04:	f04f 0800 	mov.w	r8, #0
    1f08:	f04f 096c 	mov.w	r9, #108	; 0x6c
    1f0c:	232c      	movs	r3, #44	; 0x2c
    1f0e:	e64c      	b.n	1baa <dhcp_recv+0xe2>
    1f10:	2903      	cmp	r1, #3
    1f12:	d105      	bne.n	1f20 <dhcp_recv+0x458>
    1f14:	4860      	ldr	r0, [pc, #384]	; (2098 <dhcp_recv+0x5d0>)
    1f16:	4b56      	ldr	r3, [pc, #344]	; (2070 <dhcp_recv+0x5a8>)
    1f18:	4798      	blx	r3
    1f1a:	f04f 0801 	mov.w	r8, #1
    1f1e:	e7e8      	b.n	1ef2 <dhcp_recv+0x42a>
    1f20:	4b59      	ldr	r3, [pc, #356]	; (2088 <dhcp_recv+0x5c0>)
    1f22:	485e      	ldr	r0, [pc, #376]	; (209c <dhcp_recv+0x5d4>)
    1f24:	4798      	blx	r3
    1f26:	e78f      	b.n	1e48 <dhcp_recv+0x380>
    1f28:	f8df 9138 	ldr.w	r9, [pc, #312]	; 2064 <dhcp_recv+0x59c>
    1f2c:	f899 3004 	ldrb.w	r3, [r9, #4]
    1f30:	2b05      	cmp	r3, #5
    1f32:	464f      	mov	r7, r9
    1f34:	d138      	bne.n	1fa8 <dhcp_recv+0x4e0>
    1f36:	485a      	ldr	r0, [pc, #360]	; (20a0 <dhcp_recv+0x5d8>)
    1f38:	47a8      	blx	r5
    1f3a:	f89b 300c 	ldrb.w	r3, [fp, #12]
    1f3e:	2b01      	cmp	r3, #1
    1f40:	d12b      	bne.n	1f9a <dhcp_recv+0x4d2>
    1f42:	6aa5      	ldr	r5, [r4, #40]	; 0x28
    1f44:	78f3      	ldrb	r3, [r6, #3]
    1f46:	f8c5 8028 	str.w	r8, [r5, #40]	; 0x28
    1f4a:	f8c5 802c 	str.w	r8, [r5, #44]	; 0x2c
    1f4e:	b113      	cbz	r3, 1f56 <dhcp_recv+0x48e>
    1f50:	f8d9 300c 	ldr.w	r3, [r9, #12]
    1f54:	632b      	str	r3, [r5, #48]	; 0x30
    1f56:	7933      	ldrb	r3, [r6, #4]
    1f58:	b1d3      	cbz	r3, 1f90 <dhcp_recv+0x4c8>
    1f5a:	693b      	ldr	r3, [r7, #16]
    1f5c:	636b      	str	r3, [r5, #52]	; 0x34
    1f5e:	7973      	ldrb	r3, [r6, #5]
    1f60:	b1cb      	cbz	r3, 1f96 <dhcp_recv+0x4ce>
    1f62:	697b      	ldr	r3, [r7, #20]
    1f64:	63ab      	str	r3, [r5, #56]	; 0x38
    1f66:	68ab      	ldr	r3, [r5, #8]
    1f68:	691b      	ldr	r3, [r3, #16]
    1f6a:	626b      	str	r3, [r5, #36]	; 0x24
    1f6c:	79b3      	ldrb	r3, [r6, #6]
    1f6e:	b123      	cbz	r3, 1f7a <dhcp_recv+0x4b2>
    1f70:	4b3b      	ldr	r3, [pc, #236]	; (2060 <dhcp_recv+0x598>)
    1f72:	69b8      	ldr	r0, [r7, #24]
    1f74:	4798      	blx	r3
    1f76:	2301      	movs	r3, #1
    1f78:	62a8      	str	r0, [r5, #40]	; 0x28
    1f7a:	73ab      	strb	r3, [r5, #14]
    1f7c:	79f3      	ldrb	r3, [r6, #7]
    1f7e:	b11b      	cbz	r3, 1f88 <dhcp_recv+0x4c0>
    1f80:	69f8      	ldr	r0, [r7, #28]
    1f82:	4b37      	ldr	r3, [pc, #220]	; (2060 <dhcp_recv+0x598>)
    1f84:	4798      	blx	r3
    1f86:	62e8      	str	r0, [r5, #44]	; 0x2c
    1f88:	4b46      	ldr	r3, [pc, #280]	; (20a4 <dhcp_recv+0x5dc>)
    1f8a:	4620      	mov	r0, r4
    1f8c:	4798      	blx	r3
    1f8e:	e5ef      	b.n	1b70 <dhcp_recv+0xa8>
    1f90:	6b2b      	ldr	r3, [r5, #48]	; 0x30
    1f92:	085b      	lsrs	r3, r3, #1
    1f94:	e7e2      	b.n	1f5c <dhcp_recv+0x494>
    1f96:	6b2b      	ldr	r3, [r5, #48]	; 0x30
    1f98:	e7e4      	b.n	1f64 <dhcp_recv+0x49c>
    1f9a:	3b03      	subs	r3, #3
    1f9c:	2b02      	cmp	r3, #2
    1f9e:	f63f ade7 	bhi.w	1b70 <dhcp_recv+0xa8>
    1fa2:	4620      	mov	r0, r4
    1fa4:	4b40      	ldr	r3, [pc, #256]	; (20a8 <dhcp_recv+0x5e0>)
    1fa6:	e7f1      	b.n	1f8c <dhcp_recv+0x4c4>
    1fa8:	2b06      	cmp	r3, #6
    1faa:	d12c      	bne.n	2006 <dhcp_recv+0x53e>
    1fac:	f89b 300c 	ldrb.w	r3, [fp, #12]
    1fb0:	1ed9      	subs	r1, r3, #3
    1fb2:	2902      	cmp	r1, #2
    1fb4:	d902      	bls.n	1fbc <dhcp_recv+0x4f4>
    1fb6:	2b01      	cmp	r3, #1
    1fb8:	f47f adda 	bne.w	1b70 <dhcp_recv+0xa8>
    1fbc:	483b      	ldr	r0, [pc, #236]	; (20ac <dhcp_recv+0x5e4>)
    1fbe:	4e32      	ldr	r6, [pc, #200]	; (2088 <dhcp_recv+0x5c0>)
    1fc0:	4790      	blx	r2
    1fc2:	f894 1038 	ldrb.w	r1, [r4, #56]	; 0x38
    1fc6:	f894 2036 	ldrb.w	r2, [r4, #54]	; 0x36
    1fca:	6aa5      	ldr	r5, [r4, #40]	; 0x28
    1fcc:	f894 3037 	ldrb.w	r3, [r4, #55]	; 0x37
    1fd0:	4837      	ldr	r0, [pc, #220]	; (20b0 <dhcp_recv+0x5e8>)
    1fd2:	9100      	str	r1, [sp, #0]
    1fd4:	4621      	mov	r1, r4
    1fd6:	47b0      	blx	r6
    1fd8:	4620      	mov	r0, r4
    1fda:	4b36      	ldr	r3, [pc, #216]	; (20b4 <dhcp_recv+0x5ec>)
    1fdc:	4798      	blx	r3
    1fde:	4936      	ldr	r1, [pc, #216]	; (20b8 <dhcp_recv+0x5f0>)
    1fe0:	4b36      	ldr	r3, [pc, #216]	; (20bc <dhcp_recv+0x5f4>)
    1fe2:	4620      	mov	r0, r4
    1fe4:	4798      	blx	r3
    1fe6:	4934      	ldr	r1, [pc, #208]	; (20b8 <dhcp_recv+0x5f0>)
    1fe8:	4b35      	ldr	r3, [pc, #212]	; (20c0 <dhcp_recv+0x5f8>)
    1fea:	4620      	mov	r0, r4
    1fec:	4798      	blx	r3
    1fee:	4932      	ldr	r1, [pc, #200]	; (20b8 <dhcp_recv+0x5f0>)
    1ff0:	4b34      	ldr	r3, [pc, #208]	; (20c4 <dhcp_recv+0x5fc>)
    1ff2:	4620      	mov	r0, r4
    1ff4:	4798      	blx	r3
    1ff6:	4628      	mov	r0, r5
    1ff8:	4b33      	ldr	r3, [pc, #204]	; (20c8 <dhcp_recv+0x600>)
    1ffa:	210c      	movs	r1, #12
    1ffc:	4798      	blx	r3
    1ffe:	4b33      	ldr	r3, [pc, #204]	; (20cc <dhcp_recv+0x604>)
    2000:	4620      	mov	r0, r4
    2002:	4798      	blx	r3
    2004:	e5b4      	b.n	1b70 <dhcp_recv+0xa8>
    2006:	2b02      	cmp	r3, #2
    2008:	f47f adb2 	bne.w	1b70 <dhcp_recv+0xa8>
    200c:	f89b 300c 	ldrb.w	r3, [fp, #12]
    2010:	2b06      	cmp	r3, #6
    2012:	f47f adad 	bne.w	1b70 <dhcp_recv+0xa8>
    2016:	482e      	ldr	r0, [pc, #184]	; (20d0 <dhcp_recv+0x608>)
    2018:	47a8      	blx	r5
    201a:	f8ab 801a 	strh.w	r8, [fp, #26]
    201e:	f894 1038 	ldrb.w	r1, [r4, #56]	; 0x38
    2022:	f894 3037 	ldrb.w	r3, [r4, #55]	; 0x37
    2026:	6aa7      	ldr	r7, [r4, #40]	; 0x28
    2028:	f894 2036 	ldrb.w	r2, [r4, #54]	; 0x36
    202c:	4829      	ldr	r0, [pc, #164]	; (20d4 <dhcp_recv+0x60c>)
    202e:	9100      	str	r1, [sp, #0]
    2030:	4d15      	ldr	r5, [pc, #84]	; (2088 <dhcp_recv+0x5c0>)
    2032:	4621      	mov	r1, r4
    2034:	47a8      	blx	r5
    2036:	78b3      	ldrb	r3, [r6, #2]
    2038:	b17b      	cbz	r3, 205a <dhcp_recv+0x592>
    203a:	4b09      	ldr	r3, [pc, #36]	; (2060 <dhcp_recv+0x598>)
    203c:	f8d9 0008 	ldr.w	r0, [r9, #8]
    2040:	4798      	blx	r3
    2042:	4601      	mov	r1, r0
    2044:	6238      	str	r0, [r7, #32]
    2046:	4824      	ldr	r0, [pc, #144]	; (20d8 <dhcp_recv+0x610>)
    2048:	47a8      	blx	r5
    204a:	68bb      	ldr	r3, [r7, #8]
    204c:	4823      	ldr	r0, [pc, #140]	; (20dc <dhcp_recv+0x614>)
    204e:	6919      	ldr	r1, [r3, #16]
    2050:	6279      	str	r1, [r7, #36]	; 0x24
    2052:	47a8      	blx	r5
    2054:	4620      	mov	r0, r4
    2056:	4b22      	ldr	r3, [pc, #136]	; (20e0 <dhcp_recv+0x618>)
    2058:	e7d3      	b.n	2002 <dhcp_recv+0x53a>
    205a:	4621      	mov	r1, r4
    205c:	4821      	ldr	r0, [pc, #132]	; (20e4 <dhcp_recv+0x61c>)
    205e:	e577      	b.n	1b50 <dhcp_recv+0x88>
    2060:	000011f9 	.word	0x000011f9
    2064:	20008090 	.word	0x20008090
    2068:	000011fd 	.word	0x000011fd
    206c:	20008084 	.word	0x20008084
    2070:	00008595 	.word	0x00008595
    2074:	00009e0c 	.word	0x00009e0c
    2078:	00009e2f 	.word	0x00009e2f
    207c:	00009695 	.word	0x00009695
    2080:	00009d59 	.word	0x00009d59
    2084:	000096d7 	.word	0x000096d7
    2088:	00008485 	.word	0x00008485
    208c:	00009d25 	.word	0x00009d25
    2090:	00009d6c 	.word	0x00009d6c
    2094:	00009d82 	.word	0x00009d82
    2098:	00009d99 	.word	0x00009d99
    209c:	00009db9 	.word	0x00009db9
    20a0:	00009e59 	.word	0x00009e59
    20a4:	00001419 	.word	0x00001419
    20a8:	00001481 	.word	0x00001481
    20ac:	00009e6b 	.word	0x00009e6b
    20b0:	00009e7d 	.word	0x00009e7d
    20b4:	00003e01 	.word	0x00003e01
    20b8:	0000ac70 	.word	0x0000ac70
    20bc:	00003b5d 	.word	0x00003b5d
    20c0:	00003c01 	.word	0x00003c01
    20c4:	00003c39 	.word	0x00003c39
    20c8:	00001205 	.word	0x00001205
    20cc:	00001759 	.word	0x00001759
    20d0:	00009ea0 	.word	0x00009ea0
    20d4:	00009ecc 	.word	0x00009ecc
    20d8:	00009ef1 	.word	0x00009ef1
    20dc:	00009f15 	.word	0x00009f15
    20e0:	00001881 	.word	0x00001881
    20e4:	00009f3c 	.word	0x00009f3c
    20e8:	2933      	cmp	r1, #51	; 0x33
    20ea:	f43f ae0a 	beq.w	1d02 <dhcp_recv+0x23a>
    20ee:	d80c      	bhi.n	210a <dhcp_recv+0x642>
    20f0:	2901      	cmp	r1, #1
    20f2:	f43f add9 	beq.w	1ca8 <dhcp_recv+0x1e0>
    20f6:	f4ff ad9d 	bcc.w	1c34 <dhcp_recv+0x16c>
    20fa:	2903      	cmp	r1, #3
    20fc:	f43f adde 	beq.w	1cbc <dhcp_recv+0x1f4>
    2100:	2906      	cmp	r1, #6
    2102:	f43f ade3 	beq.w	1ccc <dhcp_recv+0x204>
    2106:	2200      	movs	r2, #0
    2108:	e6de      	b.n	1ec8 <dhcp_recv+0x400>
    210a:	2936      	cmp	r1, #54	; 0x36
    210c:	f43f ae0d 	beq.w	1d2a <dhcp_recv+0x262>
    2110:	d806      	bhi.n	2120 <dhcp_recv+0x658>
    2112:	2934      	cmp	r1, #52	; 0x34
    2114:	f43f adff 	beq.w	1d16 <dhcp_recv+0x24e>
    2118:	2935      	cmp	r1, #53	; 0x35
    211a:	f43f ad72 	beq.w	1c02 <dhcp_recv+0x13a>
    211e:	e7f2      	b.n	2106 <dhcp_recv+0x63e>
    2120:	293a      	cmp	r1, #58	; 0x3a
    2122:	f43f ae0c 	beq.w	1d3e <dhcp_recv+0x276>
    2126:	293b      	cmp	r1, #59	; 0x3b
    2128:	f43f ad7c 	beq.w	1c24 <dhcp_recv+0x15c>
    212c:	e7eb      	b.n	2106 <dhcp_recv+0x63e>
    212e:	bf00      	nop

00002130 <dhcp_arp_reply>:
    2130:	b5f7      	push	{r0, r1, r2, r4, r5, r6, r7, lr}
    2132:	460f      	mov	r7, r1
    2134:	4605      	mov	r5, r0
    2136:	b938      	cbnz	r0, 2148 <dhcp_arp_reply+0x18>
    2138:	4b2e      	ldr	r3, [pc, #184]	; (21f4 <dhcp_arp_reply+0xc4>)
    213a:	492f      	ldr	r1, [pc, #188]	; (21f8 <dhcp_arp_reply+0xc8>)
    213c:	482f      	ldr	r0, [pc, #188]	; (21fc <dhcp_arp_reply+0xcc>)
    213e:	4c30      	ldr	r4, [pc, #192]	; (2200 <dhcp_arp_reply+0xd0>)
    2140:	f240 3226 	movw	r2, #806	; 0x326
    2144:	47a0      	blx	r4
    2146:	e7fe      	b.n	2146 <dhcp_arp_reply+0x16>
    2148:	482e      	ldr	r0, [pc, #184]	; (2204 <dhcp_arp_reply+0xd4>)
    214a:	4e2f      	ldr	r6, [pc, #188]	; (2208 <dhcp_arp_reply+0xd8>)
    214c:	47b0      	blx	r6
    214e:	6aab      	ldr	r3, [r5, #40]	; 0x28
    2150:	2b00      	cmp	r3, #0
    2152:	d04c      	beq.n	21ee <dhcp_arp_reply+0xbe>
    2154:	7b1b      	ldrb	r3, [r3, #12]
    2156:	2b08      	cmp	r3, #8
    2158:	d149      	bne.n	21ee <dhcp_arp_reply+0xbe>
    215a:	6839      	ldr	r1, [r7, #0]
    215c:	4c28      	ldr	r4, [pc, #160]	; (2200 <dhcp_arp_reply+0xd0>)
    215e:	482b      	ldr	r0, [pc, #172]	; (220c <dhcp_arp_reply+0xdc>)
    2160:	47a0      	blx	r4
    2162:	6aab      	ldr	r3, [r5, #40]	; 0x28
    2164:	683a      	ldr	r2, [r7, #0]
    2166:	6a5b      	ldr	r3, [r3, #36]	; 0x24
    2168:	429a      	cmp	r2, r3
    216a:	4627      	mov	r7, r4
    216c:	d13f      	bne.n	21ee <dhcp_arp_reply+0xbe>
    216e:	4828      	ldr	r0, [pc, #160]	; (2210 <dhcp_arp_reply+0xe0>)
    2170:	47b0      	blx	r6
    2172:	6aac      	ldr	r4, [r5, #40]	; 0x28
    2174:	4827      	ldr	r0, [pc, #156]	; (2214 <dhcp_arp_reply+0xe4>)
    2176:	47b0      	blx	r6
    2178:	210c      	movs	r1, #12
    217a:	4620      	mov	r0, r4
    217c:	4b26      	ldr	r3, [pc, #152]	; (2218 <dhcp_arp_reply+0xe8>)
    217e:	4798      	blx	r3
    2180:	2204      	movs	r2, #4
    2182:	4621      	mov	r1, r4
    2184:	4628      	mov	r0, r5
    2186:	4b25      	ldr	r3, [pc, #148]	; (221c <dhcp_arp_reply+0xec>)
    2188:	4798      	blx	r3
    218a:	2800      	cmp	r0, #0
    218c:	d12d      	bne.n	21ea <dhcp_arp_reply+0xba>
    218e:	2204      	movs	r2, #4
    2190:	2132      	movs	r1, #50	; 0x32
    2192:	4620      	mov	r0, r4
    2194:	4b22      	ldr	r3, [pc, #136]	; (2220 <dhcp_arp_reply+0xf0>)
    2196:	4798      	blx	r3
    2198:	4b22      	ldr	r3, [pc, #136]	; (2224 <dhcp_arp_reply+0xf4>)
    219a:	6a60      	ldr	r0, [r4, #36]	; 0x24
    219c:	4798      	blx	r3
    219e:	4b22      	ldr	r3, [pc, #136]	; (2228 <dhcp_arp_reply+0xf8>)
    21a0:	4601      	mov	r1, r0
    21a2:	4620      	mov	r0, r4
    21a4:	4798      	blx	r3
    21a6:	4620      	mov	r0, r4
    21a8:	4b20      	ldr	r3, [pc, #128]	; (222c <dhcp_arp_reply+0xfc>)
    21aa:	4798      	blx	r3
    21ac:	8b21      	ldrh	r1, [r4, #24]
    21ae:	6920      	ldr	r0, [r4, #16]
    21b0:	4b1f      	ldr	r3, [pc, #124]	; (2230 <dhcp_arp_reply+0x100>)
    21b2:	31f0      	adds	r1, #240	; 0xf0
    21b4:	b289      	uxth	r1, r1
    21b6:	4798      	blx	r3
    21b8:	9500      	str	r5, [sp, #0]
    21ba:	2343      	movs	r3, #67	; 0x43
    21bc:	4a1d      	ldr	r2, [pc, #116]	; (2234 <dhcp_arp_reply+0x104>)
    21be:	6921      	ldr	r1, [r4, #16]
    21c0:	6860      	ldr	r0, [r4, #4]
    21c2:	4d1d      	ldr	r5, [pc, #116]	; (2238 <dhcp_arp_reply+0x108>)
    21c4:	47a8      	blx	r5
    21c6:	4620      	mov	r0, r4
    21c8:	4b1c      	ldr	r3, [pc, #112]	; (223c <dhcp_arp_reply+0x10c>)
    21ca:	4798      	blx	r3
    21cc:	481c      	ldr	r0, [pc, #112]	; (2240 <dhcp_arp_reply+0x110>)
    21ce:	47b0      	blx	r6
    21d0:	7b63      	ldrb	r3, [r4, #13]
    21d2:	481c      	ldr	r0, [pc, #112]	; (2244 <dhcp_arp_reply+0x114>)
    21d4:	3301      	adds	r3, #1
    21d6:	7363      	strb	r3, [r4, #13]
    21d8:	2314      	movs	r3, #20
    21da:	8363      	strh	r3, [r4, #26]
    21dc:	f242 7110 	movw	r1, #10000	; 0x2710
    21e0:	463b      	mov	r3, r7
    21e2:	b003      	add	sp, #12
    21e4:	e8bd 40f0 	ldmia.w	sp!, {r4, r5, r6, r7, lr}
    21e8:	4718      	bx	r3
    21ea:	4817      	ldr	r0, [pc, #92]	; (2248 <dhcp_arp_reply+0x118>)
    21ec:	e7ef      	b.n	21ce <dhcp_arp_reply+0x9e>
    21ee:	b003      	add	sp, #12
    21f0:	bdf0      	pop	{r4, r5, r6, r7, pc}
    21f2:	bf00      	nop
    21f4:	00009695 	.word	0x00009695
    21f8:	000097db 	.word	0x000097db
    21fc:	000096d7 	.word	0x000096d7
    2200:	00008485 	.word	0x00008485
    2204:	00009ffb 	.word	0x00009ffb
    2208:	00008595 	.word	0x00008595
    220c:	0000a00c 	.word	0x0000a00c
    2210:	0000a03e 	.word	0x0000a03e
    2214:	0000a082 	.word	0x0000a082
    2218:	00001205 	.word	0x00001205
    221c:	00001299 	.word	0x00001299
    2220:	00001215 	.word	0x00001215
    2224:	000011fd 	.word	0x000011fd
    2228:	00001261 	.word	0x00001261
    222c:	000015f9 	.word	0x000015f9
    2230:	000041b1 	.word	0x000041b1
    2234:	0000ac6c 	.word	0x0000ac6c
    2238:	000071b1 	.word	0x000071b1
    223c:	00001645 	.word	0x00001645
    2240:	0000a091 	.word	0x0000a091
    2244:	0000a0d9 	.word	0x0000a0d9
    2248:	0000a0ab 	.word	0x0000a0ab

0000224c <dhcp_renew>:
    224c:	b5f7      	push	{r0, r1, r2, r4, r5, r6, r7, lr}
    224e:	6a84      	ldr	r4, [r0, #40]	; 0x28
    2250:	4f26      	ldr	r7, [pc, #152]	; (22ec <dhcp_renew+0xa0>)
    2252:	4606      	mov	r6, r0
    2254:	4826      	ldr	r0, [pc, #152]	; (22f0 <dhcp_renew+0xa4>)
    2256:	47b8      	blx	r7
    2258:	2105      	movs	r1, #5
    225a:	4620      	mov	r0, r4
    225c:	4b25      	ldr	r3, [pc, #148]	; (22f4 <dhcp_renew+0xa8>)
    225e:	4798      	blx	r3
    2260:	2203      	movs	r2, #3
    2262:	4621      	mov	r1, r4
    2264:	4630      	mov	r0, r6
    2266:	4b24      	ldr	r3, [pc, #144]	; (22f8 <dhcp_renew+0xac>)
    2268:	4798      	blx	r3
    226a:	4605      	mov	r5, r0
    226c:	2800      	cmp	r0, #0
    226e:	d13a      	bne.n	22e6 <dhcp_renew+0x9a>
    2270:	2202      	movs	r2, #2
    2272:	2139      	movs	r1, #57	; 0x39
    2274:	4620      	mov	r0, r4
    2276:	4b21      	ldr	r3, [pc, #132]	; (22fc <dhcp_renew+0xb0>)
    2278:	4798      	blx	r3
    227a:	8db1      	ldrh	r1, [r6, #44]	; 0x2c
    227c:	4b20      	ldr	r3, [pc, #128]	; (2300 <dhcp_renew+0xb4>)
    227e:	4620      	mov	r0, r4
    2280:	4798      	blx	r3
    2282:	4620      	mov	r0, r4
    2284:	4b1f      	ldr	r3, [pc, #124]	; (2304 <dhcp_renew+0xb8>)
    2286:	4798      	blx	r3
    2288:	8b21      	ldrh	r1, [r4, #24]
    228a:	6920      	ldr	r0, [r4, #16]
    228c:	4b1e      	ldr	r3, [pc, #120]	; (2308 <dhcp_renew+0xbc>)
    228e:	31f0      	adds	r1, #240	; 0xf0
    2290:	b289      	uxth	r1, r1
    2292:	4798      	blx	r3
    2294:	9600      	str	r6, [sp, #0]
    2296:	2343      	movs	r3, #67	; 0x43
    2298:	f104 0220 	add.w	r2, r4, #32
    229c:	6921      	ldr	r1, [r4, #16]
    229e:	6860      	ldr	r0, [r4, #4]
    22a0:	4e1a      	ldr	r6, [pc, #104]	; (230c <dhcp_renew+0xc0>)
    22a2:	47b0      	blx	r6
    22a4:	4620      	mov	r0, r4
    22a6:	4b1a      	ldr	r3, [pc, #104]	; (2310 <dhcp_renew+0xc4>)
    22a8:	4798      	blx	r3
    22aa:	481a      	ldr	r0, [pc, #104]	; (2314 <dhcp_renew+0xc8>)
    22ac:	47b8      	blx	r7
    22ae:	7b61      	ldrb	r1, [r4, #13]
    22b0:	4819      	ldr	r0, [pc, #100]	; (2318 <dhcp_renew+0xcc>)
    22b2:	3101      	adds	r1, #1
    22b4:	b2c9      	uxtb	r1, r1
    22b6:	2909      	cmp	r1, #9
    22b8:	bf98      	it	ls
    22ba:	ebc1 1341 	rsbls	r3, r1, r1, lsl #5
    22be:	7361      	strb	r1, [r4, #13]
    22c0:	bf9d      	ittte	ls
    22c2:	eb01 0183 	addls.w	r1, r1, r3, lsl #2
    22c6:	0109      	lslls	r1, r1, #4
    22c8:	b289      	uxthls	r1, r1
    22ca:	f644 6120 	movwhi	r1, #20000	; 0x4e20
    22ce:	f201 13f3 	addw	r3, r1, #499	; 0x1f3
    22d2:	f44f 72fa 	mov.w	r2, #500	; 0x1f4
    22d6:	fb93 f3f2 	sdiv	r3, r3, r2
    22da:	8363      	strh	r3, [r4, #26]
    22dc:	4b0f      	ldr	r3, [pc, #60]	; (231c <dhcp_renew+0xd0>)
    22de:	4798      	blx	r3
    22e0:	4628      	mov	r0, r5
    22e2:	b003      	add	sp, #12
    22e4:	bdf0      	pop	{r4, r5, r6, r7, pc}
    22e6:	480e      	ldr	r0, [pc, #56]	; (2320 <dhcp_renew+0xd4>)
    22e8:	e7e0      	b.n	22ac <dhcp_renew+0x60>
    22ea:	bf00      	nop
    22ec:	00008595 	.word	0x00008595
    22f0:	0000a108 	.word	0x0000a108
    22f4:	00001205 	.word	0x00001205
    22f8:	00001299 	.word	0x00001299
    22fc:	00001215 	.word	0x00001215
    2300:	00001243 	.word	0x00001243
    2304:	000015f9 	.word	0x000015f9
    2308:	000041b1 	.word	0x000041b1
    230c:	000071b1 	.word	0x000071b1
    2310:	00001645 	.word	0x00001645
    2314:	0000a115 	.word	0x0000a115
    2318:	0000a156 	.word	0x0000a156
    231c:	00008485 	.word	0x00008485
    2320:	0000a12a 	.word	0x0000a12a

00002324 <dhcp_coarse_tmr>:
    2324:	e92d 43f8 	stmdb	sp!, {r3, r4, r5, r6, r7, r8, r9, lr}
    2328:	4b1f      	ldr	r3, [pc, #124]	; (23a8 <dhcp_coarse_tmr+0x84>)
    232a:	4820      	ldr	r0, [pc, #128]	; (23ac <dhcp_coarse_tmr+0x88>)
    232c:	4c20      	ldr	r4, [pc, #128]	; (23b0 <dhcp_coarse_tmr+0x8c>)
    232e:	681d      	ldr	r5, [r3, #0]
    2330:	4e20      	ldr	r6, [pc, #128]	; (23b4 <dhcp_coarse_tmr+0x90>)
    2332:	4f21      	ldr	r7, [pc, #132]	; (23b8 <dhcp_coarse_tmr+0x94>)
    2334:	f8df 8098 	ldr.w	r8, [pc, #152]	; 23d0 <dhcp_coarse_tmr+0xac>
    2338:	47a0      	blx	r4
    233a:	b90d      	cbnz	r5, 2340 <dhcp_coarse_tmr+0x1c>
    233c:	e8bd 83f8 	ldmia.w	sp!, {r3, r4, r5, r6, r7, r8, r9, pc}
    2340:	6aab      	ldr	r3, [r5, #40]	; 0x28
    2342:	b1bb      	cbz	r3, 2374 <dhcp_coarse_tmr+0x50>
    2344:	8bda      	ldrh	r2, [r3, #30]
    2346:	1e51      	subs	r1, r2, #1
    2348:	2a01      	cmp	r2, #1
    234a:	83d9      	strh	r1, [r3, #30]
    234c:	d114      	bne.n	2378 <dhcp_coarse_tmr+0x54>
    234e:	481b      	ldr	r0, [pc, #108]	; (23bc <dhcp_coarse_tmr+0x98>)
    2350:	47a0      	blx	r4
    2352:	f8d5 9028 	ldr.w	r9, [r5, #40]	; 0x28
    2356:	481a      	ldr	r0, [pc, #104]	; (23c0 <dhcp_coarse_tmr+0x9c>)
    2358:	47a0      	blx	r4
    235a:	f899 300c 	ldrb.w	r3, [r9, #12]
    235e:	f003 02fb 	and.w	r2, r3, #251	; 0xfb
    2362:	2a01      	cmp	r2, #1
    2364:	d001      	beq.n	236a <dhcp_coarse_tmr+0x46>
    2366:	2b0a      	cmp	r3, #10
    2368:	d104      	bne.n	2374 <dhcp_coarse_tmr+0x50>
    236a:	4816      	ldr	r0, [pc, #88]	; (23c4 <dhcp_coarse_tmr+0xa0>)
    236c:	47a0      	blx	r4
    236e:	4b16      	ldr	r3, [pc, #88]	; (23c8 <dhcp_coarse_tmr+0xa4>)
    2370:	4628      	mov	r0, r5
    2372:	4798      	blx	r3
    2374:	682d      	ldr	r5, [r5, #0]
    2376:	e7e0      	b.n	233a <dhcp_coarse_tmr+0x16>
    2378:	8b9a      	ldrh	r2, [r3, #28]
    237a:	1e51      	subs	r1, r2, #1
    237c:	2a01      	cmp	r2, #1
    237e:	8399      	strh	r1, [r3, #28]
    2380:	d1f8      	bne.n	2374 <dhcp_coarse_tmr+0x50>
    2382:	4630      	mov	r0, r6
    2384:	47a0      	blx	r4
    2386:	f8d5 9028 	ldr.w	r9, [r5, #40]	; 0x28
    238a:	4638      	mov	r0, r7
    238c:	47a0      	blx	r4
    238e:	f899 300c 	ldrb.w	r3, [r9, #12]
    2392:	f003 02fb 	and.w	r2, r3, #251	; 0xfb
    2396:	2a01      	cmp	r2, #1
    2398:	d001      	beq.n	239e <dhcp_coarse_tmr+0x7a>
    239a:	2b0a      	cmp	r3, #10
    239c:	d1ea      	bne.n	2374 <dhcp_coarse_tmr+0x50>
    239e:	4640      	mov	r0, r8
    23a0:	47a0      	blx	r4
    23a2:	4628      	mov	r0, r5
    23a4:	4b09      	ldr	r3, [pc, #36]	; (23cc <dhcp_coarse_tmr+0xa8>)
    23a6:	e7e4      	b.n	2372 <dhcp_coarse_tmr+0x4e>
    23a8:	2000907c 	.word	0x2000907c
    23ac:	0000a183 	.word	0x0000a183
    23b0:	00008595 	.word	0x00008595
    23b4:	0000a1e4 	.word	0x0000a1e4
    23b8:	0000a202 	.word	0x0000a202
    23bc:	0000a195 	.word	0x0000a195
    23c0:	0000a1b3 	.word	0x0000a1b3
    23c4:	0000a1c5 	.word	0x0000a1c5
    23c8:	00001681 	.word	0x00001681
    23cc:	0000224d 	.word	0x0000224d
    23d0:	0000a214 	.word	0x0000a214

000023d4 <dhcp_release>:
    23d4:	e92d 41f3 	stmdb	sp!, {r0, r1, r4, r5, r6, r7, r8, lr}
    23d8:	6a84      	ldr	r4, [r0, #40]	; 0x28
    23da:	4f2e      	ldr	r7, [pc, #184]	; (2494 <dhcp_release+0xc0>)
    23dc:	4605      	mov	r5, r0
    23de:	482e      	ldr	r0, [pc, #184]	; (2498 <dhcp_release+0xc4>)
    23e0:	47b8      	blx	r7
    23e2:	2100      	movs	r1, #0
    23e4:	4620      	mov	r0, r4
    23e6:	4b2d      	ldr	r3, [pc, #180]	; (249c <dhcp_release+0xc8>)
    23e8:	4798      	blx	r3
    23ea:	2300      	movs	r3, #0
    23ec:	6223      	str	r3, [r4, #32]
    23ee:	6263      	str	r3, [r4, #36]	; 0x24
    23f0:	62a3      	str	r3, [r4, #40]	; 0x28
    23f2:	62e3      	str	r3, [r4, #44]	; 0x2c
    23f4:	63a3      	str	r3, [r4, #56]	; 0x38
    23f6:	6363      	str	r3, [r4, #52]	; 0x34
    23f8:	6323      	str	r3, [r4, #48]	; 0x30
    23fa:	2207      	movs	r2, #7
    23fc:	4621      	mov	r1, r4
    23fe:	4628      	mov	r0, r5
    2400:	4b27      	ldr	r3, [pc, #156]	; (24a0 <dhcp_release+0xcc>)
    2402:	4798      	blx	r3
    2404:	4606      	mov	r6, r0
    2406:	2800      	cmp	r0, #0
    2408:	d142      	bne.n	2490 <dhcp_release+0xbc>
    240a:	4620      	mov	r0, r4
    240c:	4b25      	ldr	r3, [pc, #148]	; (24a4 <dhcp_release+0xd0>)
    240e:	f8df 80c4 	ldr.w	r8, [pc, #196]	; 24d4 <dhcp_release+0x100>
    2412:	4798      	blx	r3
    2414:	8b21      	ldrh	r1, [r4, #24]
    2416:	6920      	ldr	r0, [r4, #16]
    2418:	4b23      	ldr	r3, [pc, #140]	; (24a8 <dhcp_release+0xd4>)
    241a:	31f0      	adds	r1, #240	; 0xf0
    241c:	b289      	uxth	r1, r1
    241e:	4798      	blx	r3
    2420:	9500      	str	r5, [sp, #0]
    2422:	2343      	movs	r3, #67	; 0x43
    2424:	f104 0220 	add.w	r2, r4, #32
    2428:	6921      	ldr	r1, [r4, #16]
    242a:	6860      	ldr	r0, [r4, #4]
    242c:	47c0      	blx	r8
    242e:	4620      	mov	r0, r4
    2430:	4b1e      	ldr	r3, [pc, #120]	; (24ac <dhcp_release+0xd8>)
    2432:	4798      	blx	r3
    2434:	481e      	ldr	r0, [pc, #120]	; (24b0 <dhcp_release+0xdc>)
    2436:	47b8      	blx	r7
    2438:	7b61      	ldrb	r1, [r4, #13]
    243a:	481e      	ldr	r0, [pc, #120]	; (24b4 <dhcp_release+0xe0>)
    243c:	3101      	adds	r1, #1
    243e:	b2c9      	uxtb	r1, r1
    2440:	2909      	cmp	r1, #9
    2442:	bf98      	it	ls
    2444:	ebc1 1341 	rsbls	r3, r1, r1, lsl #5
    2448:	7361      	strb	r1, [r4, #13]
    244a:	bf9d      	ittte	ls
    244c:	eb01 0183 	addls.w	r1, r1, r3, lsl #2
    2450:	00c9      	lslls	r1, r1, #3
    2452:	b289      	uxthls	r1, r1
    2454:	f242 7110 	movwhi	r1, #10000	; 0x2710
    2458:	f44f 72fa 	mov.w	r2, #500	; 0x1f4
    245c:	f201 13f3 	addw	r3, r1, #499	; 0x1f3
    2460:	fb93 f3f2 	sdiv	r3, r3, r2
    2464:	8363      	strh	r3, [r4, #26]
    2466:	4b14      	ldr	r3, [pc, #80]	; (24b8 <dhcp_release+0xe4>)
    2468:	4798      	blx	r3
    246a:	4628      	mov	r0, r5
    246c:	4b13      	ldr	r3, [pc, #76]	; (24bc <dhcp_release+0xe8>)
    246e:	4798      	blx	r3
    2470:	4628      	mov	r0, r5
    2472:	4913      	ldr	r1, [pc, #76]	; (24c0 <dhcp_release+0xec>)
    2474:	4b13      	ldr	r3, [pc, #76]	; (24c4 <dhcp_release+0xf0>)
    2476:	4798      	blx	r3
    2478:	4628      	mov	r0, r5
    247a:	4911      	ldr	r1, [pc, #68]	; (24c0 <dhcp_release+0xec>)
    247c:	4b12      	ldr	r3, [pc, #72]	; (24c8 <dhcp_release+0xf4>)
    247e:	4798      	blx	r3
    2480:	4628      	mov	r0, r5
    2482:	490f      	ldr	r1, [pc, #60]	; (24c0 <dhcp_release+0xec>)
    2484:	4b11      	ldr	r3, [pc, #68]	; (24cc <dhcp_release+0xf8>)
    2486:	4798      	blx	r3
    2488:	4630      	mov	r0, r6
    248a:	b002      	add	sp, #8
    248c:	e8bd 81f0 	ldmia.w	sp!, {r4, r5, r6, r7, r8, pc}
    2490:	480f      	ldr	r0, [pc, #60]	; (24d0 <dhcp_release+0xfc>)
    2492:	e7d0      	b.n	2436 <dhcp_release+0x62>
    2494:	00008595 	.word	0x00008595
    2498:	0000a232 	.word	0x0000a232
    249c:	00001205 	.word	0x00001205
    24a0:	00001299 	.word	0x00001299
    24a4:	000015f9 	.word	0x000015f9
    24a8:	000041b1 	.word	0x000041b1
    24ac:	00001645 	.word	0x00001645
    24b0:	0000a241 	.word	0x0000a241
    24b4:	0000a290 	.word	0x0000a290
    24b8:	00008485 	.word	0x00008485
    24bc:	00003e01 	.word	0x00003e01
    24c0:	0000ac70 	.word	0x0000ac70
    24c4:	00003b5d 	.word	0x00003b5d
    24c8:	00003c01 	.word	0x00003c01
    24cc:	00003c39 	.word	0x00003c39
    24d0:	0000a262 	.word	0x0000a262
    24d4:	000071b1 	.word	0x000071b1

000024d8 <dhcp_fine_tmr>:
    24d8:	b5f8      	push	{r3, r4, r5, r6, r7, lr}
    24da:	4b2c      	ldr	r3, [pc, #176]	; (258c <dhcp_fine_tmr+0xb4>)
    24dc:	4f2c      	ldr	r7, [pc, #176]	; (2590 <dhcp_fine_tmr+0xb8>)
    24de:	681c      	ldr	r4, [r3, #0]
    24e0:	4d2c      	ldr	r5, [pc, #176]	; (2594 <dhcp_fine_tmr+0xbc>)
    24e2:	b904      	cbnz	r4, 24e6 <dhcp_fine_tmr+0xe>
    24e4:	bdf8      	pop	{r3, r4, r5, r6, r7, pc}
    24e6:	6aa3      	ldr	r3, [r4, #40]	; 0x28
    24e8:	b123      	cbz	r3, 24f4 <dhcp_fine_tmr+0x1c>
    24ea:	8b5a      	ldrh	r2, [r3, #26]
    24ec:	2a01      	cmp	r2, #1
    24ee:	d903      	bls.n	24f8 <dhcp_fine_tmr+0x20>
    24f0:	3a01      	subs	r2, #1
    24f2:	835a      	strh	r2, [r3, #26]
    24f4:	6824      	ldr	r4, [r4, #0]
    24f6:	e7f4      	b.n	24e2 <dhcp_fine_tmr+0xa>
    24f8:	d1fc      	bne.n	24f4 <dhcp_fine_tmr+0x1c>
    24fa:	2200      	movs	r2, #0
    24fc:	835a      	strh	r2, [r3, #26]
    24fe:	4638      	mov	r0, r7
    2500:	47a8      	blx	r5
    2502:	6aa6      	ldr	r6, [r4, #40]	; 0x28
    2504:	4824      	ldr	r0, [pc, #144]	; (2598 <dhcp_fine_tmr+0xc0>)
    2506:	47a8      	blx	r5
    2508:	7b33      	ldrb	r3, [r6, #12]
    250a:	2b0c      	cmp	r3, #12
    250c:	d001      	beq.n	2512 <dhcp_fine_tmr+0x3a>
    250e:	2b06      	cmp	r3, #6
    2510:	d104      	bne.n	251c <dhcp_fine_tmr+0x44>
    2512:	4822      	ldr	r0, [pc, #136]	; (259c <dhcp_fine_tmr+0xc4>)
    2514:	47a8      	blx	r5
    2516:	4620      	mov	r0, r4
    2518:	4b21      	ldr	r3, [pc, #132]	; (25a0 <dhcp_fine_tmr+0xc8>)
    251a:	e008      	b.n	252e <dhcp_fine_tmr+0x56>
    251c:	2b01      	cmp	r3, #1
    251e:	d10e      	bne.n	253e <dhcp_fine_tmr+0x66>
    2520:	4820      	ldr	r0, [pc, #128]	; (25a4 <dhcp_fine_tmr+0xcc>)
    2522:	47a8      	blx	r5
    2524:	7b73      	ldrb	r3, [r6, #13]
    2526:	2b05      	cmp	r3, #5
    2528:	d803      	bhi.n	2532 <dhcp_fine_tmr+0x5a>
    252a:	4b1f      	ldr	r3, [pc, #124]	; (25a8 <dhcp_fine_tmr+0xd0>)
    252c:	4620      	mov	r0, r4
    252e:	4798      	blx	r3
    2530:	e7e0      	b.n	24f4 <dhcp_fine_tmr+0x1c>
    2532:	481e      	ldr	r0, [pc, #120]	; (25ac <dhcp_fine_tmr+0xd4>)
    2534:	47a8      	blx	r5
    2536:	4620      	mov	r0, r4
    2538:	4b1d      	ldr	r3, [pc, #116]	; (25b0 <dhcp_fine_tmr+0xd8>)
    253a:	4798      	blx	r3
    253c:	e7eb      	b.n	2516 <dhcp_fine_tmr+0x3e>
    253e:	2b08      	cmp	r3, #8
    2540:	d109      	bne.n	2556 <dhcp_fine_tmr+0x7e>
    2542:	481c      	ldr	r0, [pc, #112]	; (25b4 <dhcp_fine_tmr+0xdc>)
    2544:	47a8      	blx	r5
    2546:	7b73      	ldrb	r3, [r6, #13]
    2548:	2b01      	cmp	r3, #1
    254a:	4620      	mov	r0, r4
    254c:	bf94      	ite	ls
    254e:	4b1a      	ldrls	r3, [pc, #104]	; (25b8 <dhcp_fine_tmr+0xe0>)
    2550:	4b1a      	ldrhi	r3, [pc, #104]	; (25bc <dhcp_fine_tmr+0xe4>)
    2552:	4798      	blx	r3
    2554:	e7ce      	b.n	24f4 <dhcp_fine_tmr+0x1c>
    2556:	2b05      	cmp	r3, #5
    2558:	d104      	bne.n	2564 <dhcp_fine_tmr+0x8c>
    255a:	4819      	ldr	r0, [pc, #100]	; (25c0 <dhcp_fine_tmr+0xe8>)
    255c:	47a8      	blx	r5
    255e:	4620      	mov	r0, r4
    2560:	4b18      	ldr	r3, [pc, #96]	; (25c4 <dhcp_fine_tmr+0xec>)
    2562:	e7e4      	b.n	252e <dhcp_fine_tmr+0x56>
    2564:	2b04      	cmp	r3, #4
    2566:	d109      	bne.n	257c <dhcp_fine_tmr+0xa4>
    2568:	4817      	ldr	r0, [pc, #92]	; (25c8 <dhcp_fine_tmr+0xf0>)
    256a:	47a8      	blx	r5
    256c:	7b73      	ldrb	r3, [r6, #13]
    256e:	2b08      	cmp	r3, #8
    2570:	d802      	bhi.n	2578 <dhcp_fine_tmr+0xa0>
    2572:	4620      	mov	r0, r4
    2574:	4b15      	ldr	r3, [pc, #84]	; (25cc <dhcp_fine_tmr+0xf4>)
    2576:	e7da      	b.n	252e <dhcp_fine_tmr+0x56>
    2578:	4815      	ldr	r0, [pc, #84]	; (25d0 <dhcp_fine_tmr+0xf8>)
    257a:	e7db      	b.n	2534 <dhcp_fine_tmr+0x5c>
    257c:	2b03      	cmp	r3, #3
    257e:	d1b9      	bne.n	24f4 <dhcp_fine_tmr+0x1c>
    2580:	7b73      	ldrb	r3, [r6, #13]
    2582:	2b01      	cmp	r3, #1
    2584:	4620      	mov	r0, r4
    2586:	d8c7      	bhi.n	2518 <dhcp_fine_tmr+0x40>
    2588:	4b12      	ldr	r3, [pc, #72]	; (25d4 <dhcp_fine_tmr+0xfc>)
    258a:	e7d0      	b.n	252e <dhcp_fine_tmr+0x56>
    258c:	2000907c 	.word	0x2000907c
    2590:	0000a2bf 	.word	0x0000a2bf
    2594:	00008595 	.word	0x00008595
    2598:	0000a2e0 	.word	0x0000a2e0
    259c:	0000a2ef 	.word	0x0000a2ef
    25a0:	00001759 	.word	0x00001759
    25a4:	0000a314 	.word	0x0000a314
    25a8:	00001881 	.word	0x00001881
    25ac:	0000a347 	.word	0x0000a347
    25b0:	000023d5 	.word	0x000023d5
    25b4:	0000a379 	.word	0x0000a379
    25b8:	00001419 	.word	0x00001419
    25bc:	00001481 	.word	0x00001481
    25c0:	0000a3a9 	.word	0x0000a3a9
    25c4:	0000224d 	.word	0x0000224d
    25c8:	0000a3da 	.word	0x0000a3da
    25cc:	00001681 	.word	0x00001681
    25d0:	0000a40c 	.word	0x0000a40c
    25d4:	000019c9 	.word	0x000019c9

000025d8 <dhcp_stop>:
    25d8:	b510      	push	{r4, lr}
    25da:	b938      	cbnz	r0, 25ec <dhcp_stop+0x14>
    25dc:	4b0f      	ldr	r3, [pc, #60]	; (261c <dhcp_stop+0x44>)
    25de:	4910      	ldr	r1, [pc, #64]	; (2620 <dhcp_stop+0x48>)
    25e0:	4810      	ldr	r0, [pc, #64]	; (2624 <dhcp_stop+0x4c>)
    25e2:	4c11      	ldr	r4, [pc, #68]	; (2628 <dhcp_stop+0x50>)
    25e4:	f240 42cc 	movw	r2, #1228	; 0x4cc
    25e8:	47a0      	blx	r4
    25ea:	e7fe      	b.n	25ea <dhcp_stop+0x12>
    25ec:	f890 3035 	ldrb.w	r3, [r0, #53]	; 0x35
    25f0:	6a84      	ldr	r4, [r0, #40]	; 0x28
    25f2:	f023 0308 	bic.w	r3, r3, #8
    25f6:	f880 3035 	strb.w	r3, [r0, #53]	; 0x35
    25fa:	480c      	ldr	r0, [pc, #48]	; (262c <dhcp_stop+0x54>)
    25fc:	4b0c      	ldr	r3, [pc, #48]	; (2630 <dhcp_stop+0x58>)
    25fe:	4798      	blx	r3
    2600:	b15c      	cbz	r4, 261a <dhcp_stop+0x42>
    2602:	6860      	ldr	r0, [r4, #4]
    2604:	b118      	cbz	r0, 260e <dhcp_stop+0x36>
    2606:	4b0b      	ldr	r3, [pc, #44]	; (2634 <dhcp_stop+0x5c>)
    2608:	4798      	blx	r3
    260a:	2300      	movs	r3, #0
    260c:	6063      	str	r3, [r4, #4]
    260e:	4620      	mov	r0, r4
    2610:	2100      	movs	r1, #0
    2612:	4b09      	ldr	r3, [pc, #36]	; (2638 <dhcp_stop+0x60>)
    2614:	e8bd 4010 	ldmia.w	sp!, {r4, lr}
    2618:	4718      	bx	r3
    261a:	bd10      	pop	{r4, pc}
    261c:	00009695 	.word	0x00009695
    2620:	0000a433 	.word	0x0000a433
    2624:	000096d7 	.word	0x000096d7
    2628:	00008485 	.word	0x00008485
    262c:	0000a44c 	.word	0x0000a44c
    2630:	00008595 	.word	0x00008595
    2634:	000073a9 	.word	0x000073a9
    2638:	00001205 	.word	0x00001205

0000263c <dhcp_start>:
    263c:	b5f7      	push	{r0, r1, r2, r4, r5, r6, r7, lr}
    263e:	4604      	mov	r4, r0
    2640:	4f37      	ldr	r7, [pc, #220]	; (2720 <dhcp_start+0xe4>)
    2642:	b930      	cbnz	r0, 2652 <dhcp_start+0x16>
    2644:	4b37      	ldr	r3, [pc, #220]	; (2724 <dhcp_start+0xe8>)
    2646:	4938      	ldr	r1, [pc, #224]	; (2728 <dhcp_start+0xec>)
    2648:	4838      	ldr	r0, [pc, #224]	; (272c <dhcp_start+0xf0>)
    264a:	f240 227a 	movw	r2, #634	; 0x27a
    264e:	47b8      	blx	r7
    2650:	e7fe      	b.n	2650 <dhcp_start+0x14>
    2652:	f890 1038 	ldrb.w	r1, [r0, #56]	; 0x38
    2656:	f890 3037 	ldrb.w	r3, [r0, #55]	; 0x37
    265a:	f890 2036 	ldrb.w	r2, [r0, #54]	; 0x36
    265e:	6a85      	ldr	r5, [r0, #40]	; 0x28
    2660:	9100      	str	r1, [sp, #0]
    2662:	4601      	mov	r1, r0
    2664:	4832      	ldr	r0, [pc, #200]	; (2730 <dhcp_start+0xf4>)
    2666:	4e33      	ldr	r6, [pc, #204]	; (2734 <dhcp_start+0xf8>)
    2668:	47b8      	blx	r7
    266a:	f894 3035 	ldrb.w	r3, [r4, #53]	; 0x35
    266e:	f023 0208 	bic.w	r2, r3, #8
    2672:	f013 0f20 	tst.w	r3, #32
    2676:	f884 2035 	strb.w	r2, [r4, #53]	; 0x35
    267a:	d105      	bne.n	2688 <dhcp_start+0x4c>
    267c:	482e      	ldr	r0, [pc, #184]	; (2738 <dhcp_start+0xfc>)
    267e:	47b0      	blx	r6
    2680:	f06f 000d 	mvn.w	r0, #13
    2684:	b003      	add	sp, #12
    2686:	bdf0      	pop	{r4, r5, r6, r7, pc}
    2688:	8da3      	ldrh	r3, [r4, #44]	; 0x2c
    268a:	f5b3 7f10 	cmp.w	r3, #576	; 0x240
    268e:	d204      	bcs.n	269a <dhcp_start+0x5e>
    2690:	482a      	ldr	r0, [pc, #168]	; (273c <dhcp_start+0x100>)
    2692:	47b0      	blx	r6
    2694:	f04f 30ff 	mov.w	r0, #4294967295
    2698:	e7f4      	b.n	2684 <dhcp_start+0x48>
    269a:	b9b5      	cbnz	r5, 26ca <dhcp_start+0x8e>
    269c:	4828      	ldr	r0, [pc, #160]	; (2740 <dhcp_start+0x104>)
    269e:	47b0      	blx	r6
    26a0:	203c      	movs	r0, #60	; 0x3c
    26a2:	4b28      	ldr	r3, [pc, #160]	; (2744 <dhcp_start+0x108>)
    26a4:	4798      	blx	r3
    26a6:	4605      	mov	r5, r0
    26a8:	b908      	cbnz	r0, 26ae <dhcp_start+0x72>
    26aa:	4827      	ldr	r0, [pc, #156]	; (2748 <dhcp_start+0x10c>)
    26ac:	e7f1      	b.n	2692 <dhcp_start+0x56>
    26ae:	62a0      	str	r0, [r4, #40]	; 0x28
    26b0:	4826      	ldr	r0, [pc, #152]	; (274c <dhcp_start+0x110>)
    26b2:	47b8      	blx	r7
    26b4:	223c      	movs	r2, #60	; 0x3c
    26b6:	2100      	movs	r1, #0
    26b8:	4b25      	ldr	r3, [pc, #148]	; (2750 <dhcp_start+0x114>)
    26ba:	4628      	mov	r0, r5
    26bc:	4798      	blx	r3
    26be:	4b25      	ldr	r3, [pc, #148]	; (2754 <dhcp_start+0x118>)
    26c0:	4798      	blx	r3
    26c2:	6068      	str	r0, [r5, #4]
    26c4:	b948      	cbnz	r0, 26da <dhcp_start+0x9e>
    26c6:	4824      	ldr	r0, [pc, #144]	; (2758 <dhcp_start+0x11c>)
    26c8:	e7e3      	b.n	2692 <dhcp_start+0x56>
    26ca:	4824      	ldr	r0, [pc, #144]	; (275c <dhcp_start+0x120>)
    26cc:	47b0      	blx	r6
    26ce:	6868      	ldr	r0, [r5, #4]
    26d0:	2800      	cmp	r0, #0
    26d2:	d0ef      	beq.n	26b4 <dhcp_start+0x78>
    26d4:	4b22      	ldr	r3, [pc, #136]	; (2760 <dhcp_start+0x124>)
    26d6:	4798      	blx	r3
    26d8:	e7ec      	b.n	26b4 <dhcp_start+0x78>
    26da:	7a02      	ldrb	r2, [r0, #8]
    26dc:	4921      	ldr	r1, [pc, #132]	; (2764 <dhcp_start+0x128>)
    26de:	4b22      	ldr	r3, [pc, #136]	; (2768 <dhcp_start+0x12c>)
    26e0:	f042 0220 	orr.w	r2, r2, #32
    26e4:	7202      	strb	r2, [r0, #8]
    26e6:	2244      	movs	r2, #68	; 0x44
    26e8:	4798      	blx	r3
    26ea:	2243      	movs	r2, #67	; 0x43
    26ec:	491d      	ldr	r1, [pc, #116]	; (2764 <dhcp_start+0x128>)
    26ee:	4b1f      	ldr	r3, [pc, #124]	; (276c <dhcp_start+0x130>)
    26f0:	6868      	ldr	r0, [r5, #4]
    26f2:	4798      	blx	r3
    26f4:	4b1e      	ldr	r3, [pc, #120]	; (2770 <dhcp_start+0x134>)
    26f6:	491f      	ldr	r1, [pc, #124]	; (2774 <dhcp_start+0x138>)
    26f8:	6868      	ldr	r0, [r5, #4]
    26fa:	4622      	mov	r2, r4
    26fc:	4798      	blx	r3
    26fe:	481e      	ldr	r0, [pc, #120]	; (2778 <dhcp_start+0x13c>)
    2700:	47b0      	blx	r6
    2702:	4620      	mov	r0, r4
    2704:	4b1d      	ldr	r3, [pc, #116]	; (277c <dhcp_start+0x140>)
    2706:	4798      	blx	r3
    2708:	b118      	cbz	r0, 2712 <dhcp_start+0xd6>
    270a:	4620      	mov	r0, r4
    270c:	4b1c      	ldr	r3, [pc, #112]	; (2780 <dhcp_start+0x144>)
    270e:	4798      	blx	r3
    2710:	e7c0      	b.n	2694 <dhcp_start+0x58>
    2712:	f894 3035 	ldrb.w	r3, [r4, #53]	; 0x35
    2716:	f043 0308 	orr.w	r3, r3, #8
    271a:	f884 3035 	strb.w	r3, [r4, #53]	; 0x35
    271e:	e7b1      	b.n	2684 <dhcp_start+0x48>
    2720:	00008485 	.word	0x00008485
    2724:	00009695 	.word	0x00009695
    2728:	000097db 	.word	0x000097db
    272c:	000096d7 	.word	0x000096d7
    2730:	0000a458 	.word	0x0000a458
    2734:	00008595 	.word	0x00008595
    2738:	0000a476 	.word	0x0000a476
    273c:	0000a494 	.word	0x0000a494
    2740:	0000a4d4 	.word	0x0000a4d4
    2744:	000039dd 	.word	0x000039dd
    2748:	0000a4fb 	.word	0x0000a4fb
    274c:	0000a521 	.word	0x0000a521
    2750:	00008475 	.word	0x00008475
    2754:	000073d9 	.word	0x000073d9
    2758:	0000a56a 	.word	0x0000a56a
    275c:	0000a53e 	.word	0x0000a53e
    2760:	000073a9 	.word	0x000073a9
    2764:	0000ac70 	.word	0x0000ac70
    2768:	000070b1 	.word	0x000070b1
    276c:	00007335 	.word	0x00007335
    2770:	000073a1 	.word	0x000073a1
    2774:	00001ac9 	.word	0x00001ac9
    2778:	0000a58d 	.word	0x0000a58d
    277c:	00001759 	.word	0x00001759
    2780:	000025d9 	.word	0x000025d9

00002784 <lwip_init>:
    2784:	b510      	push	{r4, lr}
    2786:	4b07      	ldr	r3, [pc, #28]	; (27a4 <lwip_init+0x20>)
    2788:	4798      	blx	r3
    278a:	4b07      	ldr	r3, [pc, #28]	; (27a8 <lwip_init+0x24>)
    278c:	4798      	blx	r3
    278e:	4b07      	ldr	r3, [pc, #28]	; (27ac <lwip_init+0x28>)
    2790:	4798      	blx	r3
    2792:	4b07      	ldr	r3, [pc, #28]	; (27b0 <lwip_init+0x2c>)
    2794:	4798      	blx	r3
    2796:	4b07      	ldr	r3, [pc, #28]	; (27b4 <lwip_init+0x30>)
    2798:	4798      	blx	r3
    279a:	4b07      	ldr	r3, [pc, #28]	; (27b8 <lwip_init+0x34>)
    279c:	e8bd 4010 	ldmia.w	sp!, {r4, lr}
    27a0:	4718      	bx	r3
    27a2:	bf00      	nop
    27a4:	00003865 	.word	0x00003865
    27a8:	00003a95 	.word	0x00003a95
    27ac:	00003b59 	.word	0x00003b59
    27b0:	000070ad 	.word	0x000070ad
    27b4:	00004491 	.word	0x00004491
    27b8:	00006f29 	.word	0x00006f29

000027bc <icmp_send_response.isra.0>:
    27bc:	e92d 43f0 	stmdb	sp!, {r4, r5, r6, r7, r8, r9, lr}
    27c0:	4b31      	ldr	r3, [pc, #196]	; (2888 <icmp_send_response.isra.0+0xcc>)
    27c2:	b085      	sub	sp, #20
    27c4:	4607      	mov	r7, r0
    27c6:	4689      	mov	r9, r1
    27c8:	4690      	mov	r8, r2
    27ca:	2124      	movs	r1, #36	; 0x24
    27cc:	2200      	movs	r2, #0
    27ce:	2001      	movs	r0, #1
    27d0:	4798      	blx	r3
    27d2:	4606      	mov	r6, r0
    27d4:	b928      	cbnz	r0, 27e2 <icmp_send_response.isra.0+0x26>
    27d6:	482d      	ldr	r0, [pc, #180]	; (288c <icmp_send_response.isra.0+0xd0>)
    27d8:	4b2d      	ldr	r3, [pc, #180]	; (2890 <icmp_send_response.isra.0+0xd4>)
    27da:	4798      	blx	r3
    27dc:	b005      	add	sp, #20
    27de:	e8bd 83f0 	ldmia.w	sp!, {r4, r5, r6, r7, r8, r9, pc}
    27e2:	683c      	ldr	r4, [r7, #0]
    27e4:	4d2b      	ldr	r5, [pc, #172]	; (2894 <icmp_send_response.isra.0+0xd8>)
    27e6:	482c      	ldr	r0, [pc, #176]	; (2898 <icmp_send_response.isra.0+0xdc>)
    27e8:	47a8      	blx	r5
    27ea:	f114 030c 	adds.w	r3, r4, #12
    27ee:	bf1f      	itttt	ne
    27f0:	7be0      	ldrbne	r0, [r4, #15]
    27f2:	7b21      	ldrbne	r1, [r4, #12]
    27f4:	7b62      	ldrbne	r2, [r4, #13]
    27f6:	7ba3      	ldrbne	r3, [r4, #14]
    27f8:	bf02      	ittt	eq
    27fa:	4618      	moveq	r0, r3
    27fc:	461a      	moveq	r2, r3
    27fe:	4619      	moveq	r1, r3
    2800:	9000      	str	r0, [sp, #0]
    2802:	4826      	ldr	r0, [pc, #152]	; (289c <icmp_send_response.isra.0+0xe0>)
    2804:	47a8      	blx	r5
    2806:	4826      	ldr	r0, [pc, #152]	; (28a0 <icmp_send_response.isra.0+0xe4>)
    2808:	47a8      	blx	r5
    280a:	f114 0310 	adds.w	r3, r4, #16
    280e:	bf0f      	iteee	eq
    2810:	4618      	moveq	r0, r3
    2812:	7ce0      	ldrbne	r0, [r4, #19]
    2814:	7c21      	ldrbne	r1, [r4, #16]
    2816:	7c62      	ldrbne	r2, [r4, #17]
    2818:	bf18      	it	ne
    281a:	7ca3      	ldrbne	r3, [r4, #18]
    281c:	9000      	str	r0, [sp, #0]
    281e:	bf04      	itt	eq
    2820:	461a      	moveq	r2, r3
    2822:	4619      	moveq	r1, r3
    2824:	481d      	ldr	r0, [pc, #116]	; (289c <icmp_send_response.isra.0+0xe0>)
    2826:	47a8      	blx	r5
    2828:	4b1e      	ldr	r3, [pc, #120]	; (28a4 <icmp_send_response.isra.0+0xe8>)
    282a:	200a      	movs	r0, #10
    282c:	4798      	blx	r3
    282e:	6875      	ldr	r5, [r6, #4]
    2830:	2300      	movs	r3, #0
    2832:	f885 9000 	strb.w	r9, [r5]
    2836:	f885 8001 	strb.w	r8, [r5, #1]
    283a:	712b      	strb	r3, [r5, #4]
    283c:	716b      	strb	r3, [r5, #5]
    283e:	71ab      	strb	r3, [r5, #6]
    2840:	71eb      	strb	r3, [r5, #7]
    2842:	683b      	ldr	r3, [r7, #0]
    2844:	f105 0208 	add.w	r2, r5, #8
    2848:	f103 011c 	add.w	r1, r3, #28
    284c:	f853 0b04 	ldr.w	r0, [r3], #4
    2850:	f842 0b04 	str.w	r0, [r2], #4
    2854:	428b      	cmp	r3, r1
    2856:	d1f9      	bne.n	284c <icmp_send_response.isra.0+0x90>
    2858:	2700      	movs	r7, #0
    285a:	8971      	ldrh	r1, [r6, #10]
    285c:	4b12      	ldr	r3, [pc, #72]	; (28a8 <icmp_send_response.isra.0+0xec>)
    285e:	70af      	strb	r7, [r5, #2]
    2860:	70ef      	strb	r7, [r5, #3]
    2862:	4628      	mov	r0, r5
    2864:	4798      	blx	r3
    2866:	aa04      	add	r2, sp, #16
    2868:	8068      	strh	r0, [r5, #2]
    286a:	68e3      	ldr	r3, [r4, #12]
    286c:	f842 3d04 	str.w	r3, [r2, #-4]!
    2870:	2301      	movs	r3, #1
    2872:	9301      	str	r3, [sp, #4]
    2874:	9700      	str	r7, [sp, #0]
    2876:	23ff      	movs	r3, #255	; 0xff
    2878:	4639      	mov	r1, r7
    287a:	4630      	mov	r0, r6
    287c:	4c0b      	ldr	r4, [pc, #44]	; (28ac <icmp_send_response.isra.0+0xf0>)
    287e:	47a0      	blx	r4
    2880:	4630      	mov	r0, r6
    2882:	4b0b      	ldr	r3, [pc, #44]	; (28b0 <icmp_send_response.isra.0+0xf4>)
    2884:	e7a9      	b.n	27da <icmp_send_response.isra.0+0x1e>
    2886:	bf00      	nop
    2888:	00004039 	.word	0x00004039
    288c:	0000a5b7 	.word	0x0000a5b7
    2890:	00008595 	.word	0x00008595
    2894:	00008485 	.word	0x00008485
    2898:	0000a5f4 	.word	0x0000a5f4
    289c:	0000a60d 	.word	0x0000a60d
    28a0:	0000a61d 	.word	0x0000a61d
    28a4:	000084b5 	.word	0x000084b5
    28a8:	00002b89 	.word	0x00002b89
    28ac:	000030e9 	.word	0x000030e9
    28b0:	00003f99 	.word	0x00003f99

000028b4 <icmp_input>:
    28b4:	e92d 4ff0 	stmdb	sp!, {r4, r5, r6, r7, r8, r9, sl, fp, lr}
    28b8:	6846      	ldr	r6, [r0, #4]
    28ba:	4f52      	ldr	r7, [pc, #328]	; (2a04 <icmp_input+0x150>)
    28bc:	7835      	ldrb	r5, [r6, #0]
    28be:	f8df 818c 	ldr.w	r8, [pc, #396]	; 2a4c <icmp_input+0x198>
    28c2:	f005 050f 	and.w	r5, r5, #15
    28c6:	00ad      	lsls	r5, r5, #2
    28c8:	b087      	sub	sp, #28
    28ca:	f1c5 0a00 	rsb	sl, r5, #0
    28ce:	fa0f fa8a 	sxth.w	sl, sl
    28d2:	9104      	str	r1, [sp, #16]
    28d4:	4651      	mov	r1, sl
    28d6:	4604      	mov	r4, r0
    28d8:	47b8      	blx	r7
    28da:	8921      	ldrh	r1, [r4, #8]
    28dc:	b908      	cbnz	r0, 28e2 <icmp_input+0x2e>
    28de:	2903      	cmp	r1, #3
    28e0:	d803      	bhi.n	28ea <icmp_input+0x36>
    28e2:	4849      	ldr	r0, [pc, #292]	; (2a08 <icmp_input+0x154>)
    28e4:	4b49      	ldr	r3, [pc, #292]	; (2a0c <icmp_input+0x158>)
    28e6:	4798      	blx	r3
    28e8:	e018      	b.n	291c <icmp_input+0x68>
    28ea:	6863      	ldr	r3, [r4, #4]
    28ec:	7819      	ldrb	r1, [r3, #0]
    28ee:	b1a9      	cbz	r1, 291c <icmp_input+0x68>
    28f0:	2908      	cmp	r1, #8
    28f2:	f040 8082 	bne.w	29fa <icmp_input+0x146>
    28f6:	f8df 9144 	ldr.w	r9, [pc, #324]	; 2a3c <icmp_input+0x188>
    28fa:	9904      	ldr	r1, [sp, #16]
    28fc:	f8d9 0000 	ldr.w	r0, [r9]
    2900:	4b43      	ldr	r3, [pc, #268]	; (2a10 <icmp_input+0x15c>)
    2902:	f000 0bf0 	and.w	fp, r0, #240	; 0xf0
    2906:	4798      	blx	r3
    2908:	f8cd 9014 	str.w	r9, [sp, #20]
    290c:	f8df 9140 	ldr.w	r9, [pc, #320]	; 2a50 <icmp_input+0x19c>
    2910:	b910      	cbnz	r0, 2918 <icmp_input+0x64>
    2912:	f1bb 0fe0 	cmp.w	fp, #224	; 0xe0
    2916:	d107      	bne.n	2928 <icmp_input+0x74>
    2918:	483e      	ldr	r0, [pc, #248]	; (2a14 <icmp_input+0x160>)
    291a:	47c8      	blx	r9
    291c:	4620      	mov	r0, r4
    291e:	4643      	mov	r3, r8
    2920:	b007      	add	sp, #28
    2922:	e8bd 4ff0 	ldmia.w	sp!, {r4, r5, r6, r7, r8, r9, sl, fp, lr}
    2926:	4718      	bx	r3
    2928:	483b      	ldr	r0, [pc, #236]	; (2a18 <icmp_input+0x164>)
    292a:	47c8      	blx	r9
    292c:	8923      	ldrh	r3, [r4, #8]
    292e:	2b07      	cmp	r3, #7
    2930:	d801      	bhi.n	2936 <icmp_input+0x82>
    2932:	483a      	ldr	r0, [pc, #232]	; (2a1c <icmp_input+0x168>)
    2934:	e7f1      	b.n	291a <icmp_input+0x66>
    2936:	4620      	mov	r0, r4
    2938:	4b39      	ldr	r3, [pc, #228]	; (2a20 <icmp_input+0x16c>)
    293a:	4798      	blx	r3
    293c:	b108      	cbz	r0, 2942 <icmp_input+0x8e>
    293e:	4839      	ldr	r0, [pc, #228]	; (2a24 <icmp_input+0x170>)
    2940:	e7eb      	b.n	291a <icmp_input+0x66>
    2942:	2122      	movs	r1, #34	; 0x22
    2944:	4620      	mov	r0, r4
    2946:	b22d      	sxth	r5, r5
    2948:	47b8      	blx	r7
    294a:	2800      	cmp	r0, #0
    294c:	d04e      	beq.n	29ec <icmp_input+0x138>
    294e:	4629      	mov	r1, r5
    2950:	4620      	mov	r0, r4
    2952:	47b8      	blx	r7
    2954:	2800      	cmp	r0, #0
    2956:	d1e1      	bne.n	291c <icmp_input+0x68>
    2958:	2200      	movs	r2, #0
    295a:	8921      	ldrh	r1, [r4, #8]
    295c:	4b32      	ldr	r3, [pc, #200]	; (2a28 <icmp_input+0x174>)
    295e:	2002      	movs	r0, #2
    2960:	4798      	blx	r3
    2962:	4683      	mov	fp, r0
    2964:	b908      	cbnz	r0, 296a <icmp_input+0xb6>
    2966:	4831      	ldr	r0, [pc, #196]	; (2a2c <icmp_input+0x178>)
    2968:	e7d7      	b.n	291a <icmp_input+0x66>
    296a:	4621      	mov	r1, r4
    296c:	4b30      	ldr	r3, [pc, #192]	; (2a30 <icmp_input+0x17c>)
    296e:	4798      	blx	r3
    2970:	2800      	cmp	r0, #0
    2972:	d1d3      	bne.n	291c <icmp_input+0x68>
    2974:	4651      	mov	r1, sl
    2976:	4658      	mov	r0, fp
    2978:	f8db 6004 	ldr.w	r6, [fp, #4]
    297c:	47b8      	blx	r7
    297e:	2800      	cmp	r0, #0
    2980:	d1cc      	bne.n	291c <icmp_input+0x68>
    2982:	4620      	mov	r0, r4
    2984:	47c0      	blx	r8
    2986:	465c      	mov	r4, fp
    2988:	9b05      	ldr	r3, [sp, #20]
    298a:	6862      	ldr	r2, [r4, #4]
    298c:	681b      	ldr	r3, [r3, #0]
    298e:	60f3      	str	r3, [r6, #12]
    2990:	4b28      	ldr	r3, [pc, #160]	; (2a34 <icmp_input+0x180>)
    2992:	681b      	ldr	r3, [r3, #0]
    2994:	6133      	str	r3, [r6, #16]
    2996:	2300      	movs	r3, #0
    2998:	7013      	strb	r3, [r2, #0]
    299a:	8853      	ldrh	r3, [r2, #2]
    299c:	f64f 71f6 	movw	r1, #65526	; 0xfff6
    29a0:	428b      	cmp	r3, r1
    29a2:	bf8c      	ite	hi
    29a4:	3309      	addhi	r3, #9
    29a6:	3308      	addls	r3, #8
    29a8:	8053      	strh	r3, [r2, #2]
    29aa:	f04f 09ff 	mov.w	r9, #255	; 0xff
    29ae:	2300      	movs	r3, #0
    29b0:	72b3      	strb	r3, [r6, #10]
    29b2:	72f3      	strb	r3, [r6, #11]
    29b4:	2114      	movs	r1, #20
    29b6:	4b20      	ldr	r3, [pc, #128]	; (2a38 <icmp_input+0x184>)
    29b8:	f886 9008 	strb.w	r9, [r6, #8]
    29bc:	4630      	mov	r0, r6
    29be:	4798      	blx	r3
    29c0:	4629      	mov	r1, r5
    29c2:	8170      	strh	r0, [r6, #10]
    29c4:	4620      	mov	r0, r4
    29c6:	47b8      	blx	r7
    29c8:	4602      	mov	r2, r0
    29ca:	2800      	cmp	r0, #0
    29cc:	d1a6      	bne.n	291c <icmp_input+0x68>
    29ce:	9b04      	ldr	r3, [sp, #16]
    29d0:	9302      	str	r3, [sp, #8]
    29d2:	2301      	movs	r3, #1
    29d4:	e88d 000c 	stmia.w	sp, {r2, r3}
    29d8:	4918      	ldr	r1, [pc, #96]	; (2a3c <icmp_input+0x188>)
    29da:	4d19      	ldr	r5, [pc, #100]	; (2a40 <icmp_input+0x18c>)
    29dc:	464b      	mov	r3, r9
    29de:	4620      	mov	r0, r4
    29e0:	47a8      	blx	r5
    29e2:	4601      	mov	r1, r0
    29e4:	2800      	cmp	r0, #0
    29e6:	d099      	beq.n	291c <icmp_input+0x68>
    29e8:	4816      	ldr	r0, [pc, #88]	; (2a44 <icmp_input+0x190>)
    29ea:	e77b      	b.n	28e4 <icmp_input+0x30>
    29ec:	f06f 0121 	mvn.w	r1, #33	; 0x21
    29f0:	4620      	mov	r0, r4
    29f2:	47b8      	blx	r7
    29f4:	2800      	cmp	r0, #0
    29f6:	d191      	bne.n	291c <icmp_input+0x68>
    29f8:	e7c6      	b.n	2988 <icmp_input+0xd4>
    29fa:	785a      	ldrb	r2, [r3, #1]
    29fc:	4812      	ldr	r0, [pc, #72]	; (2a48 <icmp_input+0x194>)
    29fe:	4b03      	ldr	r3, [pc, #12]	; (2a0c <icmp_input+0x158>)
    2a00:	4798      	blx	r3
    2a02:	e78b      	b.n	291c <icmp_input+0x68>
    2a04:	00003f01 	.word	0x00003f01
    2a08:	0000a622 	.word	0x0000a622
    2a0c:	00008485 	.word	0x00008485
    2a10:	00003141 	.word	0x00003141
    2a14:	0000a64f 	.word	0x0000a64f
    2a18:	0000a687 	.word	0x0000a687
    2a1c:	0000a698 	.word	0x0000a698
    2a20:	00002b99 	.word	0x00002b99
    2a24:	0000a6bb 	.word	0x0000a6bb
    2a28:	00004039 	.word	0x00004039
    2a2c:	0000a6ee 	.word	0x0000a6ee
    2a30:	0000428d 	.word	0x0000428d
    2a34:	200080b8 	.word	0x200080b8
    2a38:	00002b89 	.word	0x00002b89
    2a3c:	200080c0 	.word	0x200080c0
    2a40:	00002fb9 	.word	0x00002fb9
    2a44:	0000a715 	.word	0x0000a715
    2a48:	0000a746 	.word	0x0000a746
    2a4c:	00003f99 	.word	0x00003f99
    2a50:	00008595 	.word	0x00008595

00002a54 <icmp_dest_unreach>:
    2a54:	460a      	mov	r2, r1
    2a56:	3004      	adds	r0, #4
    2a58:	2103      	movs	r1, #3
    2a5a:	4b01      	ldr	r3, [pc, #4]	; (2a60 <icmp_dest_unreach+0xc>)
    2a5c:	4718      	bx	r3
    2a5e:	bf00      	nop
    2a60:	000027bd 	.word	0x000027bd

00002a64 <icmp_time_exceeded>:
    2a64:	460a      	mov	r2, r1
    2a66:	3004      	adds	r0, #4
    2a68:	210b      	movs	r1, #11
    2a6a:	4b01      	ldr	r3, [pc, #4]	; (2a70 <icmp_time_exceeded+0xc>)
    2a6c:	4718      	bx	r3
    2a6e:	bf00      	nop
    2a70:	000027bd 	.word	0x000027bd

00002a74 <lwip_standard_chksum>:
    2a74:	b513      	push	{r0, r1, r4, lr}
    2a76:	2300      	movs	r3, #0
    2a78:	f010 0201 	ands.w	r2, r0, #1
    2a7c:	f8ad 3006 	strh.w	r3, [sp, #6]
    2a80:	d01f      	beq.n	2ac2 <lwip_standard_chksum+0x4e>
    2a82:	4299      	cmp	r1, r3
    2a84:	dd24      	ble.n	2ad0 <lwip_standard_chksum+0x5c>
    2a86:	1c43      	adds	r3, r0, #1
    2a88:	7800      	ldrb	r0, [r0, #0]
    2a8a:	f88d 0007 	strb.w	r0, [sp, #7]
    2a8e:	3901      	subs	r1, #1
    2a90:	2000      	movs	r0, #0
    2a92:	2901      	cmp	r1, #1
    2a94:	dc17      	bgt.n	2ac6 <lwip_standard_chksum+0x52>
    2a96:	d102      	bne.n	2a9e <lwip_standard_chksum+0x2a>
    2a98:	781b      	ldrb	r3, [r3, #0]
    2a9a:	f88d 3006 	strb.w	r3, [sp, #6]
    2a9e:	f8bd 3006 	ldrh.w	r3, [sp, #6]
    2aa2:	4403      	add	r3, r0
    2aa4:	b298      	uxth	r0, r3
    2aa6:	eb00 4313 	add.w	r3, r0, r3, lsr #16
    2aaa:	b298      	uxth	r0, r3
    2aac:	eb00 4013 	add.w	r0, r0, r3, lsr #16
    2ab0:	b122      	cbz	r2, 2abc <lwip_standard_chksum+0x48>
    2ab2:	0203      	lsls	r3, r0, #8
    2ab4:	b29b      	uxth	r3, r3
    2ab6:	f3c0 2007 	ubfx	r0, r0, #8, #8
    2aba:	4318      	orrs	r0, r3
    2abc:	b280      	uxth	r0, r0
    2abe:	b002      	add	sp, #8
    2ac0:	bd10      	pop	{r4, pc}
    2ac2:	4603      	mov	r3, r0
    2ac4:	e7e4      	b.n	2a90 <lwip_standard_chksum+0x1c>
    2ac6:	f833 4b02 	ldrh.w	r4, [r3], #2
    2aca:	3902      	subs	r1, #2
    2acc:	4420      	add	r0, r4
    2ace:	e7e0      	b.n	2a92 <lwip_standard_chksum+0x1e>
    2ad0:	4618      	mov	r0, r3
    2ad2:	e7e4      	b.n	2a9e <lwip_standard_chksum+0x2a>

00002ad4 <inet_chksum_pseudo>:
    2ad4:	e92d 4ff8 	stmdb	sp!, {r3, r4, r5, r6, r7, r8, r9, sl, fp, lr}
    2ad8:	f04f 0800 	mov.w	r8, #0
    2adc:	4d25      	ldr	r5, [pc, #148]	; (2b74 <inet_chksum_pseudo+0xa0>)
    2ade:	f8df b0a4 	ldr.w	fp, [pc, #164]	; 2b84 <inet_chksum_pseudo+0xb0>
    2ae2:	4606      	mov	r6, r0
    2ae4:	468a      	mov	sl, r1
    2ae6:	4691      	mov	r9, r2
    2ae8:	461f      	mov	r7, r3
    2aea:	4644      	mov	r4, r8
    2aec:	bb46      	cbnz	r6, 2b40 <inet_chksum_pseudo+0x6c>
    2aee:	f1b8 0f00 	cmp.w	r8, #0
    2af2:	d004      	beq.n	2afe <inet_chksum_pseudo+0x2a>
    2af4:	0223      	lsls	r3, r4, #8
    2af6:	b29b      	uxth	r3, r3
    2af8:	f3c4 2407 	ubfx	r4, r4, #8, #8
    2afc:	431c      	orrs	r4, r3
    2afe:	f8d9 2000 	ldr.w	r2, [r9]
    2b02:	f8da 3000 	ldr.w	r3, [sl]
    2b06:	4e1c      	ldr	r6, [pc, #112]	; (2b78 <inet_chksum_pseudo+0xa4>)
    2b08:	0c10      	lsrs	r0, r2, #16
    2b0a:	fa10 f082 	uxtah	r0, r0, r2
    2b0e:	fa10 f083 	uxtah	r0, r0, r3
    2b12:	eb00 4013 	add.w	r0, r0, r3, lsr #16
    2b16:	4404      	add	r4, r0
    2b18:	4638      	mov	r0, r7
    2b1a:	47b0      	blx	r6
    2b1c:	4404      	add	r4, r0
    2b1e:	f8bd 0028 	ldrh.w	r0, [sp, #40]	; 0x28
    2b22:	47b0      	blx	r6
    2b24:	4420      	add	r0, r4
    2b26:	b284      	uxth	r4, r0
    2b28:	eb04 4010 	add.w	r0, r4, r0, lsr #16
    2b2c:	b284      	uxth	r4, r0
    2b2e:	eb04 4410 	add.w	r4, r4, r0, lsr #16
    2b32:	4621      	mov	r1, r4
    2b34:	4811      	ldr	r0, [pc, #68]	; (2b7c <inet_chksum_pseudo+0xa8>)
    2b36:	47a8      	blx	r5
    2b38:	43e0      	mvns	r0, r4
    2b3a:	b280      	uxth	r0, r0
    2b3c:	e8bd 8ff8 	ldmia.w	sp!, {r3, r4, r5, r6, r7, r8, r9, sl, fp, pc}
    2b40:	6832      	ldr	r2, [r6, #0]
    2b42:	4631      	mov	r1, r6
    2b44:	4658      	mov	r0, fp
    2b46:	47a8      	blx	r5
    2b48:	4b0d      	ldr	r3, [pc, #52]	; (2b80 <inet_chksum_pseudo+0xac>)
    2b4a:	8971      	ldrh	r1, [r6, #10]
    2b4c:	6870      	ldr	r0, [r6, #4]
    2b4e:	4798      	blx	r3
    2b50:	8972      	ldrh	r2, [r6, #10]
    2b52:	4404      	add	r4, r0
    2b54:	b2a0      	uxth	r0, r4
    2b56:	07d3      	lsls	r3, r2, #31
    2b58:	eb00 4414 	add.w	r4, r0, r4, lsr #16
    2b5c:	d508      	bpl.n	2b70 <inet_chksum_pseudo+0x9c>
    2b5e:	0222      	lsls	r2, r4, #8
    2b60:	f1c8 0801 	rsb	r8, r8, #1
    2b64:	b292      	uxth	r2, r2
    2b66:	f3c4 2407 	ubfx	r4, r4, #8, #8
    2b6a:	fa5f f888 	uxtb.w	r8, r8
    2b6e:	4314      	orrs	r4, r2
    2b70:	6836      	ldr	r6, [r6, #0]
    2b72:	e7bb      	b.n	2aec <inet_chksum_pseudo+0x18>
    2b74:	00008485 	.word	0x00008485
    2b78:	000011ed 	.word	0x000011ed
    2b7c:	0000a7b4 	.word	0x0000a7b4
    2b80:	00002a75 	.word	0x00002a75
    2b84:	0000a779 	.word	0x0000a779

00002b88 <inet_chksum>:
    2b88:	b508      	push	{r3, lr}
    2b8a:	4b02      	ldr	r3, [pc, #8]	; (2b94 <inet_chksum+0xc>)
    2b8c:	4798      	blx	r3
    2b8e:	43c0      	mvns	r0, r0
    2b90:	b280      	uxth	r0, r0
    2b92:	bd08      	pop	{r3, pc}
    2b94:	00002a75 	.word	0x00002a75

00002b98 <inet_chksum_pbuf>:
    2b98:	b5f8      	push	{r3, r4, r5, r6, r7, lr}
    2b9a:	2500      	movs	r5, #0
    2b9c:	4f10      	ldr	r7, [pc, #64]	; (2be0 <inet_chksum_pbuf+0x48>)
    2b9e:	4606      	mov	r6, r0
    2ba0:	462c      	mov	r4, r5
    2ba2:	b946      	cbnz	r6, 2bb6 <inet_chksum_pbuf+0x1e>
    2ba4:	b125      	cbz	r5, 2bb0 <inet_chksum_pbuf+0x18>
    2ba6:	0223      	lsls	r3, r4, #8
    2ba8:	b29b      	uxth	r3, r3
    2baa:	f3c4 2407 	ubfx	r4, r4, #8, #8
    2bae:	431c      	orrs	r4, r3
    2bb0:	43e0      	mvns	r0, r4
    2bb2:	b280      	uxth	r0, r0
    2bb4:	bdf8      	pop	{r3, r4, r5, r6, r7, pc}
    2bb6:	8971      	ldrh	r1, [r6, #10]
    2bb8:	6870      	ldr	r0, [r6, #4]
    2bba:	47b8      	blx	r7
    2bbc:	8973      	ldrh	r3, [r6, #10]
    2bbe:	4420      	add	r0, r4
    2bc0:	b284      	uxth	r4, r0
    2bc2:	07db      	lsls	r3, r3, #31
    2bc4:	eb04 4410 	add.w	r4, r4, r0, lsr #16
    2bc8:	d507      	bpl.n	2bda <inet_chksum_pbuf+0x42>
    2bca:	0223      	lsls	r3, r4, #8
    2bcc:	f1c5 0501 	rsb	r5, r5, #1
    2bd0:	b29b      	uxth	r3, r3
    2bd2:	f3c4 2407 	ubfx	r4, r4, #8, #8
    2bd6:	b2ed      	uxtb	r5, r5
    2bd8:	431c      	orrs	r4, r3
    2bda:	6836      	ldr	r6, [r6, #0]
    2bdc:	e7e1      	b.n	2ba2 <inet_chksum_pbuf+0xa>
    2bde:	bf00      	nop
    2be0:	00002a75 	.word	0x00002a75

00002be4 <ip_route>:
    2be4:	4b11      	ldr	r3, [pc, #68]	; (2c2c <ip_route+0x48>)
    2be6:	b537      	push	{r0, r1, r2, r4, r5, lr}
    2be8:	681c      	ldr	r4, [r3, #0]
    2bea:	b98c      	cbnz	r4, 2c10 <ip_route+0x2c>
    2bec:	4b10      	ldr	r3, [pc, #64]	; (2c30 <ip_route+0x4c>)
    2bee:	681b      	ldr	r3, [r3, #0]
    2bf0:	b11b      	cbz	r3, 2bfa <ip_route+0x16>
    2bf2:	f893 2035 	ldrb.w	r2, [r3, #53]	; 0x35
    2bf6:	07d2      	lsls	r2, r2, #31
    2bf8:	d416      	bmi.n	2c28 <ip_route+0x44>
    2bfa:	7883      	ldrb	r3, [r0, #2]
    2bfc:	7842      	ldrb	r2, [r0, #1]
    2bfe:	7801      	ldrb	r1, [r0, #0]
    2c00:	78c0      	ldrb	r0, [r0, #3]
    2c02:	9000      	str	r0, [sp, #0]
    2c04:	4d0b      	ldr	r5, [pc, #44]	; (2c34 <ip_route+0x50>)
    2c06:	480c      	ldr	r0, [pc, #48]	; (2c38 <ip_route+0x54>)
    2c08:	47a8      	blx	r5
    2c0a:	4620      	mov	r0, r4
    2c0c:	b003      	add	sp, #12
    2c0e:	bd30      	pop	{r4, r5, pc}
    2c10:	f894 3035 	ldrb.w	r3, [r4, #53]	; 0x35
    2c14:	07d9      	lsls	r1, r3, #31
    2c16:	d505      	bpl.n	2c24 <ip_route+0x40>
    2c18:	6862      	ldr	r2, [r4, #4]
    2c1a:	6803      	ldr	r3, [r0, #0]
    2c1c:	4053      	eors	r3, r2
    2c1e:	68a2      	ldr	r2, [r4, #8]
    2c20:	4213      	tst	r3, r2
    2c22:	d0f2      	beq.n	2c0a <ip_route+0x26>
    2c24:	6824      	ldr	r4, [r4, #0]
    2c26:	e7e0      	b.n	2bea <ip_route+0x6>
    2c28:	461c      	mov	r4, r3
    2c2a:	e7ee      	b.n	2c0a <ip_route+0x26>
    2c2c:	2000907c 	.word	0x2000907c
    2c30:	20009080 	.word	0x20009080
    2c34:	00008485 	.word	0x00008485
    2c38:	0000a7e7 	.word	0x0000a7e7

00002c3c <ip_debug_print>:
    2c3c:	e92d 4ff0 	stmdb	sp!, {r4, r5, r6, r7, r8, r9, sl, fp, lr}
    2c40:	4f2d      	ldr	r7, [pc, #180]	; (2cf8 <ip_debug_print+0xbc>)
    2c42:	6844      	ldr	r4, [r0, #4]
    2c44:	4d2d      	ldr	r5, [pc, #180]	; (2cfc <ip_debug_print+0xc0>)
    2c46:	482e      	ldr	r0, [pc, #184]	; (2d00 <ip_debug_print+0xc4>)
    2c48:	4e2e      	ldr	r6, [pc, #184]	; (2d04 <ip_debug_print+0xc8>)
    2c4a:	b085      	sub	sp, #20
    2c4c:	47a8      	blx	r5
    2c4e:	4638      	mov	r0, r7
    2c50:	47a8      	blx	r5
    2c52:	8860      	ldrh	r0, [r4, #2]
    2c54:	f894 8000 	ldrb.w	r8, [r4]
    2c58:	f894 9001 	ldrb.w	r9, [r4, #1]
    2c5c:	47b0      	blx	r6
    2c5e:	464b      	mov	r3, r9
    2c60:	f008 020f 	and.w	r2, r8, #15
    2c64:	ea4f 1118 	mov.w	r1, r8, lsr #4
    2c68:	9000      	str	r0, [sp, #0]
    2c6a:	f8df 80b0 	ldr.w	r8, [pc, #176]	; 2d1c <ip_debug_print+0xe0>
    2c6e:	4826      	ldr	r0, [pc, #152]	; (2d08 <ip_debug_print+0xcc>)
    2c70:	47c0      	blx	r8
    2c72:	4638      	mov	r0, r7
    2c74:	47a8      	blx	r5
    2c76:	88a0      	ldrh	r0, [r4, #4]
    2c78:	47b0      	blx	r6
    2c7a:	4682      	mov	sl, r0
    2c7c:	88e0      	ldrh	r0, [r4, #6]
    2c7e:	47b0      	blx	r6
    2c80:	4683      	mov	fp, r0
    2c82:	88e0      	ldrh	r0, [r4, #6]
    2c84:	47b0      	blx	r6
    2c86:	9003      	str	r0, [sp, #12]
    2c88:	88e0      	ldrh	r0, [r4, #6]
    2c8a:	47b0      	blx	r6
    2c8c:	4681      	mov	r9, r0
    2c8e:	88e0      	ldrh	r0, [r4, #6]
    2c90:	47b0      	blx	r6
    2c92:	9b03      	ldr	r3, [sp, #12]
    2c94:	f3c0 000c 	ubfx	r0, r0, #0, #13
    2c98:	9001      	str	r0, [sp, #4]
    2c9a:	f3c9 3040 	ubfx	r0, r9, #13, #1
    2c9e:	f3cb 32cf 	ubfx	r2, fp, #15, #16
    2ca2:	4651      	mov	r1, sl
    2ca4:	f3c3 3380 	ubfx	r3, r3, #14, #1
    2ca8:	9000      	str	r0, [sp, #0]
    2caa:	4818      	ldr	r0, [pc, #96]	; (2d0c <ip_debug_print+0xd0>)
    2cac:	47c0      	blx	r8
    2cae:	4638      	mov	r0, r7
    2cb0:	47a8      	blx	r5
    2cb2:	8960      	ldrh	r0, [r4, #10]
    2cb4:	f894 9008 	ldrb.w	r9, [r4, #8]
    2cb8:	f894 a009 	ldrb.w	sl, [r4, #9]
    2cbc:	47b0      	blx	r6
    2cbe:	4652      	mov	r2, sl
    2cc0:	4603      	mov	r3, r0
    2cc2:	4649      	mov	r1, r9
    2cc4:	4812      	ldr	r0, [pc, #72]	; (2d10 <ip_debug_print+0xd4>)
    2cc6:	47c0      	blx	r8
    2cc8:	4638      	mov	r0, r7
    2cca:	47a8      	blx	r5
    2ccc:	7be0      	ldrb	r0, [r4, #15]
    2cce:	7ba3      	ldrb	r3, [r4, #14]
    2cd0:	7b62      	ldrb	r2, [r4, #13]
    2cd2:	7b21      	ldrb	r1, [r4, #12]
    2cd4:	9000      	str	r0, [sp, #0]
    2cd6:	480f      	ldr	r0, [pc, #60]	; (2d14 <ip_debug_print+0xd8>)
    2cd8:	47c0      	blx	r8
    2cda:	4638      	mov	r0, r7
    2cdc:	47a8      	blx	r5
    2cde:	7ce0      	ldrb	r0, [r4, #19]
    2ce0:	7ca3      	ldrb	r3, [r4, #18]
    2ce2:	7c62      	ldrb	r2, [r4, #17]
    2ce4:	7c21      	ldrb	r1, [r4, #16]
    2ce6:	9000      	str	r0, [sp, #0]
    2ce8:	480b      	ldr	r0, [pc, #44]	; (2d18 <ip_debug_print+0xdc>)
    2cea:	47c0      	blx	r8
    2cec:	4638      	mov	r0, r7
    2cee:	462b      	mov	r3, r5
    2cf0:	b005      	add	sp, #20
    2cf2:	e8bd 4ff0 	ldmia.w	sp!, {r4, r5, r6, r7, r8, r9, sl, fp, lr}
    2cf6:	4718      	bx	r3
    2cf8:	0000a819 	.word	0x0000a819
    2cfc:	00008595 	.word	0x00008595
    2d00:	0000a80e 	.word	0x0000a80e
    2d04:	000011f3 	.word	0x000011f3
    2d08:	0000a83b 	.word	0x0000a83b
    2d0c:	0000a876 	.word	0x0000a876
    2d10:	0000a8b2 	.word	0x0000a8b2
    2d14:	0000a8ed 	.word	0x0000a8ed
    2d18:	0000a91a 	.word	0x0000a91a
    2d1c:	00008485 	.word	0x00008485

00002d20 <ip_input>:
    2d20:	e92d 4ff0 	stmdb	sp!, {r4, r5, r6, r7, r8, r9, sl, fp, lr}
    2d24:	6845      	ldr	r5, [r0, #4]
    2d26:	782f      	ldrb	r7, [r5, #0]
    2d28:	4688      	mov	r8, r1
    2d2a:	0939      	lsrs	r1, r7, #4
    2d2c:	2904      	cmp	r1, #4
    2d2e:	b085      	sub	sp, #20
    2d30:	4604      	mov	r4, r0
    2d32:	d006      	beq.n	2d42 <ip_input+0x22>
    2d34:	487f      	ldr	r0, [pc, #508]	; (2f34 <ip_input+0x214>)
    2d36:	4b80      	ldr	r3, [pc, #512]	; (2f38 <ip_input+0x218>)
    2d38:	4798      	blx	r3
    2d3a:	4620      	mov	r0, r4
    2d3c:	4b7f      	ldr	r3, [pc, #508]	; (2f3c <ip_input+0x21c>)
    2d3e:	4798      	blx	r3
    2d40:	e027      	b.n	2d92 <ip_input+0x72>
    2d42:	8868      	ldrh	r0, [r5, #2]
    2d44:	f8df 9268 	ldr.w	r9, [pc, #616]	; 2fb0 <ip_input+0x290>
    2d48:	47c8      	blx	r9
    2d4a:	f007 070f 	and.w	r7, r7, #15
    2d4e:	8962      	ldrh	r2, [r4, #10]
    2d50:	00bf      	lsls	r7, r7, #2
    2d52:	4297      	cmp	r7, r2
    2d54:	4606      	mov	r6, r0
    2d56:	d811      	bhi.n	2d7c <ip_input+0x5c>
    2d58:	8923      	ldrh	r3, [r4, #8]
    2d5a:	4283      	cmp	r3, r0
    2d5c:	d312      	bcc.n	2d84 <ip_input+0x64>
    2d5e:	4639      	mov	r1, r7
    2d60:	4628      	mov	r0, r5
    2d62:	f8df b250 	ldr.w	fp, [pc, #592]	; 2fb4 <ip_input+0x294>
    2d66:	f8df a1d0 	ldr.w	sl, [pc, #464]	; 2f38 <ip_input+0x218>
    2d6a:	47d8      	blx	fp
    2d6c:	b1c0      	cbz	r0, 2da0 <ip_input+0x80>
    2d6e:	4639      	mov	r1, r7
    2d70:	4628      	mov	r0, r5
    2d72:	47d8      	blx	fp
    2d74:	4601      	mov	r1, r0
    2d76:	4872      	ldr	r0, [pc, #456]	; (2f40 <ip_input+0x220>)
    2d78:	47d0      	blx	sl
    2d7a:	e7de      	b.n	2d3a <ip_input+0x1a>
    2d7c:	4639      	mov	r1, r7
    2d7e:	4871      	ldr	r0, [pc, #452]	; (2f44 <ip_input+0x224>)
    2d80:	4b6d      	ldr	r3, [pc, #436]	; (2f38 <ip_input+0x218>)
    2d82:	4798      	blx	r3
    2d84:	8922      	ldrh	r2, [r4, #8]
    2d86:	4296      	cmp	r6, r2
    2d88:	d903      	bls.n	2d92 <ip_input+0x72>
    2d8a:	4631      	mov	r1, r6
    2d8c:	486e      	ldr	r0, [pc, #440]	; (2f48 <ip_input+0x228>)
    2d8e:	4b6a      	ldr	r3, [pc, #424]	; (2f38 <ip_input+0x218>)
    2d90:	4798      	blx	r3
    2d92:	4620      	mov	r0, r4
    2d94:	4b6d      	ldr	r3, [pc, #436]	; (2f4c <ip_input+0x22c>)
    2d96:	4798      	blx	r3
    2d98:	2000      	movs	r0, #0
    2d9a:	b005      	add	sp, #20
    2d9c:	e8bd 8ff0 	ldmia.w	sp!, {r4, r5, r6, r7, r8, r9, sl, fp, pc}
    2da0:	4631      	mov	r1, r6
    2da2:	4b6b      	ldr	r3, [pc, #428]	; (2f50 <ip_input+0x230>)
    2da4:	4620      	mov	r0, r4
    2da6:	4798      	blx	r3
    2da8:	4b6a      	ldr	r3, [pc, #424]	; (2f54 <ip_input+0x234>)
    2daa:	692a      	ldr	r2, [r5, #16]
    2dac:	601a      	str	r2, [r3, #0]
    2dae:	4a6a      	ldr	r2, [pc, #424]	; (2f58 <ip_input+0x238>)
    2db0:	68e9      	ldr	r1, [r5, #12]
    2db2:	6011      	str	r1, [r2, #0]
    2db4:	2201      	movs	r2, #1
    2db6:	4646      	mov	r6, r8
    2db8:	9203      	str	r2, [sp, #12]
    2dba:	469b      	mov	fp, r3
    2dbc:	68b3      	ldr	r3, [r6, #8]
    2dbe:	6929      	ldr	r1, [r5, #16]
    2dc0:	6872      	ldr	r2, [r6, #4]
    2dc2:	ea21 0003 	bic.w	r0, r1, r3
    2dc6:	9001      	str	r0, [sp, #4]
    2dc8:	ea02 0003 	and.w	r0, r2, r3
    2dcc:	9000      	str	r0, [sp, #0]
    2dce:	400b      	ands	r3, r1
    2dd0:	4862      	ldr	r0, [pc, #392]	; (2f5c <ip_input+0x23c>)
    2dd2:	47d0      	blx	sl
    2dd4:	f896 3035 	ldrb.w	r3, [r6, #53]	; 0x35
    2dd8:	07db      	lsls	r3, r3, #31
    2dda:	d521      	bpl.n	2e20 <ip_input+0x100>
    2ddc:	6873      	ldr	r3, [r6, #4]
    2dde:	b1fb      	cbz	r3, 2e20 <ip_input+0x100>
    2de0:	f8db 0000 	ldr.w	r0, [fp]
    2de4:	4283      	cmp	r3, r0
    2de6:	d116      	bne.n	2e16 <ip_input+0xf6>
    2de8:	f896 2037 	ldrb.w	r2, [r6, #55]	; 0x37
    2dec:	f896 1036 	ldrb.w	r1, [r6, #54]	; 0x36
    2df0:	485b      	ldr	r0, [pc, #364]	; (2f60 <ip_input+0x240>)
    2df2:	47d0      	blx	sl
    2df4:	4f58      	ldr	r7, [pc, #352]	; (2f58 <ip_input+0x238>)
    2df6:	6838      	ldr	r0, [r7, #0]
    2df8:	2800      	cmp	r0, #0
    2dfa:	d02d      	beq.n	2e58 <ip_input+0x138>
    2dfc:	4641      	mov	r1, r8
    2dfe:	4b59      	ldr	r3, [pc, #356]	; (2f64 <ip_input+0x244>)
    2e00:	4798      	blx	r3
    2e02:	b920      	cbnz	r0, 2e0e <ip_input+0xee>
    2e04:	683b      	ldr	r3, [r7, #0]
    2e06:	f003 03f0 	and.w	r3, r3, #240	; 0xf0
    2e0a:	2be0      	cmp	r3, #224	; 0xe0
    2e0c:	d124      	bne.n	2e58 <ip_input+0x138>
    2e0e:	4856      	ldr	r0, [pc, #344]	; (2f68 <ip_input+0x248>)
    2e10:	4b56      	ldr	r3, [pc, #344]	; (2f6c <ip_input+0x24c>)
    2e12:	4798      	blx	r3
    2e14:	e7bd      	b.n	2d92 <ip_input+0x72>
    2e16:	4631      	mov	r1, r6
    2e18:	4b52      	ldr	r3, [pc, #328]	; (2f64 <ip_input+0x244>)
    2e1a:	4798      	blx	r3
    2e1c:	2800      	cmp	r0, #0
    2e1e:	d1e3      	bne.n	2de8 <ip_input+0xc8>
    2e20:	9b03      	ldr	r3, [sp, #12]
    2e22:	b1e3      	cbz	r3, 2e5e <ip_input+0x13e>
    2e24:	4b52      	ldr	r3, [pc, #328]	; (2f70 <ip_input+0x250>)
    2e26:	681e      	ldr	r6, [r3, #0]
    2e28:	4546      	cmp	r6, r8
    2e2a:	bf08      	it	eq
    2e2c:	6836      	ldreq	r6, [r6, #0]
    2e2e:	2300      	movs	r3, #0
    2e30:	9303      	str	r3, [sp, #12]
    2e32:	2e00      	cmp	r6, #0
    2e34:	d1c2      	bne.n	2dbc <ip_input+0x9c>
    2e36:	7a6b      	ldrb	r3, [r5, #9]
    2e38:	2b11      	cmp	r3, #17
    2e3a:	d1db      	bne.n	2df4 <ip_input+0xd4>
    2e3c:	442f      	add	r7, r5
    2e3e:	8878      	ldrh	r0, [r7, #2]
    2e40:	47c8      	blx	r9
    2e42:	4601      	mov	r1, r0
    2e44:	484b      	ldr	r0, [pc, #300]	; (2f74 <ip_input+0x254>)
    2e46:	47d0      	blx	sl
    2e48:	887b      	ldrh	r3, [r7, #2]
    2e4a:	f5b3 4f88 	cmp.w	r3, #17408	; 0x4400
    2e4e:	d1d1      	bne.n	2df4 <ip_input+0xd4>
    2e50:	4849      	ldr	r0, [pc, #292]	; (2f78 <ip_input+0x258>)
    2e52:	4b46      	ldr	r3, [pc, #280]	; (2f6c <ip_input+0x24c>)
    2e54:	4798      	blx	r3
    2e56:	4646      	mov	r6, r8
    2e58:	b91e      	cbnz	r6, 2e62 <ip_input+0x142>
    2e5a:	4848      	ldr	r0, [pc, #288]	; (2f7c <ip_input+0x25c>)
    2e5c:	e7d8      	b.n	2e10 <ip_input+0xf0>
    2e5e:	6836      	ldr	r6, [r6, #0]
    2e60:	e7e2      	b.n	2e28 <ip_input+0x108>
    2e62:	88eb      	ldrh	r3, [r5, #6]
    2e64:	f023 03c0 	bic.w	r3, r3, #192	; 0xc0
    2e68:	b1eb      	cbz	r3, 2ea6 <ip_input+0x186>
    2e6a:	88a8      	ldrh	r0, [r5, #4]
    2e6c:	47c8      	blx	r9
    2e6e:	4606      	mov	r6, r0
    2e70:	8868      	ldrh	r0, [r5, #2]
    2e72:	8927      	ldrh	r7, [r4, #8]
    2e74:	47c8      	blx	r9
    2e76:	9003      	str	r0, [sp, #12]
    2e78:	88ed      	ldrh	r5, [r5, #6]
    2e7a:	4628      	mov	r0, r5
    2e7c:	47c8      	blx	r9
    2e7e:	f3c0 000c 	ubfx	r0, r0, #0, #13
    2e82:	00c0      	lsls	r0, r0, #3
    2e84:	f3c5 1540 	ubfx	r5, r5, #5, #1
    2e88:	9001      	str	r0, [sp, #4]
    2e8a:	9b03      	ldr	r3, [sp, #12]
    2e8c:	9500      	str	r5, [sp, #0]
    2e8e:	463a      	mov	r2, r7
    2e90:	4631      	mov	r1, r6
    2e92:	483b      	ldr	r0, [pc, #236]	; (2f80 <ip_input+0x260>)
    2e94:	47d0      	blx	sl
    2e96:	4620      	mov	r0, r4
    2e98:	4b3a      	ldr	r3, [pc, #232]	; (2f84 <ip_input+0x264>)
    2e9a:	4798      	blx	r3
    2e9c:	4604      	mov	r4, r0
    2e9e:	2800      	cmp	r0, #0
    2ea0:	f43f af7a 	beq.w	2d98 <ip_input+0x78>
    2ea4:	6845      	ldr	r5, [r0, #4]
    2ea6:	4b31      	ldr	r3, [pc, #196]	; (2f6c <ip_input+0x24c>)
    2ea8:	4837      	ldr	r0, [pc, #220]	; (2f88 <ip_input+0x268>)
    2eaa:	4f38      	ldr	r7, [pc, #224]	; (2f8c <ip_input+0x26c>)
    2eac:	4e38      	ldr	r6, [pc, #224]	; (2f90 <ip_input+0x270>)
    2eae:	4798      	blx	r3
    2eb0:	4b22      	ldr	r3, [pc, #136]	; (2f3c <ip_input+0x21c>)
    2eb2:	4620      	mov	r0, r4
    2eb4:	4798      	blx	r3
    2eb6:	8961      	ldrh	r1, [r4, #10]
    2eb8:	8922      	ldrh	r2, [r4, #8]
    2eba:	4836      	ldr	r0, [pc, #216]	; (2f94 <ip_input+0x274>)
    2ebc:	47d0      	blx	sl
    2ebe:	4641      	mov	r1, r8
    2ec0:	4620      	mov	r0, r4
    2ec2:	4b35      	ldr	r3, [pc, #212]	; (2f98 <ip_input+0x278>)
    2ec4:	f8c7 8000 	str.w	r8, [r7]
    2ec8:	6035      	str	r5, [r6, #0]
    2eca:	4798      	blx	r3
    2ecc:	b970      	cbnz	r0, 2eec <ip_input+0x1cc>
    2ece:	7a6b      	ldrb	r3, [r5, #9]
    2ed0:	2b06      	cmp	r3, #6
    2ed2:	d013      	beq.n	2efc <ip_input+0x1dc>
    2ed4:	2b11      	cmp	r3, #17
    2ed6:	d005      	beq.n	2ee4 <ip_input+0x1c4>
    2ed8:	2b01      	cmp	r3, #1
    2eda:	d113      	bne.n	2f04 <ip_input+0x1e4>
    2edc:	4641      	mov	r1, r8
    2ede:	4620      	mov	r0, r4
    2ee0:	4b2e      	ldr	r3, [pc, #184]	; (2f9c <ip_input+0x27c>)
    2ee2:	e002      	b.n	2eea <ip_input+0x1ca>
    2ee4:	4b2e      	ldr	r3, [pc, #184]	; (2fa0 <ip_input+0x280>)
    2ee6:	4641      	mov	r1, r8
    2ee8:	4620      	mov	r0, r4
    2eea:	4798      	blx	r3
    2eec:	4a1a      	ldr	r2, [pc, #104]	; (2f58 <ip_input+0x238>)
    2eee:	2300      	movs	r3, #0
    2ef0:	603b      	str	r3, [r7, #0]
    2ef2:	6033      	str	r3, [r6, #0]
    2ef4:	6013      	str	r3, [r2, #0]
    2ef6:	f8cb 3000 	str.w	r3, [fp]
    2efa:	e74d      	b.n	2d98 <ip_input+0x78>
    2efc:	4641      	mov	r1, r8
    2efe:	4620      	mov	r0, r4
    2f00:	4b28      	ldr	r3, [pc, #160]	; (2fa4 <ip_input+0x284>)
    2f02:	e7f2      	b.n	2eea <ip_input+0x1ca>
    2f04:	4641      	mov	r1, r8
    2f06:	f8db 0000 	ldr.w	r0, [fp]
    2f0a:	4b16      	ldr	r3, [pc, #88]	; (2f64 <ip_input+0x244>)
    2f0c:	4798      	blx	r3
    2f0e:	b950      	cbnz	r0, 2f26 <ip_input+0x206>
    2f10:	f8db 3000 	ldr.w	r3, [fp]
    2f14:	f003 03f0 	and.w	r3, r3, #240	; 0xf0
    2f18:	2be0      	cmp	r3, #224	; 0xe0
    2f1a:	d004      	beq.n	2f26 <ip_input+0x206>
    2f1c:	6065      	str	r5, [r4, #4]
    2f1e:	2102      	movs	r1, #2
    2f20:	4620      	mov	r0, r4
    2f22:	4b21      	ldr	r3, [pc, #132]	; (2fa8 <ip_input+0x288>)
    2f24:	4798      	blx	r3
    2f26:	4620      	mov	r0, r4
    2f28:	4b08      	ldr	r3, [pc, #32]	; (2f4c <ip_input+0x22c>)
    2f2a:	4798      	blx	r3
    2f2c:	7a69      	ldrb	r1, [r5, #9]
    2f2e:	481f      	ldr	r0, [pc, #124]	; (2fac <ip_input+0x28c>)
    2f30:	47d0      	blx	sl
    2f32:	e7db      	b.n	2eec <ip_input+0x1cc>
    2f34:	0000a948 	.word	0x0000a948
    2f38:	00008485 	.word	0x00008485
    2f3c:	00002c3d 	.word	0x00002c3d
    2f40:	0000aa07 	.word	0x0000aa07
    2f44:	0000a979 	.word	0x0000a979
    2f48:	0000a9c7 	.word	0x0000a9c7
    2f4c:	00003f99 	.word	0x00003f99
    2f50:	000041b1 	.word	0x000041b1
    2f54:	200080c0 	.word	0x200080c0
    2f58:	200080b8 	.word	0x200080b8
    2f5c:	0000aa34 	.word	0x0000aa34
    2f60:	0000aa77 	.word	0x0000aa77
    2f64:	00003141 	.word	0x00003141
    2f68:	0000aaf2 	.word	0x0000aaf2
    2f6c:	00008595 	.word	0x00008595
    2f70:	2000907c 	.word	0x2000907c
    2f74:	0000aaa4 	.word	0x0000aaa4
    2f78:	0000aad2 	.word	0x0000aad2
    2f7c:	0000ab18 	.word	0x0000ab18
    2f80:	0000ab35 	.word	0x0000ab35
    2f84:	00003391 	.word	0x00003391
    2f88:	0000ab95 	.word	0x0000ab95
    2f8c:	200080bc 	.word	0x200080bc
    2f90:	200080c4 	.word	0x200080c4
    2f94:	0000aba0 	.word	0x0000aba0
    2f98:	00004415 	.word	0x00004415
    2f9c:	000028b5 	.word	0x000028b5
    2fa0:	00007465 	.word	0x00007465
    2fa4:	00005b4d 	.word	0x00005b4d
    2fa8:	00002a55 	.word	0x00002a55
    2fac:	0000abc5 	.word	0x0000abc5
    2fb0:	000011f3 	.word	0x000011f3
    2fb4:	00002b89 	.word	0x00002b89

00002fb8 <ip_output_if>:
    2fb8:	e92d 4ff0 	stmdb	sp!, {r4, r5, r6, r7, r8, r9, sl, fp, lr}
    2fbc:	b087      	sub	sp, #28
    2fbe:	461c      	mov	r4, r3
    2fc0:	f89d 3044 	ldrb.w	r3, [sp, #68]	; 0x44
    2fc4:	f89d 9040 	ldrb.w	r9, [sp, #64]	; 0x40
    2fc8:	9301      	str	r3, [sp, #4]
    2fca:	4607      	mov	r7, r0
    2fcc:	468b      	mov	fp, r1
    2fce:	9e12      	ldr	r6, [sp, #72]	; 0x48
    2fd0:	4690      	mov	r8, r2
    2fd2:	2a00      	cmp	r2, #0
    2fd4:	d065      	beq.n	30a2 <ip_output_if+0xea>
    2fd6:	2114      	movs	r1, #20
    2fd8:	4a39      	ldr	r2, [pc, #228]	; (30c0 <ip_output_if+0x108>)
    2fda:	4790      	blx	r2
    2fdc:	9b01      	ldr	r3, [sp, #4]
    2fde:	b138      	cbz	r0, 2ff0 <ip_output_if+0x38>
    2fe0:	4838      	ldr	r0, [pc, #224]	; (30c4 <ip_output_if+0x10c>)
    2fe2:	4b39      	ldr	r3, [pc, #228]	; (30c8 <ip_output_if+0x110>)
    2fe4:	4798      	blx	r3
    2fe6:	f06f 0001 	mvn.w	r0, #1
    2fea:	b007      	add	sp, #28
    2fec:	e8bd 8ff0 	ldmia.w	sp!, {r4, r5, r6, r7, r8, r9, sl, fp, pc}
    2ff0:	687d      	ldr	r5, [r7, #4]
    2ff2:	9001      	str	r0, [sp, #4]
    2ff4:	722c      	strb	r4, [r5, #8]
    2ff6:	726b      	strb	r3, [r5, #9]
    2ff8:	f8d8 0000 	ldr.w	r0, [r8]
    2ffc:	6128      	str	r0, [r5, #16]
    2ffe:	b281      	uxth	r1, r0
    3000:	ea4f 4a10 	mov.w	sl, r0, lsr #16
    3004:	2045      	movs	r0, #69	; 0x45
    3006:	f885 9001 	strb.w	r9, [r5, #1]
    300a:	7028      	strb	r0, [r5, #0]
    300c:	ea4f 2909 	mov.w	r9, r9, lsl #8
    3010:	ea49 0900 	orr.w	r9, r9, r0
    3014:	ea44 2403 	orr.w	r4, r4, r3, lsl #8
    3018:	8938      	ldrh	r0, [r7, #8]
    301a:	4b2c      	ldr	r3, [pc, #176]	; (30cc <ip_output_if+0x114>)
    301c:	9103      	str	r1, [sp, #12]
    301e:	9302      	str	r3, [sp, #8]
    3020:	4798      	blx	r3
    3022:	9a01      	ldr	r2, [sp, #4]
    3024:	71aa      	strb	r2, [r5, #6]
    3026:	71ea      	strb	r2, [r5, #7]
    3028:	4a29      	ldr	r2, [pc, #164]	; (30d0 <ip_output_if+0x118>)
    302a:	8068      	strh	r0, [r5, #2]
    302c:	9b02      	ldr	r3, [sp, #8]
    302e:	9201      	str	r2, [sp, #4]
    3030:	444c      	add	r4, r9
    3032:	4681      	mov	r9, r0
    3034:	8810      	ldrh	r0, [r2, #0]
    3036:	4798      	blx	r3
    3038:	9a01      	ldr	r2, [sp, #4]
    303a:	80a8      	strh	r0, [r5, #4]
    303c:	8813      	ldrh	r3, [r2, #0]
    303e:	9903      	ldr	r1, [sp, #12]
    3040:	3301      	adds	r3, #1
    3042:	8013      	strh	r3, [r2, #0]
    3044:	f1bb 0f00 	cmp.w	fp, #0
    3048:	d002      	beq.n	3050 <ip_output_if+0x98>
    304a:	f8db 3000 	ldr.w	r3, [fp]
    304e:	b903      	cbnz	r3, 3052 <ip_output_if+0x9a>
    3050:	6873      	ldr	r3, [r6, #4]
    3052:	60eb      	str	r3, [r5, #12]
    3054:	68eb      	ldr	r3, [r5, #12]
    3056:	fa14 f483 	uxtah	r4, r4, r3
    305a:	eb04 4413 	add.w	r4, r4, r3, lsr #16
    305e:	4421      	add	r1, r4
    3060:	448a      	add	sl, r1
    3062:	44ca      	add	sl, r9
    3064:	4450      	add	r0, sl
    3066:	b283      	uxth	r3, r0
    3068:	eb03 4010 	add.w	r0, r3, r0, lsr #16
    306c:	eb00 4010 	add.w	r0, r0, r0, lsr #16
    3070:	43c0      	mvns	r0, r0
    3072:	8168      	strh	r0, [r5, #10]
    3074:	f896 3038 	ldrb.w	r3, [r6, #56]	; 0x38
    3078:	f896 2037 	ldrb.w	r2, [r6, #55]	; 0x37
    307c:	f896 1036 	ldrb.w	r1, [r6, #54]	; 0x36
    3080:	4814      	ldr	r0, [pc, #80]	; (30d4 <ip_output_if+0x11c>)
    3082:	4c15      	ldr	r4, [pc, #84]	; (30d8 <ip_output_if+0x120>)
    3084:	47a0      	blx	r4
    3086:	4b15      	ldr	r3, [pc, #84]	; (30dc <ip_output_if+0x124>)
    3088:	4638      	mov	r0, r7
    308a:	4798      	blx	r3
    308c:	8db3      	ldrh	r3, [r6, #44]	; 0x2c
    308e:	b17b      	cbz	r3, 30b0 <ip_output_if+0xf8>
    3090:	893a      	ldrh	r2, [r7, #8]
    3092:	429a      	cmp	r2, r3
    3094:	d90c      	bls.n	30b0 <ip_output_if+0xf8>
    3096:	4b12      	ldr	r3, [pc, #72]	; (30e0 <ip_output_if+0x128>)
    3098:	4642      	mov	r2, r8
    309a:	4631      	mov	r1, r6
    309c:	4638      	mov	r0, r7
    309e:	4798      	blx	r3
    30a0:	e7a3      	b.n	2fea <ip_output_if+0x32>
    30a2:	6843      	ldr	r3, [r0, #4]
    30a4:	f10d 0818 	add.w	r8, sp, #24
    30a8:	691b      	ldr	r3, [r3, #16]
    30aa:	f848 3d04 	str.w	r3, [r8, #-4]!
    30ae:	e7e1      	b.n	3074 <ip_output_if+0xbc>
    30b0:	480c      	ldr	r0, [pc, #48]	; (30e4 <ip_output_if+0x12c>)
    30b2:	47a0      	blx	r4
    30b4:	6973      	ldr	r3, [r6, #20]
    30b6:	4642      	mov	r2, r8
    30b8:	4639      	mov	r1, r7
    30ba:	4630      	mov	r0, r6
    30bc:	e7ef      	b.n	309e <ip_output_if+0xe6>
    30be:	bf00      	nop
    30c0:	00003f01 	.word	0x00003f01
    30c4:	0000abe9 	.word	0x0000abe9
    30c8:	00008595 	.word	0x00008595
    30cc:	000011ed 	.word	0x000011ed
    30d0:	20001528 	.word	0x20001528
    30d4:	0000ac1a 	.word	0x0000ac1a
    30d8:	00008485 	.word	0x00008485
    30dc:	00002c3d 	.word	0x00002c3d
    30e0:	000036c9 	.word	0x000036c9
    30e4:	0000ac31 	.word	0x0000ac31

000030e8 <ip_output>:
    30e8:	b5f0      	push	{r4, r5, r6, r7, lr}
    30ea:	4605      	mov	r5, r0
    30ec:	b085      	sub	sp, #20
    30ee:	461f      	mov	r7, r3
    30f0:	4610      	mov	r0, r2
    30f2:	4b0f      	ldr	r3, [pc, #60]	; (3130 <ip_output+0x48>)
    30f4:	460e      	mov	r6, r1
    30f6:	4614      	mov	r4, r2
    30f8:	4798      	blx	r3
    30fa:	b958      	cbnz	r0, 3114 <ip_output+0x2c>
    30fc:	78e0      	ldrb	r0, [r4, #3]
    30fe:	78a3      	ldrb	r3, [r4, #2]
    3100:	7862      	ldrb	r2, [r4, #1]
    3102:	7821      	ldrb	r1, [r4, #0]
    3104:	9000      	str	r0, [sp, #0]
    3106:	4c0b      	ldr	r4, [pc, #44]	; (3134 <ip_output+0x4c>)
    3108:	480b      	ldr	r0, [pc, #44]	; (3138 <ip_output+0x50>)
    310a:	47a0      	blx	r4
    310c:	f06f 0003 	mvn.w	r0, #3
    3110:	b005      	add	sp, #20
    3112:	bdf0      	pop	{r4, r5, r6, r7, pc}
    3114:	f89d 302c 	ldrb.w	r3, [sp, #44]	; 0x2c
    3118:	9301      	str	r3, [sp, #4]
    311a:	f89d 3028 	ldrb.w	r3, [sp, #40]	; 0x28
    311e:	9002      	str	r0, [sp, #8]
    3120:	9300      	str	r3, [sp, #0]
    3122:	4622      	mov	r2, r4
    3124:	463b      	mov	r3, r7
    3126:	4631      	mov	r1, r6
    3128:	4628      	mov	r0, r5
    312a:	4c04      	ldr	r4, [pc, #16]	; (313c <ip_output+0x54>)
    312c:	47a0      	blx	r4
    312e:	e7ef      	b.n	3110 <ip_output+0x28>
    3130:	00002be5 	.word	0x00002be5
    3134:	00008485 	.word	0x00008485
    3138:	0000ac41 	.word	0x0000ac41
    313c:	00002fb9 	.word	0x00002fb9

00003140 <ip4_addr_isbroadcast>:
    3140:	1e43      	subs	r3, r0, #1
    3142:	3303      	adds	r3, #3
    3144:	d811      	bhi.n	316a <ip4_addr_isbroadcast+0x2a>
    3146:	f891 3035 	ldrb.w	r3, [r1, #53]	; 0x35
    314a:	f013 0302 	ands.w	r3, r3, #2
    314e:	d00e      	beq.n	316e <ip4_addr_isbroadcast+0x2e>
    3150:	684a      	ldr	r2, [r1, #4]
    3152:	4290      	cmp	r0, r2
    3154:	d00b      	beq.n	316e <ip4_addr_isbroadcast+0x2e>
    3156:	688b      	ldr	r3, [r1, #8]
    3158:	4042      	eors	r2, r0
    315a:	421a      	tst	r2, r3
    315c:	d107      	bne.n	316e <ip4_addr_isbroadcast+0x2e>
    315e:	43db      	mvns	r3, r3
    3160:	4383      	bics	r3, r0
    3162:	bf0c      	ite	eq
    3164:	2001      	moveq	r0, #1
    3166:	2000      	movne	r0, #0
    3168:	4770      	bx	lr
    316a:	2001      	movs	r0, #1
    316c:	4770      	bx	lr
    316e:	2000      	movs	r0, #0
    3170:	4770      	bx	lr

00003172 <ipaddr_ntoa_r>:
    3172:	e92d 47f3 	stmdb	sp!, {r0, r1, r4, r5, r6, r7, r8, r9, sl, lr}
    3176:	6803      	ldr	r3, [r0, #0]
    3178:	9301      	str	r3, [sp, #4]
    317a:	f10d 0003 	add.w	r0, sp, #3
    317e:	f10d 0c07 	add.w	ip, sp, #7
    3182:	460f      	mov	r7, r1
    3184:	2500      	movs	r5, #0
    3186:	f04f 0e0a 	mov.w	lr, #10
    318a:	f04f 082e 	mov.w	r8, #46	; 0x2e
    318e:	7844      	ldrb	r4, [r0, #1]
    3190:	2300      	movs	r3, #0
    3192:	f10d 0a08 	add.w	sl, sp, #8
    3196:	fbb4 f6fe 	udiv	r6, r4, lr
    319a:	449a      	add	sl, r3
    319c:	fb0e 4416 	mls	r4, lr, r6, r4
    31a0:	3430      	adds	r4, #48	; 0x30
    31a2:	f103 0901 	add.w	r9, r3, #1
    31a6:	f80a 4c08 	strb.w	r4, [sl, #-8]
    31aa:	f016 04ff 	ands.w	r4, r6, #255	; 0xff
    31ae:	fa5f f989 	uxtb.w	r9, r9
    31b2:	d117      	bne.n	31e4 <ipaddr_ntoa_r+0x72>
    31b4:	f800 4f01 	strb.w	r4, [r0, #1]!
    31b8:	1bed      	subs	r5, r5, r7
    31ba:	463c      	mov	r4, r7
    31bc:	2bff      	cmp	r3, #255	; 0xff
    31be:	eb04 0605 	add.w	r6, r4, r5
    31c2:	d111      	bne.n	31e8 <ipaddr_ntoa_r+0x76>
    31c4:	4296      	cmp	r6, r2
    31c6:	f106 0501 	add.w	r5, r6, #1
    31ca:	da19      	bge.n	3200 <ipaddr_ntoa_r+0x8e>
    31cc:	4560      	cmp	r0, ip
    31ce:	f104 0701 	add.w	r7, r4, #1
    31d2:	f884 8000 	strb.w	r8, [r4]
    31d6:	d1da      	bne.n	318e <ipaddr_ntoa_r+0x1c>
    31d8:	2300      	movs	r3, #0
    31da:	7023      	strb	r3, [r4, #0]
    31dc:	4608      	mov	r0, r1
    31de:	b002      	add	sp, #8
    31e0:	e8bd 87f0 	ldmia.w	sp!, {r4, r5, r6, r7, r8, r9, sl, pc}
    31e4:	464b      	mov	r3, r9
    31e6:	e7d4      	b.n	3192 <ipaddr_ntoa_r+0x20>
    31e8:	1e5f      	subs	r7, r3, #1
    31ea:	4296      	cmp	r6, r2
    31ec:	b2ff      	uxtb	r7, r7
    31ee:	da07      	bge.n	3200 <ipaddr_ntoa_r+0x8e>
    31f0:	ae02      	add	r6, sp, #8
    31f2:	4433      	add	r3, r6
    31f4:	f813 3c08 	ldrb.w	r3, [r3, #-8]
    31f8:	f804 3b01 	strb.w	r3, [r4], #1
    31fc:	463b      	mov	r3, r7
    31fe:	e7dd      	b.n	31bc <ipaddr_ntoa_r+0x4a>
    3200:	2000      	movs	r0, #0
    3202:	e7ec      	b.n	31de <ipaddr_ntoa_r+0x6c>

00003204 <ipfrag_free_pbuf_custom>:
    3204:	b510      	push	{r4, lr}
    3206:	4604      	mov	r4, r0
    3208:	6940      	ldr	r0, [r0, #20]
    320a:	b108      	cbz	r0, 3210 <ipfrag_free_pbuf_custom+0xc>
    320c:	4b03      	ldr	r3, [pc, #12]	; (321c <ipfrag_free_pbuf_custom+0x18>)
    320e:	4798      	blx	r3
    3210:	4621      	mov	r1, r4
    3212:	2006      	movs	r0, #6
    3214:	4b02      	ldr	r3, [pc, #8]	; (3220 <ipfrag_free_pbuf_custom+0x1c>)
    3216:	e8bd 4010 	ldmia.w	sp!, {r4, lr}
    321a:	4718      	bx	r3
    321c:	00003f99 	.word	0x00003f99
    3220:	00003b41 	.word	0x00003b41

00003224 <ip_reass_free_complete_datagram>:
    3224:	e92d 47f0 	stmdb	sp!, {r4, r5, r6, r7, r8, r9, sl, lr}
    3228:	6846      	ldr	r6, [r0, #4]
    322a:	6873      	ldr	r3, [r6, #4]
    322c:	889a      	ldrh	r2, [r3, #4]
    322e:	4604      	mov	r4, r0
    3230:	460f      	mov	r7, r1
    3232:	2a00      	cmp	r2, #0
    3234:	d12d      	bne.n	3292 <ip_reass_free_complete_datagram+0x6e>
    3236:	681a      	ldr	r2, [r3, #0]
    3238:	6042      	str	r2, [r0, #4]
    323a:	f100 011c 	add.w	r1, r0, #28
    323e:	f100 0208 	add.w	r2, r0, #8
    3242:	f852 0b04 	ldr.w	r0, [r2], #4
    3246:	f843 0b04 	str.w	r0, [r3], #4
    324a:	428a      	cmp	r2, r1
    324c:	d1f9      	bne.n	3242 <ip_reass_free_complete_datagram+0x1e>
    324e:	2101      	movs	r1, #1
    3250:	4630      	mov	r0, r6
    3252:	4b16      	ldr	r3, [pc, #88]	; (32ac <ip_reass_free_complete_datagram+0x88>)
    3254:	4798      	blx	r3
    3256:	4b16      	ldr	r3, [pc, #88]	; (32b0 <ip_reass_free_complete_datagram+0x8c>)
    3258:	4630      	mov	r0, r6
    325a:	4798      	blx	r3
    325c:	4b15      	ldr	r3, [pc, #84]	; (32b4 <ip_reass_free_complete_datagram+0x90>)
    325e:	b285      	uxth	r5, r0
    3260:	4630      	mov	r0, r6
    3262:	4798      	blx	r3
    3264:	6866      	ldr	r6, [r4, #4]
    3266:	f8df 8048 	ldr.w	r8, [pc, #72]	; 32b0 <ip_reass_free_complete_datagram+0x8c>
    326a:	f8df 9048 	ldr.w	r9, [pc, #72]	; 32b4 <ip_reass_free_complete_datagram+0x90>
    326e:	b996      	cbnz	r6, 3296 <ip_reass_free_complete_datagram+0x72>
    3270:	4e11      	ldr	r6, [pc, #68]	; (32b8 <ip_reass_free_complete_datagram+0x94>)
    3272:	6833      	ldr	r3, [r6, #0]
    3274:	429c      	cmp	r4, r3
    3276:	6823      	ldr	r3, [r4, #0]
    3278:	bf0c      	ite	eq
    327a:	6033      	streq	r3, [r6, #0]
    327c:	603b      	strne	r3, [r7, #0]
    327e:	4621      	mov	r1, r4
    3280:	2005      	movs	r0, #5
    3282:	4b0e      	ldr	r3, [pc, #56]	; (32bc <ip_reass_free_complete_datagram+0x98>)
    3284:	4798      	blx	r3
    3286:	88b3      	ldrh	r3, [r6, #4]
    3288:	1b5b      	subs	r3, r3, r5
    328a:	80b3      	strh	r3, [r6, #4]
    328c:	4628      	mov	r0, r5
    328e:	e8bd 87f0 	ldmia.w	sp!, {r4, r5, r6, r7, r8, r9, sl, pc}
    3292:	2500      	movs	r5, #0
    3294:	e7e6      	b.n	3264 <ip_reass_free_complete_datagram+0x40>
    3296:	6873      	ldr	r3, [r6, #4]
    3298:	4630      	mov	r0, r6
    329a:	f8d3 a000 	ldr.w	sl, [r3]
    329e:	47c0      	blx	r8
    32a0:	4405      	add	r5, r0
    32a2:	4630      	mov	r0, r6
    32a4:	b2ad      	uxth	r5, r5
    32a6:	47c8      	blx	r9
    32a8:	4656      	mov	r6, sl
    32aa:	e7e0      	b.n	326e <ip_reass_free_complete_datagram+0x4a>
    32ac:	00002a65 	.word	0x00002a65
    32b0:	00004205 	.word	0x00004205
    32b4:	00003f99 	.word	0x00003f99
    32b8:	2000152c 	.word	0x2000152c
    32bc:	00003b41 	.word	0x00003b41

000032c0 <ip_reass_remove_oldest_datagram>:
    32c0:	e92d 43f8 	stmdb	sp!, {r3, r4, r5, r6, r7, r8, r9, lr}
    32c4:	f8df 8068 	ldr.w	r8, [pc, #104]	; 3330 <ip_reass_remove_oldest_datagram+0x70>
    32c8:	f8df 9068 	ldr.w	r9, [pc, #104]	; 3334 <ip_reass_remove_oldest_datagram+0x74>
    32cc:	4606      	mov	r6, r0
    32ce:	460f      	mov	r7, r1
    32d0:	2500      	movs	r5, #0
    32d2:	2400      	movs	r4, #0
    32d4:	f8d8 3000 	ldr.w	r3, [r8]
    32d8:	4621      	mov	r1, r4
    32da:	4620      	mov	r0, r4
    32dc:	b94b      	cbnz	r3, 32f2 <ip_reass_remove_oldest_datagram+0x32>
    32de:	b108      	cbz	r0, 32e4 <ip_reass_remove_oldest_datagram+0x24>
    32e0:	47c8      	blx	r9
    32e2:	4405      	add	r5, r0
    32e4:	42bd      	cmp	r5, r7
    32e6:	da01      	bge.n	32ec <ip_reass_remove_oldest_datagram+0x2c>
    32e8:	2c01      	cmp	r4, #1
    32ea:	dcf2      	bgt.n	32d2 <ip_reass_remove_oldest_datagram+0x12>
    32ec:	4628      	mov	r0, r5
    32ee:	e8bd 83f8 	ldmia.w	sp!, {r3, r4, r5, r6, r7, r8, r9, pc}
    32f2:	f8d6 e00c 	ldr.w	lr, [r6, #12]
    32f6:	695a      	ldr	r2, [r3, #20]
    32f8:	4572      	cmp	r2, lr
    32fa:	d109      	bne.n	3310 <ip_reass_remove_oldest_datagram+0x50>
    32fc:	f8d6 e010 	ldr.w	lr, [r6, #16]
    3300:	699a      	ldr	r2, [r3, #24]
    3302:	4572      	cmp	r2, lr
    3304:	d104      	bne.n	3310 <ip_reass_remove_oldest_datagram+0x50>
    3306:	f8b3 e00c 	ldrh.w	lr, [r3, #12]
    330a:	88b2      	ldrh	r2, [r6, #4]
    330c:	4596      	cmp	lr, r2
    330e:	d007      	beq.n	3320 <ip_reass_remove_oldest_datagram+0x60>
    3310:	3401      	adds	r4, #1
    3312:	b158      	cbz	r0, 332c <ip_reass_remove_oldest_datagram+0x6c>
    3314:	f893 e01f 	ldrb.w	lr, [r3, #31]
    3318:	7fc2      	ldrb	r2, [r0, #31]
    331a:	4596      	cmp	lr, r2
    331c:	bf98      	it	ls
    331e:	4618      	movls	r0, r3
    3320:	681a      	ldr	r2, [r3, #0]
    3322:	2a00      	cmp	r2, #0
    3324:	bf18      	it	ne
    3326:	4619      	movne	r1, r3
    3328:	4613      	mov	r3, r2
    332a:	e7d7      	b.n	32dc <ip_reass_remove_oldest_datagram+0x1c>
    332c:	4618      	mov	r0, r3
    332e:	e7f7      	b.n	3320 <ip_reass_remove_oldest_datagram+0x60>
    3330:	2000152c 	.word	0x2000152c
    3334:	00003225 	.word	0x00003225

00003338 <ip_reass_tmr>:
    3338:	e92d 43f8 	stmdb	sp!, {r3, r4, r5, r6, r7, r8, r9, lr}
    333c:	4b0e      	ldr	r3, [pc, #56]	; (3378 <ip_reass_tmr+0x40>)
    333e:	4e0f      	ldr	r6, [pc, #60]	; (337c <ip_reass_tmr+0x44>)
    3340:	681c      	ldr	r4, [r3, #0]
    3342:	4f0f      	ldr	r7, [pc, #60]	; (3380 <ip_reass_tmr+0x48>)
    3344:	f8df 8044 	ldr.w	r8, [pc, #68]	; 338c <ip_reass_tmr+0x54>
    3348:	2500      	movs	r5, #0
    334a:	b90c      	cbnz	r4, 3350 <ip_reass_tmr+0x18>
    334c:	e8bd 83f8 	ldmia.w	sp!, {r3, r4, r5, r6, r7, r8, r9, pc}
    3350:	7fe1      	ldrb	r1, [r4, #31]
    3352:	b141      	cbz	r1, 3366 <ip_reass_tmr+0x2e>
    3354:	3901      	subs	r1, #1
    3356:	b2c9      	uxtb	r1, r1
    3358:	77e1      	strb	r1, [r4, #31]
    335a:	480a      	ldr	r0, [pc, #40]	; (3384 <ip_reass_tmr+0x4c>)
    335c:	4b0a      	ldr	r3, [pc, #40]	; (3388 <ip_reass_tmr+0x50>)
    335e:	4798      	blx	r3
    3360:	4625      	mov	r5, r4
    3362:	6824      	ldr	r4, [r4, #0]
    3364:	e7f1      	b.n	334a <ip_reass_tmr+0x12>
    3366:	4630      	mov	r0, r6
    3368:	47b8      	blx	r7
    336a:	f8d4 9000 	ldr.w	r9, [r4]
    336e:	4620      	mov	r0, r4
    3370:	4629      	mov	r1, r5
    3372:	47c0      	blx	r8
    3374:	464c      	mov	r4, r9
    3376:	e7e8      	b.n	334a <ip_reass_tmr+0x12>
    3378:	2000152c 	.word	0x2000152c
    337c:	0000ac91 	.word	0x0000ac91
    3380:	00008595 	.word	0x00008595
    3384:	0000ac74 	.word	0x0000ac74
    3388:	00008485 	.word	0x00008485
    338c:	00003225 	.word	0x00003225

00003390 <ip_reass>:
    3390:	e92d 4ff0 	stmdb	sp!, {r4, r5, r6, r7, r8, r9, sl, fp, lr}
    3394:	6844      	ldr	r4, [r0, #4]
    3396:	7823      	ldrb	r3, [r4, #0]
    3398:	f003 030f 	and.w	r3, r3, #15
    339c:	2b05      	cmp	r3, #5
    339e:	b085      	sub	sp, #20
    33a0:	4605      	mov	r5, r0
    33a2:	d003      	beq.n	33ac <ip_reass+0x1c>
    33a4:	48b3      	ldr	r0, [pc, #716]	; (3674 <ip_reass+0x2e4>)
    33a6:	4bb4      	ldr	r3, [pc, #720]	; (3678 <ip_reass+0x2e8>)
    33a8:	4798      	blx	r3
    33aa:	e022      	b.n	33f2 <ip_reass+0x62>
    33ac:	4eb3      	ldr	r6, [pc, #716]	; (367c <ip_reass+0x2ec>)
    33ae:	88e0      	ldrh	r0, [r4, #6]
    33b0:	4fb3      	ldr	r7, [pc, #716]	; (3680 <ip_reass+0x2f0>)
    33b2:	47b0      	blx	r6
    33b4:	9001      	str	r0, [sp, #4]
    33b6:	8860      	ldrh	r0, [r4, #2]
    33b8:	47b0      	blx	r6
    33ba:	7823      	ldrb	r3, [r4, #0]
    33bc:	9002      	str	r0, [sp, #8]
    33be:	4628      	mov	r0, r5
    33c0:	9303      	str	r3, [sp, #12]
    33c2:	47b8      	blx	r7
    33c4:	4aaf      	ldr	r2, [pc, #700]	; (3684 <ip_reass+0x2f4>)
    33c6:	9700      	str	r7, [sp, #0]
    33c8:	8893      	ldrh	r3, [r2, #4]
    33ca:	4403      	add	r3, r0
    33cc:	2b0a      	cmp	r3, #10
    33ce:	4680      	mov	r8, r0
    33d0:	4617      	mov	r7, r2
    33d2:	dd15      	ble.n	3400 <ip_reass+0x70>
    33d4:	4601      	mov	r1, r0
    33d6:	4bac      	ldr	r3, [pc, #688]	; (3688 <ip_reass+0x2f8>)
    33d8:	4620      	mov	r0, r4
    33da:	4798      	blx	r3
    33dc:	b118      	cbz	r0, 33e6 <ip_reass+0x56>
    33de:	88bb      	ldrh	r3, [r7, #4]
    33e0:	4443      	add	r3, r8
    33e2:	2b0a      	cmp	r3, #10
    33e4:	dd0c      	ble.n	3400 <ip_reass+0x70>
    33e6:	230a      	movs	r3, #10
    33e8:	4642      	mov	r2, r8
    33ea:	88b9      	ldrh	r1, [r7, #4]
    33ec:	48a7      	ldr	r0, [pc, #668]	; (368c <ip_reass+0x2fc>)
    33ee:	4ca8      	ldr	r4, [pc, #672]	; (3690 <ip_reass+0x300>)
    33f0:	47a0      	blx	r4
    33f2:	4ba1      	ldr	r3, [pc, #644]	; (3678 <ip_reass+0x2e8>)
    33f4:	48a7      	ldr	r0, [pc, #668]	; (3694 <ip_reass+0x304>)
    33f6:	4798      	blx	r3
    33f8:	4628      	mov	r0, r5
    33fa:	4ba7      	ldr	r3, [pc, #668]	; (3698 <ip_reass+0x308>)
    33fc:	4798      	blx	r3
    33fe:	e12b      	b.n	3658 <ip_reass+0x2c8>
    3400:	f8d7 9000 	ldr.w	r9, [r7]
    3404:	f04f 0a00 	mov.w	sl, #0
    3408:	f1b9 0f00 	cmp.w	r9, #0
    340c:	d10e      	bne.n	342c <ip_reass+0x9c>
    340e:	2005      	movs	r0, #5
    3410:	f8df b2ac 	ldr.w	fp, [pc, #684]	; 36c0 <ip_reass+0x330>
    3414:	47d8      	blx	fp
    3416:	4681      	mov	r9, r0
    3418:	2800      	cmp	r0, #0
    341a:	d13b      	bne.n	3494 <ip_reass+0x104>
    341c:	4641      	mov	r1, r8
    341e:	4620      	mov	r0, r4
    3420:	4b99      	ldr	r3, [pc, #612]	; (3688 <ip_reass+0x2f8>)
    3422:	4798      	blx	r3
    3424:	4580      	cmp	r8, r0
    3426:	dd30      	ble.n	348a <ip_reass+0xfa>
    3428:	489c      	ldr	r0, [pc, #624]	; (369c <ip_reass+0x30c>)
    342a:	e7bc      	b.n	33a6 <ip_reass+0x16>
    342c:	68e2      	ldr	r2, [r4, #12]
    342e:	f8d9 1014 	ldr.w	r1, [r9, #20]
    3432:	4291      	cmp	r1, r2
    3434:	d125      	bne.n	3482 <ip_reass+0xf2>
    3436:	6922      	ldr	r2, [r4, #16]
    3438:	f8d9 1018 	ldr.w	r1, [r9, #24]
    343c:	4291      	cmp	r1, r2
    343e:	d120      	bne.n	3482 <ip_reass+0xf2>
    3440:	f8b9 200c 	ldrh.w	r2, [r9, #12]
    3444:	88a0      	ldrh	r0, [r4, #4]
    3446:	4290      	cmp	r0, r2
    3448:	d11b      	bne.n	3482 <ip_reass+0xf2>
    344a:	47b0      	blx	r6
    344c:	4a90      	ldr	r2, [pc, #576]	; (3690 <ip_reass+0x300>)
    344e:	4601      	mov	r1, r0
    3450:	4893      	ldr	r0, [pc, #588]	; (36a0 <ip_reass+0x310>)
    3452:	4790      	blx	r2
    3454:	88e0      	ldrh	r0, [r4, #6]
    3456:	47b0      	blx	r6
    3458:	f3c0 000c 	ubfx	r0, r0, #0, #13
    345c:	bb90      	cbnz	r0, 34c4 <ip_reass+0x134>
    345e:	f8b9 000e 	ldrh.w	r0, [r9, #14]
    3462:	47b0      	blx	r6
    3464:	f3c0 000c 	ubfx	r0, r0, #0, #13
    3468:	b360      	cbz	r0, 34c4 <ip_reass+0x134>
    346a:	4622      	mov	r2, r4
    346c:	f109 0108 	add.w	r1, r9, #8
    3470:	f104 0014 	add.w	r0, r4, #20
    3474:	f852 7b04 	ldr.w	r7, [r2], #4
    3478:	f841 7b04 	str.w	r7, [r1], #4
    347c:	4282      	cmp	r2, r0
    347e:	d1f9      	bne.n	3474 <ip_reass+0xe4>
    3480:	e020      	b.n	34c4 <ip_reass+0x134>
    3482:	46ca      	mov	sl, r9
    3484:	f8d9 9000 	ldr.w	r9, [r9]
    3488:	e7be      	b.n	3408 <ip_reass+0x78>
    348a:	2005      	movs	r0, #5
    348c:	47d8      	blx	fp
    348e:	4681      	mov	r9, r0
    3490:	2800      	cmp	r0, #0
    3492:	d0c9      	beq.n	3428 <ip_reass+0x98>
    3494:	2220      	movs	r2, #32
    3496:	2100      	movs	r1, #0
    3498:	4648      	mov	r0, r9
    349a:	4b82      	ldr	r3, [pc, #520]	; (36a4 <ip_reass+0x314>)
    349c:	4798      	blx	r3
    349e:	2203      	movs	r2, #3
    34a0:	f889 201f 	strb.w	r2, [r9, #31]
    34a4:	683a      	ldr	r2, [r7, #0]
    34a6:	f8c9 2000 	str.w	r2, [r9]
    34aa:	f8c7 9000 	str.w	r9, [r7]
    34ae:	4622      	mov	r2, r4
    34b0:	f109 0108 	add.w	r1, r9, #8
    34b4:	f104 0014 	add.w	r0, r4, #20
    34b8:	f852 7b04 	ldr.w	r7, [r2], #4
    34bc:	f841 7b04 	str.w	r7, [r1], #4
    34c0:	4282      	cmp	r2, r0
    34c2:	d1f9      	bne.n	34b8 <ip_reass+0x128>
    34c4:	4a6f      	ldr	r2, [pc, #444]	; (3684 <ip_reass+0x2f4>)
    34c6:	8891      	ldrh	r1, [r2, #4]
    34c8:	4488      	add	r8, r1
    34ca:	f8a2 8004 	strh.w	r8, [r2, #4]
    34ce:	88e1      	ldrh	r1, [r4, #6]
    34d0:	f011 0f20 	tst.w	r1, #32
    34d4:	4614      	mov	r4, r2
    34d6:	d114      	bne.n	3502 <ip_reass+0x172>
    34d8:	9b03      	ldr	r3, [sp, #12]
    34da:	f899 201e 	ldrb.w	r2, [r9, #30]
    34de:	4872      	ldr	r0, [pc, #456]	; (36a8 <ip_reass+0x318>)
    34e0:	f003 010f 	and.w	r1, r3, #15
    34e4:	9b02      	ldr	r3, [sp, #8]
    34e6:	eba3 0181 	sub.w	r1, r3, r1, lsl #2
    34ea:	9b01      	ldr	r3, [sp, #4]
    34ec:	eb01 01c3 	add.w	r1, r1, r3, lsl #3
    34f0:	f042 0201 	orr.w	r2, r2, #1
    34f4:	b289      	uxth	r1, r1
    34f6:	f889 201e 	strb.w	r2, [r9, #30]
    34fa:	f8a9 101c 	strh.w	r1, [r9, #28]
    34fe:	4a64      	ldr	r2, [pc, #400]	; (3690 <ip_reass+0x300>)
    3500:	4790      	blx	r2
    3502:	f8d5 8004 	ldr.w	r8, [r5, #4]
    3506:	f8b8 0002 	ldrh.w	r0, [r8, #2]
    350a:	47b0      	blx	r6
    350c:	f898 7000 	ldrb.w	r7, [r8]
    3510:	f007 070f 	and.w	r7, r7, #15
    3514:	eba0 0787 	sub.w	r7, r0, r7, lsl #2
    3518:	f8b8 0006 	ldrh.w	r0, [r8, #6]
    351c:	47b0      	blx	r6
    351e:	f3c0 000c 	ubfx	r0, r0, #0, #13
    3522:	00c0      	lsls	r0, r0, #3
    3524:	b2bf      	uxth	r7, r7
    3526:	6869      	ldr	r1, [r5, #4]
    3528:	f8d9 6004 	ldr.w	r6, [r9, #4]
    352c:	8088      	strh	r0, [r1, #4]
    352e:	4407      	add	r7, r0
    3530:	2200      	movs	r2, #0
    3532:	b2bf      	uxth	r7, r7
    3534:	700a      	strb	r2, [r1, #0]
    3536:	704a      	strb	r2, [r1, #1]
    3538:	708a      	strb	r2, [r1, #2]
    353a:	70ca      	strb	r2, [r1, #3]
    353c:	80cf      	strh	r7, [r1, #6]
    353e:	2301      	movs	r3, #1
    3540:	b926      	cbnz	r6, 354c <ip_reass+0x1bc>
    3542:	2a00      	cmp	r2, #0
    3544:	d16d      	bne.n	3622 <ip_reass+0x292>
    3546:	f8c9 5004 	str.w	r5, [r9, #4]
    354a:	e00e      	b.n	356a <ip_reass+0x1da>
    354c:	f8d6 c004 	ldr.w	ip, [r6, #4]
    3550:	f8bc 8004 	ldrh.w	r8, [ip, #4]
    3554:	4540      	cmp	r0, r8
    3556:	d256      	bcs.n	3606 <ip_reass+0x276>
    3558:	600e      	str	r6, [r1, #0]
    355a:	2a00      	cmp	r2, #0
    355c:	d0f3      	beq.n	3546 <ip_reass+0x1b6>
    355e:	88d6      	ldrh	r6, [r2, #6]
    3560:	4286      	cmp	r6, r0
    3562:	d86c      	bhi.n	363e <ip_reass+0x2ae>
    3564:	4547      	cmp	r7, r8
    3566:	d86a      	bhi.n	363e <ip_reass+0x2ae>
    3568:	6015      	str	r5, [r2, #0]
    356a:	f899 201e 	ldrb.w	r2, [r9, #30]
    356e:	07d2      	lsls	r2, r2, #31
    3570:	d56e      	bpl.n	3650 <ip_reass+0x2c0>
    3572:	2b00      	cmp	r3, #0
    3574:	d06c      	beq.n	3650 <ip_reass+0x2c0>
    3576:	f8d9 2004 	ldr.w	r2, [r9, #4]
    357a:	6855      	ldr	r5, [r2, #4]
    357c:	88aa      	ldrh	r2, [r5, #4]
    357e:	2a00      	cmp	r2, #0
    3580:	d166      	bne.n	3650 <ip_reass+0x2c0>
    3582:	680a      	ldr	r2, [r1, #0]
    3584:	2a00      	cmp	r2, #0
    3586:	d152      	bne.n	362e <ip_reass+0x29e>
    3588:	f8b9 201c 	ldrh.w	r2, [r9, #28]
    358c:	682e      	ldr	r6, [r5, #0]
    358e:	3214      	adds	r2, #20
    3590:	f8a9 201c 	strh.w	r2, [r9, #28]
    3594:	4629      	mov	r1, r5
    3596:	f109 0208 	add.w	r2, r9, #8
    359a:	f109 001c 	add.w	r0, r9, #28
    359e:	f852 7b04 	ldr.w	r7, [r2], #4
    35a2:	f841 7b04 	str.w	r7, [r1], #4
    35a6:	4282      	cmp	r2, r0
    35a8:	d1f9      	bne.n	359e <ip_reass+0x20e>
    35aa:	4a40      	ldr	r2, [pc, #256]	; (36ac <ip_reass+0x31c>)
    35ac:	f8b9 001c 	ldrh.w	r0, [r9, #28]
    35b0:	4f3f      	ldr	r7, [pc, #252]	; (36b0 <ip_reass+0x320>)
    35b2:	f8df 8110 	ldr.w	r8, [pc, #272]	; 36c4 <ip_reass+0x334>
    35b6:	4790      	blx	r2
    35b8:	2200      	movs	r2, #0
    35ba:	8068      	strh	r0, [r5, #2]
    35bc:	71aa      	strb	r2, [r5, #6]
    35be:	71ea      	strb	r2, [r5, #7]
    35c0:	72aa      	strb	r2, [r5, #10]
    35c2:	72ea      	strb	r2, [r5, #11]
    35c4:	4628      	mov	r0, r5
    35c6:	2114      	movs	r1, #20
    35c8:	4a3a      	ldr	r2, [pc, #232]	; (36b4 <ip_reass+0x324>)
    35ca:	4790      	blx	r2
    35cc:	8168      	strh	r0, [r5, #10]
    35ce:	f8d9 5004 	ldr.w	r5, [r9, #4]
    35d2:	2e00      	cmp	r6, #0
    35d4:	d142      	bne.n	365c <ip_reass+0x2cc>
    35d6:	6822      	ldr	r2, [r4, #0]
    35d8:	4b37      	ldr	r3, [pc, #220]	; (36b8 <ip_reass+0x328>)
    35da:	4591      	cmp	r9, r2
    35dc:	f8d9 2000 	ldr.w	r2, [r9]
    35e0:	bf18      	it	ne
    35e2:	f8ca 2000 	strne.w	r2, [sl]
    35e6:	4649      	mov	r1, r9
    35e8:	f04f 0005 	mov.w	r0, #5
    35ec:	bf08      	it	eq
    35ee:	6022      	streq	r2, [r4, #0]
    35f0:	4798      	blx	r3
    35f2:	9b00      	ldr	r3, [sp, #0]
    35f4:	4628      	mov	r0, r5
    35f6:	4798      	blx	r3
    35f8:	88a3      	ldrh	r3, [r4, #4]
    35fa:	1a18      	subs	r0, r3, r0
    35fc:	80a0      	strh	r0, [r4, #4]
    35fe:	4628      	mov	r0, r5
    3600:	b005      	add	sp, #20
    3602:	e8bd 8ff0 	ldmia.w	sp!, {r4, r5, r6, r7, r8, r9, sl, fp, pc}
    3606:	d01a      	beq.n	363e <ip_reass+0x2ae>
    3608:	f8bc 6006 	ldrh.w	r6, [ip, #6]
    360c:	4286      	cmp	r6, r0
    360e:	d816      	bhi.n	363e <ip_reass+0x2ae>
    3610:	b11a      	cbz	r2, 361a <ip_reass+0x28a>
    3612:	88d2      	ldrh	r2, [r2, #6]
    3614:	4542      	cmp	r2, r8
    3616:	bf18      	it	ne
    3618:	2300      	movne	r3, #0
    361a:	f8dc 6000 	ldr.w	r6, [ip]
    361e:	4662      	mov	r2, ip
    3620:	e78e      	b.n	3540 <ip_reass+0x1b0>
    3622:	6015      	str	r5, [r2, #0]
    3624:	88d2      	ldrh	r2, [r2, #6]
    3626:	4282      	cmp	r2, r0
    3628:	bf18      	it	ne
    362a:	2300      	movne	r3, #0
    362c:	e79d      	b.n	356a <ip_reass+0x1da>
    362e:	6850      	ldr	r0, [r2, #4]
    3630:	88c9      	ldrh	r1, [r1, #6]
    3632:	8882      	ldrh	r2, [r0, #4]
    3634:	4291      	cmp	r1, r2
    3636:	d10b      	bne.n	3650 <ip_reass+0x2c0>
    3638:	6802      	ldr	r2, [r0, #0]
    363a:	4601      	mov	r1, r0
    363c:	e7a2      	b.n	3584 <ip_reass+0x1f4>
    363e:	9b00      	ldr	r3, [sp, #0]
    3640:	4628      	mov	r0, r5
    3642:	4798      	blx	r3
    3644:	88a3      	ldrh	r3, [r4, #4]
    3646:	1a18      	subs	r0, r3, r0
    3648:	80a0      	strh	r0, [r4, #4]
    364a:	4b13      	ldr	r3, [pc, #76]	; (3698 <ip_reass+0x308>)
    364c:	4628      	mov	r0, r5
    364e:	4798      	blx	r3
    3650:	88a1      	ldrh	r1, [r4, #4]
    3652:	481a      	ldr	r0, [pc, #104]	; (36bc <ip_reass+0x32c>)
    3654:	4b0e      	ldr	r3, [pc, #56]	; (3690 <ip_reass+0x300>)
    3656:	4798      	blx	r3
    3658:	2500      	movs	r5, #0
    365a:	e7d0      	b.n	35fe <ip_reass+0x26e>
    365c:	f8d6 b004 	ldr.w	fp, [r6, #4]
    3660:	f06f 0113 	mvn.w	r1, #19
    3664:	4630      	mov	r0, r6
    3666:	47b8      	blx	r7
    3668:	4631      	mov	r1, r6
    366a:	4628      	mov	r0, r5
    366c:	47c0      	blx	r8
    366e:	f8db 6000 	ldr.w	r6, [fp]
    3672:	e7ae      	b.n	35d2 <ip_reass+0x242>
    3674:	0000acaf 	.word	0x0000acaf
    3678:	00008595 	.word	0x00008595
    367c:	000011f3 	.word	0x000011f3
    3680:	00004205 	.word	0x00004205
    3684:	2000152c 	.word	0x2000152c
    3688:	000032c1 	.word	0x000032c1
    368c:	0000acdd 	.word	0x0000acdd
    3690:	00008485 	.word	0x00008485
    3694:	0000adae 	.word	0x0000adae
    3698:	00003f99 	.word	0x00003f99
    369c:	0000ad44 	.word	0x0000ad44
    36a0:	0000ad17 	.word	0x0000ad17
    36a4:	00008475 	.word	0x00008475
    36a8:	0000ad65 	.word	0x0000ad65
    36ac:	000011ed 	.word	0x000011ed
    36b0:	00003f01 	.word	0x00003f01
    36b4:	00002b89 	.word	0x00002b89
    36b8:	00003b41 	.word	0x00003b41
    36bc:	0000ad92 	.word	0x0000ad92
    36c0:	00003ae9 	.word	0x00003ae9
    36c4:	00004221 	.word	0x00004221

000036c8 <ip_frag>:
    36c8:	e92d 4ff0 	stmdb	sp!, {r4, r5, r6, r7, r8, r9, sl, fp, lr}
    36cc:	b08f      	sub	sp, #60	; 0x3c
    36ce:	8d8b      	ldrh	r3, [r1, #44]	; 0x2c
    36d0:	9308      	str	r3, [sp, #32]
    36d2:	6843      	ldr	r3, [r0, #4]
    36d4:	920c      	str	r2, [sp, #48]	; 0x30
    36d6:	9306      	str	r3, [sp, #24]
    36d8:	9107      	str	r1, [sp, #28]
    36da:	4605      	mov	r5, r0
    36dc:	88d8      	ldrh	r0, [r3, #6]
    36de:	4b56      	ldr	r3, [pc, #344]	; (3838 <ip_frag+0x170>)
    36e0:	4798      	blx	r3
    36e2:	892c      	ldrh	r4, [r5, #8]
    36e4:	f3c0 030c 	ubfx	r3, r0, #0, #13
    36e8:	9305      	str	r3, [sp, #20]
    36ea:	3c14      	subs	r4, #20
    36ec:	f400 5300 	and.w	r3, r0, #8192	; 0x2000
    36f0:	930a      	str	r3, [sp, #40]	; 0x28
    36f2:	b2a3      	uxth	r3, r4
    36f4:	9303      	str	r3, [sp, #12]
    36f6:	9b08      	ldr	r3, [sp, #32]
    36f8:	2208      	movs	r2, #8
    36fa:	3b14      	subs	r3, #20
    36fc:	fb93 f3f2 	sdiv	r3, r3, r2
    3700:	b29b      	uxth	r3, r3
    3702:	9309      	str	r3, [sp, #36]	; 0x24
    3704:	00db      	lsls	r3, r3, #3
    3706:	b29b      	uxth	r3, r3
    3708:	930b      	str	r3, [sp, #44]	; 0x2c
    370a:	2600      	movs	r6, #0
    370c:	2714      	movs	r7, #20
    370e:	9b03      	ldr	r3, [sp, #12]
    3710:	b91b      	cbnz	r3, 371a <ip_frag+0x52>
    3712:	4618      	mov	r0, r3
    3714:	b00f      	add	sp, #60	; 0x3c
    3716:	e8bd 8ff0 	ldmia.w	sp!, {r4, r5, r6, r7, r8, r9, sl, fp, pc}
    371a:	9b05      	ldr	r3, [sp, #20]
    371c:	9a03      	ldr	r2, [sp, #12]
    371e:	f3c3 0a0c 	ubfx	sl, r3, #0, #13
    3722:	9b0a      	ldr	r3, [sp, #40]	; 0x28
    3724:	ea43 0a0a 	orr.w	sl, r3, sl
    3728:	9b08      	ldr	r3, [sp, #32]
    372a:	3b13      	subs	r3, #19
    372c:	4293      	cmp	r3, r2
    372e:	bfd4      	ite	le
    3730:	9b0b      	ldrle	r3, [sp, #44]	; 0x2c
    3732:	9b03      	ldrgt	r3, [sp, #12]
    3734:	9304      	str	r3, [sp, #16]
    3736:	f04f 0200 	mov.w	r2, #0
    373a:	f04f 0114 	mov.w	r1, #20
    373e:	f04f 0002 	mov.w	r0, #2
    3742:	4b3e      	ldr	r3, [pc, #248]	; (383c <ip_frag+0x174>)
    3744:	bfd8      	it	le
    3746:	f44a 5a00 	orrle.w	sl, sl, #8192	; 0x2000
    374a:	4798      	blx	r3
    374c:	4680      	mov	r8, r0
    374e:	b320      	cbz	r0, 379a <ip_frag+0xd2>
    3750:	9b06      	ldr	r3, [sp, #24]
    3752:	6842      	ldr	r2, [r0, #4]
    3754:	4619      	mov	r1, r3
    3756:	3114      	adds	r1, #20
    3758:	f853 0b04 	ldr.w	r0, [r3], #4
    375c:	f842 0b04 	str.w	r0, [r2], #4
    3760:	428b      	cmp	r3, r1
    3762:	d1f9      	bne.n	3758 <ip_frag+0x90>
    3764:	686b      	ldr	r3, [r5, #4]
    3766:	f8d8 9004 	ldr.w	r9, [r8, #4]
    376a:	443b      	add	r3, r7
    376c:	606b      	str	r3, [r5, #4]
    376e:	896b      	ldrh	r3, [r5, #10]
    3770:	1bdf      	subs	r7, r3, r7
    3772:	816f      	strh	r7, [r5, #10]
    3774:	9f04      	ldr	r7, [sp, #16]
    3776:	2f00      	cmp	r7, #0
    3778:	d032      	beq.n	37e0 <ip_frag+0x118>
    377a:	896e      	ldrh	r6, [r5, #10]
    377c:	42be      	cmp	r6, r7
    377e:	bf28      	it	cs
    3780:	463e      	movcs	r6, r7
    3782:	b2b6      	uxth	r6, r6
    3784:	b90e      	cbnz	r6, 378a <ip_frag+0xc2>
    3786:	682d      	ldr	r5, [r5, #0]
    3788:	e7f5      	b.n	3776 <ip_frag+0xae>
    378a:	2006      	movs	r0, #6
    378c:	4b2c      	ldr	r3, [pc, #176]	; (3840 <ip_frag+0x178>)
    378e:	4798      	blx	r3
    3790:	4683      	mov	fp, r0
    3792:	b928      	cbnz	r0, 37a0 <ip_frag+0xd8>
    3794:	4640      	mov	r0, r8
    3796:	4b2b      	ldr	r3, [pc, #172]	; (3844 <ip_frag+0x17c>)
    3798:	4798      	blx	r3
    379a:	f04f 30ff 	mov.w	r0, #4294967295
    379e:	e7b9      	b.n	3714 <ip_frag+0x4c>
    37a0:	9601      	str	r6, [sp, #4]
    37a2:	686b      	ldr	r3, [r5, #4]
    37a4:	9300      	str	r3, [sp, #0]
    37a6:	2202      	movs	r2, #2
    37a8:	4603      	mov	r3, r0
    37aa:	4631      	mov	r1, r6
    37ac:	2003      	movs	r0, #3
    37ae:	4c26      	ldr	r4, [pc, #152]	; (3848 <ip_frag+0x180>)
    37b0:	47a0      	blx	r4
    37b2:	b920      	cbnz	r0, 37be <ip_frag+0xf6>
    37b4:	4659      	mov	r1, fp
    37b6:	2006      	movs	r0, #6
    37b8:	4b24      	ldr	r3, [pc, #144]	; (384c <ip_frag+0x184>)
    37ba:	4798      	blx	r3
    37bc:	e7ea      	b.n	3794 <ip_frag+0xcc>
    37be:	900d      	str	r0, [sp, #52]	; 0x34
    37c0:	4b23      	ldr	r3, [pc, #140]	; (3850 <ip_frag+0x188>)
    37c2:	4628      	mov	r0, r5
    37c4:	4798      	blx	r3
    37c6:	1bbf      	subs	r7, r7, r6
    37c8:	4b22      	ldr	r3, [pc, #136]	; (3854 <ip_frag+0x18c>)
    37ca:	f8cb 3010 	str.w	r3, [fp, #16]
    37ce:	f8cb 5014 	str.w	r5, [fp, #20]
    37d2:	990d      	ldr	r1, [sp, #52]	; 0x34
    37d4:	4b20      	ldr	r3, [pc, #128]	; (3858 <ip_frag+0x190>)
    37d6:	4640      	mov	r0, r8
    37d8:	b2bf      	uxth	r7, r7
    37da:	4798      	blx	r3
    37dc:	2f00      	cmp	r7, #0
    37de:	d1d2      	bne.n	3786 <ip_frag+0xbe>
    37e0:	4650      	mov	r0, sl
    37e2:	f8df a07c 	ldr.w	sl, [pc, #124]	; 3860 <ip_frag+0x198>
    37e6:	47d0      	blx	sl
    37e8:	9b04      	ldr	r3, [sp, #16]
    37ea:	f8a9 0006 	strh.w	r0, [r9, #6]
    37ee:	f103 0014 	add.w	r0, r3, #20
    37f2:	b280      	uxth	r0, r0
    37f4:	47d0      	blx	sl
    37f6:	f889 700a 	strb.w	r7, [r9, #10]
    37fa:	f8a9 0002 	strh.w	r0, [r9, #2]
    37fe:	f889 700b 	strb.w	r7, [r9, #11]
    3802:	2114      	movs	r1, #20
    3804:	4b15      	ldr	r3, [pc, #84]	; (385c <ip_frag+0x194>)
    3806:	4648      	mov	r0, r9
    3808:	4798      	blx	r3
    380a:	9b07      	ldr	r3, [sp, #28]
    380c:	9a0c      	ldr	r2, [sp, #48]	; 0x30
    380e:	f8a9 000a 	strh.w	r0, [r9, #10]
    3812:	695b      	ldr	r3, [r3, #20]
    3814:	9807      	ldr	r0, [sp, #28]
    3816:	4641      	mov	r1, r8
    3818:	4798      	blx	r3
    381a:	4b0a      	ldr	r3, [pc, #40]	; (3844 <ip_frag+0x17c>)
    381c:	4640      	mov	r0, r8
    381e:	4798      	blx	r3
    3820:	9a03      	ldr	r2, [sp, #12]
    3822:	9b04      	ldr	r3, [sp, #16]
    3824:	1ad4      	subs	r4, r2, r3
    3826:	b2a3      	uxth	r3, r4
    3828:	9303      	str	r3, [sp, #12]
    382a:	9a09      	ldr	r2, [sp, #36]	; 0x24
    382c:	9b05      	ldr	r3, [sp, #20]
    382e:	4413      	add	r3, r2
    3830:	b29b      	uxth	r3, r3
    3832:	9305      	str	r3, [sp, #20]
    3834:	4637      	mov	r7, r6
    3836:	e76a      	b.n	370e <ip_frag+0x46>
    3838:	000011f3 	.word	0x000011f3
    383c:	00004039 	.word	0x00004039
    3840:	00003ae9 	.word	0x00003ae9
    3844:	00003f99 	.word	0x00003f99
    3848:	00003e7d 	.word	0x00003e7d
    384c:	00003b41 	.word	0x00003b41
    3850:	00004215 	.word	0x00004215
    3854:	00003205 	.word	0x00003205
    3858:	00004221 	.word	0x00004221
    385c:	00002b89 	.word	0x00002b89
    3860:	000011ed 	.word	0x000011ed

00003864 <mem_init>:
    3864:	4b0a      	ldr	r3, [pc, #40]	; (3890 <mem_init+0x2c>)
    3866:	4a0b      	ldr	r2, [pc, #44]	; (3894 <mem_init+0x30>)
    3868:	f023 0303 	bic.w	r3, r3, #3
    386c:	f44f 617a 	mov.w	r1, #4000	; 0xfa0
    3870:	2000      	movs	r0, #0
    3872:	8058      	strh	r0, [r3, #2]
    3874:	7118      	strb	r0, [r3, #4]
    3876:	1858      	adds	r0, r3, r1
    3878:	6050      	str	r0, [r2, #4]
    387a:	2001      	movs	r0, #1
    387c:	6013      	str	r3, [r2, #0]
    387e:	8019      	strh	r1, [r3, #0]
    3880:	f883 0fa4 	strb.w	r0, [r3, #4004]	; 0xfa4
    3884:	f8a3 1fa0 	strh.w	r1, [r3, #4000]	; 0xfa0
    3888:	f8a3 1fa2 	strh.w	r1, [r3, #4002]	; 0xfa2
    388c:	6093      	str	r3, [r2, #8]
    388e:	4770      	bx	lr
    3890:	200080cb 	.word	0x200080cb
    3894:	20001534 	.word	0x20001534

00003898 <mem_free>:
    3898:	b4f0      	push	{r4, r5, r6, r7}
    389a:	b918      	cbnz	r0, 38a4 <mem_free+0xc>
    389c:	481f      	ldr	r0, [pc, #124]	; (391c <mem_free+0x84>)
    389e:	4b20      	ldr	r3, [pc, #128]	; (3920 <mem_free+0x88>)
    38a0:	bcf0      	pop	{r4, r5, r6, r7}
    38a2:	4718      	bx	r3
    38a4:	4a1f      	ldr	r2, [pc, #124]	; (3924 <mem_free+0x8c>)
    38a6:	6813      	ldr	r3, [r2, #0]
    38a8:	4298      	cmp	r0, r3
    38aa:	d302      	bcc.n	38b2 <mem_free+0x1a>
    38ac:	6856      	ldr	r6, [r2, #4]
    38ae:	42b0      	cmp	r0, r6
    38b0:	d301      	bcc.n	38b6 <mem_free+0x1e>
    38b2:	481d      	ldr	r0, [pc, #116]	; (3928 <mem_free+0x90>)
    38b4:	e7f3      	b.n	389e <mem_free+0x6>
    38b6:	2400      	movs	r4, #0
    38b8:	f800 4c04 	strb.w	r4, [r0, #-4]
    38bc:	f830 5c08 	ldrh.w	r5, [r0, #-8]
    38c0:	6894      	ldr	r4, [r2, #8]
    38c2:	f1a0 0108 	sub.w	r1, r0, #8
    38c6:	42a1      	cmp	r1, r4
    38c8:	eb03 0405 	add.w	r4, r3, r5
    38cc:	bf38      	it	cc
    38ce:	6091      	strcc	r1, [r2, #8]
    38d0:	42a1      	cmp	r1, r4
    38d2:	d00e      	beq.n	38f2 <mem_free+0x5a>
    38d4:	7927      	ldrb	r7, [r4, #4]
    38d6:	b967      	cbnz	r7, 38f2 <mem_free+0x5a>
    38d8:	42a6      	cmp	r6, r4
    38da:	d00a      	beq.n	38f2 <mem_free+0x5a>
    38dc:	6896      	ldr	r6, [r2, #8]
    38de:	42b4      	cmp	r4, r6
    38e0:	5b5c      	ldrh	r4, [r3, r5]
    38e2:	f820 4c08 	strh.w	r4, [r0, #-8]
    38e6:	5b5c      	ldrh	r4, [r3, r5]
    38e8:	bf08      	it	eq
    38ea:	6091      	streq	r1, [r2, #8]
    38ec:	441c      	add	r4, r3
    38ee:	1acd      	subs	r5, r1, r3
    38f0:	8065      	strh	r5, [r4, #2]
    38f2:	f830 4c06 	ldrh.w	r4, [r0, #-6]
    38f6:	191d      	adds	r5, r3, r4
    38f8:	42a9      	cmp	r1, r5
    38fa:	d00c      	beq.n	3916 <mem_free+0x7e>
    38fc:	792e      	ldrb	r6, [r5, #4]
    38fe:	b956      	cbnz	r6, 3916 <mem_free+0x7e>
    3900:	6896      	ldr	r6, [r2, #8]
    3902:	42b1      	cmp	r1, r6
    3904:	bf08      	it	eq
    3906:	6095      	streq	r5, [r2, #8]
    3908:	f830 2c08 	ldrh.w	r2, [r0, #-8]
    390c:	531a      	strh	r2, [r3, r4]
    390e:	f830 2c08 	ldrh.w	r2, [r0, #-8]
    3912:	4413      	add	r3, r2
    3914:	805c      	strh	r4, [r3, #2]
    3916:	bcf0      	pop	{r4, r5, r6, r7}
    3918:	4770      	bx	lr
    391a:	bf00      	nop
    391c:	0000adc3 	.word	0x0000adc3
    3920:	00008595 	.word	0x00008595
    3924:	20001534 	.word	0x20001534
    3928:	0000ade3 	.word	0x0000ade3

0000392c <mem_trim>:
    392c:	b5f8      	push	{r3, r4, r5, r6, r7, lr}
    392e:	3103      	adds	r1, #3
    3930:	f64f 73fc 	movw	r3, #65532	; 0xfffc
    3934:	400b      	ands	r3, r1
    3936:	2b0b      	cmp	r3, #11
    3938:	4604      	mov	r4, r0
    393a:	d904      	bls.n	3946 <mem_trim+0x1a>
    393c:	f5b3 6f7a 	cmp.w	r3, #4000	; 0xfa0
    3940:	d902      	bls.n	3948 <mem_trim+0x1c>
    3942:	2400      	movs	r4, #0
    3944:	e00a      	b.n	395c <mem_trim+0x30>
    3946:	230c      	movs	r3, #12
    3948:	4d21      	ldr	r5, [pc, #132]	; (39d0 <mem_trim+0xa4>)
    394a:	682a      	ldr	r2, [r5, #0]
    394c:	42a2      	cmp	r2, r4
    394e:	d802      	bhi.n	3956 <mem_trim+0x2a>
    3950:	6869      	ldr	r1, [r5, #4]
    3952:	428c      	cmp	r4, r1
    3954:	d304      	bcc.n	3960 <mem_trim+0x34>
    3956:	481f      	ldr	r0, [pc, #124]	; (39d4 <mem_trim+0xa8>)
    3958:	4b1f      	ldr	r3, [pc, #124]	; (39d8 <mem_trim+0xac>)
    395a:	4798      	blx	r3
    395c:	4620      	mov	r0, r4
    395e:	bdf8      	pop	{r3, r4, r5, r6, r7, pc}
    3960:	f1a4 0108 	sub.w	r1, r4, #8
    3964:	f834 6c08 	ldrh.w	r6, [r4, #-8]
    3968:	1a89      	subs	r1, r1, r2
    396a:	b289      	uxth	r1, r1
    396c:	f1a6 0008 	sub.w	r0, r6, #8
    3970:	1a40      	subs	r0, r0, r1
    3972:	b280      	uxth	r0, r0
    3974:	4298      	cmp	r0, r3
    3976:	d3e4      	bcc.n	3942 <mem_trim+0x16>
    3978:	d0f0      	beq.n	395c <mem_trim+0x30>
    397a:	1997      	adds	r7, r2, r6
    397c:	f897 e004 	ldrb.w	lr, [r7, #4]
    3980:	f1be 0f00 	cmp.w	lr, #0
    3984:	d10b      	bne.n	399e <mem_trim+0x72>
    3986:	f101 0008 	add.w	r0, r1, #8
    398a:	4403      	add	r3, r0
    398c:	68a8      	ldr	r0, [r5, #8]
    398e:	5b96      	ldrh	r6, [r2, r6]
    3990:	b29b      	uxth	r3, r3
    3992:	4287      	cmp	r7, r0
    3994:	eb02 0003 	add.w	r0, r2, r3
    3998:	d10d      	bne.n	39b6 <mem_trim+0x8a>
    399a:	60a8      	str	r0, [r5, #8]
    399c:	e00b      	b.n	39b6 <mem_trim+0x8a>
    399e:	f103 0714 	add.w	r7, r3, #20
    39a2:	4287      	cmp	r7, r0
    39a4:	d8da      	bhi.n	395c <mem_trim+0x30>
    39a6:	f101 0008 	add.w	r0, r1, #8
    39aa:	4403      	add	r3, r0
    39ac:	b29b      	uxth	r3, r3
    39ae:	68af      	ldr	r7, [r5, #8]
    39b0:	18d0      	adds	r0, r2, r3
    39b2:	42b8      	cmp	r0, r7
    39b4:	d3f1      	bcc.n	399a <mem_trim+0x6e>
    39b6:	2500      	movs	r5, #0
    39b8:	7105      	strb	r5, [r0, #4]
    39ba:	52d6      	strh	r6, [r2, r3]
    39bc:	8041      	strh	r1, [r0, #2]
    39be:	f824 3c08 	strh.w	r3, [r4, #-8]
    39c2:	5ad1      	ldrh	r1, [r2, r3]
    39c4:	f5b1 6f7a 	cmp.w	r1, #4000	; 0xfa0
    39c8:	d0c8      	beq.n	395c <mem_trim+0x30>
    39ca:	440a      	add	r2, r1
    39cc:	8053      	strh	r3, [r2, #2]
    39ce:	e7c5      	b.n	395c <mem_trim+0x30>
    39d0:	20001534 	.word	0x20001534
    39d4:	0000adfc 	.word	0x0000adfc
    39d8:	00008595 	.word	0x00008595

000039dc <mem_malloc>:
    39dc:	e92d 41f0 	stmdb	sp!, {r4, r5, r6, r7, r8, lr}
    39e0:	b148      	cbz	r0, 39f6 <mem_malloc+0x1a>
    39e2:	3003      	adds	r0, #3
    39e4:	f64f 71fc 	movw	r1, #65532	; 0xfffc
    39e8:	4001      	ands	r1, r0
    39ea:	290b      	cmp	r1, #11
    39ec:	d905      	bls.n	39fa <mem_malloc+0x1e>
    39ee:	f5b1 6f7a 	cmp.w	r1, #4000	; 0xfa0
    39f2:	d903      	bls.n	39fc <mem_malloc+0x20>
    39f4:	2000      	movs	r0, #0
    39f6:	e8bd 81f0 	ldmia.w	sp!, {r4, r5, r6, r7, r8, pc}
    39fa:	210c      	movs	r1, #12
    39fc:	4c22      	ldr	r4, [pc, #136]	; (3a88 <mem_malloc+0xac>)
    39fe:	68a7      	ldr	r7, [r4, #8]
    3a00:	6822      	ldr	r2, [r4, #0]
    3a02:	1abb      	subs	r3, r7, r2
    3a04:	b29b      	uxth	r3, r3
    3a06:	f5c1 6c7a 	rsb	ip, r1, #4000	; 0xfa0
    3a0a:	f06f 0807 	mvn.w	r8, #7
    3a0e:	4563      	cmp	r3, ip
    3a10:	db03      	blt.n	3a1a <mem_malloc+0x3e>
    3a12:	4b1e      	ldr	r3, [pc, #120]	; (3a8c <mem_malloc+0xb0>)
    3a14:	481e      	ldr	r0, [pc, #120]	; (3a90 <mem_malloc+0xb4>)
    3a16:	4798      	blx	r3
    3a18:	e7ec      	b.n	39f4 <mem_malloc+0x18>
    3a1a:	18d0      	adds	r0, r2, r3
    3a1c:	5ad6      	ldrh	r6, [r2, r3]
    3a1e:	f890 e004 	ldrb.w	lr, [r0, #4]
    3a22:	f1be 0f00 	cmp.w	lr, #0
    3a26:	d12c      	bne.n	3a82 <mem_malloc+0xa6>
    3a28:	eba8 0503 	sub.w	r5, r8, r3
    3a2c:	4435      	add	r5, r6
    3a2e:	428d      	cmp	r5, r1
    3a30:	d327      	bcc.n	3a82 <mem_malloc+0xa6>
    3a32:	f101 0c14 	add.w	ip, r1, #20
    3a36:	4565      	cmp	r5, ip
    3a38:	d31d      	bcc.n	3a76 <mem_malloc+0x9a>
    3a3a:	3108      	adds	r1, #8
    3a3c:	4419      	add	r1, r3
    3a3e:	b289      	uxth	r1, r1
    3a40:	1855      	adds	r5, r2, r1
    3a42:	f885 e004 	strb.w	lr, [r5, #4]
    3a46:	5256      	strh	r6, [r2, r1]
    3a48:	806b      	strh	r3, [r5, #2]
    3a4a:	2301      	movs	r3, #1
    3a4c:	8001      	strh	r1, [r0, #0]
    3a4e:	7103      	strb	r3, [r0, #4]
    3a50:	5a53      	ldrh	r3, [r2, r1]
    3a52:	f5b3 6f7a 	cmp.w	r3, #4000	; 0xfa0
    3a56:	d001      	beq.n	3a5c <mem_malloc+0x80>
    3a58:	441a      	add	r2, r3
    3a5a:	8051      	strh	r1, [r2, #2]
    3a5c:	4287      	cmp	r7, r0
    3a5e:	d107      	bne.n	3a70 <mem_malloc+0x94>
    3a60:	e894 0006 	ldmia.w	r4, {r1, r2}
    3a64:	4603      	mov	r3, r0
    3a66:	791d      	ldrb	r5, [r3, #4]
    3a68:	b10d      	cbz	r5, 3a6e <mem_malloc+0x92>
    3a6a:	4293      	cmp	r3, r2
    3a6c:	d106      	bne.n	3a7c <mem_malloc+0xa0>
    3a6e:	60a3      	str	r3, [r4, #8]
    3a70:	3008      	adds	r0, #8
    3a72:	e8bd 81f0 	ldmia.w	sp!, {r4, r5, r6, r7, r8, pc}
    3a76:	2301      	movs	r3, #1
    3a78:	7103      	strb	r3, [r0, #4]
    3a7a:	e7ef      	b.n	3a5c <mem_malloc+0x80>
    3a7c:	881b      	ldrh	r3, [r3, #0]
    3a7e:	440b      	add	r3, r1
    3a80:	e7f1      	b.n	3a66 <mem_malloc+0x8a>
    3a82:	4633      	mov	r3, r6
    3a84:	e7c3      	b.n	3a0e <mem_malloc+0x32>
    3a86:	bf00      	nop
    3a88:	20001534 	.word	0x20001534
    3a8c:	00008485 	.word	0x00008485
    3a90:	0000ae15 	.word	0x0000ae15

00003a94 <memp_init>:
    3a94:	e92d 43f0 	stmdb	sp!, {r4, r5, r6, r7, r8, r9, lr}
    3a98:	4a10      	ldr	r2, [pc, #64]	; (3adc <memp_init+0x48>)
    3a9a:	4811      	ldr	r0, [pc, #68]	; (3ae0 <memp_init+0x4c>)
    3a9c:	4c11      	ldr	r4, [pc, #68]	; (3ae4 <memp_init+0x50>)
    3a9e:	2300      	movs	r3, #0
    3aa0:	f022 0203 	bic.w	r2, r2, #3
    3aa4:	469e      	mov	lr, r3
    3aa6:	4605      	mov	r5, r0
    3aa8:	f104 0c14 	add.w	ip, r4, #20
    3aac:	f840 e023 	str.w	lr, [r0, r3, lsl #2]
    3ab0:	f834 8013 	ldrh.w	r8, [r4, r3, lsl #1]
    3ab4:	009e      	lsls	r6, r3, #2
    3ab6:	ea4f 0943 	mov.w	r9, r3, lsl #1
    3aba:	2100      	movs	r1, #0
    3abc:	b28f      	uxth	r7, r1
    3abe:	45b8      	cmp	r8, r7
    3ac0:	d804      	bhi.n	3acc <memp_init+0x38>
    3ac2:	3301      	adds	r3, #1
    3ac4:	2b0a      	cmp	r3, #10
    3ac6:	d1f1      	bne.n	3aac <memp_init+0x18>
    3ac8:	e8bd 83f0 	ldmia.w	sp!, {r4, r5, r6, r7, r8, r9, pc}
    3acc:	59af      	ldr	r7, [r5, r6]
    3ace:	6017      	str	r7, [r2, #0]
    3ad0:	f839 700c 	ldrh.w	r7, [r9, ip]
    3ad4:	51aa      	str	r2, [r5, r6]
    3ad6:	3101      	adds	r1, #1
    3ad8:	443a      	add	r2, r7
    3ada:	e7ef      	b.n	3abc <memp_init+0x28>
    3adc:	20001543 	.word	0x20001543
    3ae0:	20007e78 	.word	0x20007e78
    3ae4:	0000ae40 	.word	0x0000ae40

00003ae8 <memp_malloc>:
    3ae8:	2809      	cmp	r0, #9
    3aea:	b510      	push	{r4, lr}
    3aec:	d907      	bls.n	3afe <memp_malloc+0x16>
    3aee:	4b0d      	ldr	r3, [pc, #52]	; (3b24 <memp_malloc+0x3c>)
    3af0:	490d      	ldr	r1, [pc, #52]	; (3b28 <memp_malloc+0x40>)
    3af2:	480e      	ldr	r0, [pc, #56]	; (3b2c <memp_malloc+0x44>)
    3af4:	4c0e      	ldr	r4, [pc, #56]	; (3b30 <memp_malloc+0x48>)
    3af6:	f240 1289 	movw	r2, #393	; 0x189
    3afa:	47a0      	blx	r4
    3afc:	e7fe      	b.n	3afc <memp_malloc+0x14>
    3afe:	4b0d      	ldr	r3, [pc, #52]	; (3b34 <memp_malloc+0x4c>)
    3b00:	0080      	lsls	r0, r0, #2
    3b02:	4403      	add	r3, r0
    3b04:	f8d3 4368 	ldr.w	r4, [r3, #872]	; 0x368
    3b08:	b124      	cbz	r4, 3b14 <memp_malloc+0x2c>
    3b0a:	6822      	ldr	r2, [r4, #0]
    3b0c:	f8c3 2368 	str.w	r2, [r3, #872]	; 0x368
    3b10:	4620      	mov	r0, r4
    3b12:	bd10      	pop	{r4, pc}
    3b14:	4b08      	ldr	r3, [pc, #32]	; (3b38 <memp_malloc+0x50>)
    3b16:	4418      	add	r0, r3
    3b18:	4b05      	ldr	r3, [pc, #20]	; (3b30 <memp_malloc+0x48>)
    3b1a:	6a81      	ldr	r1, [r0, #40]	; 0x28
    3b1c:	4807      	ldr	r0, [pc, #28]	; (3b3c <memp_malloc+0x54>)
    3b1e:	4798      	blx	r3
    3b20:	e7f6      	b.n	3b10 <memp_malloc+0x28>
    3b22:	bf00      	nop
    3b24:	0000ae90 	.word	0x0000ae90
    3b28:	0000aeb3 	.word	0x0000aeb3
    3b2c:	000096d7 	.word	0x000096d7
    3b30:	00008485 	.word	0x00008485
    3b34:	20007b10 	.word	0x20007b10
    3b38:	0000ae40 	.word	0x0000ae40
    3b3c:	0000aed0 	.word	0x0000aed0

00003b40 <memp_free>:
    3b40:	b139      	cbz	r1, 3b52 <memp_free+0x12>
    3b42:	4b04      	ldr	r3, [pc, #16]	; (3b54 <memp_free+0x14>)
    3b44:	eb03 0080 	add.w	r0, r3, r0, lsl #2
    3b48:	f8d0 3368 	ldr.w	r3, [r0, #872]	; 0x368
    3b4c:	600b      	str	r3, [r1, #0]
    3b4e:	f8c0 1368 	str.w	r1, [r0, #872]	; 0x368
    3b52:	4770      	bx	lr
    3b54:	20007b10 	.word	0x20007b10

00003b58 <netif_init>:
    3b58:	4770      	bx	lr
	...

00003b5c <netif_set_ipaddr>:
    3b5c:	e92d 47ff 	stmdb	sp!, {r0, r1, r2, r3, r4, r5, r6, r7, r8, r9, sl, lr}
    3b60:	4606      	mov	r6, r0
    3b62:	460c      	mov	r4, r1
    3b64:	b199      	cbz	r1, 3b8e <netif_set_ipaddr+0x32>
    3b66:	680a      	ldr	r2, [r1, #0]
    3b68:	6843      	ldr	r3, [r0, #4]
    3b6a:	429a      	cmp	r2, r3
    3b6c:	d00e      	beq.n	3b8c <netif_set_ipaddr+0x30>
    3b6e:	4b1c      	ldr	r3, [pc, #112]	; (3be0 <netif_set_ipaddr+0x84>)
    3b70:	481c      	ldr	r0, [pc, #112]	; (3be4 <netif_set_ipaddr+0x88>)
    3b72:	f8df 8084 	ldr.w	r8, [pc, #132]	; 3bf8 <netif_set_ipaddr+0x9c>
    3b76:	f8df 9078 	ldr.w	r9, [pc, #120]	; 3bf0 <netif_set_ipaddr+0x94>
    3b7a:	f8df a080 	ldr.w	sl, [pc, #128]	; 3bfc <netif_set_ipaddr+0xa0>
    3b7e:	4798      	blx	r3
    3b80:	4b19      	ldr	r3, [pc, #100]	; (3be8 <netif_set_ipaddr+0x8c>)
    3b82:	681d      	ldr	r5, [r3, #0]
    3b84:	b9bd      	cbnz	r5, 3bb6 <netif_set_ipaddr+0x5a>
    3b86:	4b19      	ldr	r3, [pc, #100]	; (3bec <netif_set_ipaddr+0x90>)
    3b88:	681b      	ldr	r3, [r3, #0]
    3b8a:	bb03      	cbnz	r3, 3bce <netif_set_ipaddr+0x72>
    3b8c:	6824      	ldr	r4, [r4, #0]
    3b8e:	6074      	str	r4, [r6, #4]
    3b90:	0e20      	lsrs	r0, r4, #24
    3b92:	9002      	str	r0, [sp, #8]
    3b94:	f3c4 4007 	ubfx	r0, r4, #16, #8
    3b98:	9001      	str	r0, [sp, #4]
    3b9a:	f3c4 2007 	ubfx	r0, r4, #8, #8
    3b9e:	9000      	str	r0, [sp, #0]
    3ba0:	b2e3      	uxtb	r3, r4
    3ba2:	f896 2037 	ldrb.w	r2, [r6, #55]	; 0x37
    3ba6:	f896 1036 	ldrb.w	r1, [r6, #54]	; 0x36
    3baa:	4c11      	ldr	r4, [pc, #68]	; (3bf0 <netif_set_ipaddr+0x94>)
    3bac:	4811      	ldr	r0, [pc, #68]	; (3bf4 <netif_set_ipaddr+0x98>)
    3bae:	47a0      	blx	r4
    3bb0:	b004      	add	sp, #16
    3bb2:	e8bd 87f0 	ldmia.w	sp!, {r4, r5, r6, r7, r8, r9, sl, pc}
    3bb6:	682a      	ldr	r2, [r5, #0]
    3bb8:	6873      	ldr	r3, [r6, #4]
    3bba:	68ef      	ldr	r7, [r5, #12]
    3bbc:	429a      	cmp	r2, r3
    3bbe:	d104      	bne.n	3bca <netif_set_ipaddr+0x6e>
    3bc0:	4629      	mov	r1, r5
    3bc2:	4640      	mov	r0, r8
    3bc4:	47c8      	blx	r9
    3bc6:	4628      	mov	r0, r5
    3bc8:	47d0      	blx	sl
    3bca:	463d      	mov	r5, r7
    3bcc:	e7da      	b.n	3b84 <netif_set_ipaddr+0x28>
    3bce:	681a      	ldr	r2, [r3, #0]
    3bd0:	b122      	cbz	r2, 3bdc <netif_set_ipaddr+0x80>
    3bd2:	6871      	ldr	r1, [r6, #4]
    3bd4:	428a      	cmp	r2, r1
    3bd6:	bf04      	itt	eq
    3bd8:	6822      	ldreq	r2, [r4, #0]
    3bda:	601a      	streq	r2, [r3, #0]
    3bdc:	68db      	ldr	r3, [r3, #12]
    3bde:	e7d4      	b.n	3b8a <netif_set_ipaddr+0x2e>
    3be0:	00008595 	.word	0x00008595
    3be4:	0000af93 	.word	0x0000af93
    3be8:	2000908c 	.word	0x2000908c
    3bec:	20009094 	.word	0x20009094
    3bf0:	00008485 	.word	0x00008485
    3bf4:	0000afe8 	.word	0x0000afe8
    3bf8:	0000afc1 	.word	0x0000afc1
    3bfc:	00004bf9 	.word	0x00004bf9

00003c00 <netif_set_gw>:
    3c00:	b51f      	push	{r0, r1, r2, r3, r4, lr}
    3c02:	b199      	cbz	r1, 3c2c <netif_set_gw+0x2c>
    3c04:	680b      	ldr	r3, [r1, #0]
    3c06:	60c3      	str	r3, [r0, #12]
    3c08:	f890 2037 	ldrb.w	r2, [r0, #55]	; 0x37
    3c0c:	f890 1036 	ldrb.w	r1, [r0, #54]	; 0x36
    3c10:	4c07      	ldr	r4, [pc, #28]	; (3c30 <netif_set_gw+0x30>)
    3c12:	0e18      	lsrs	r0, r3, #24
    3c14:	9002      	str	r0, [sp, #8]
    3c16:	f3c3 4007 	ubfx	r0, r3, #16, #8
    3c1a:	9001      	str	r0, [sp, #4]
    3c1c:	f3c3 2007 	ubfx	r0, r3, #8, #8
    3c20:	9000      	str	r0, [sp, #0]
    3c22:	b2db      	uxtb	r3, r3
    3c24:	4803      	ldr	r0, [pc, #12]	; (3c34 <netif_set_gw+0x34>)
    3c26:	47a0      	blx	r4
    3c28:	b004      	add	sp, #16
    3c2a:	bd10      	pop	{r4, pc}
    3c2c:	460b      	mov	r3, r1
    3c2e:	e7ea      	b.n	3c06 <netif_set_gw+0x6>
    3c30:	00008485 	.word	0x00008485
    3c34:	0000b024 	.word	0x0000b024

00003c38 <netif_set_netmask>:
    3c38:	b51f      	push	{r0, r1, r2, r3, r4, lr}
    3c3a:	b199      	cbz	r1, 3c64 <netif_set_netmask+0x2c>
    3c3c:	680b      	ldr	r3, [r1, #0]
    3c3e:	6083      	str	r3, [r0, #8]
    3c40:	f890 2037 	ldrb.w	r2, [r0, #55]	; 0x37
    3c44:	f890 1036 	ldrb.w	r1, [r0, #54]	; 0x36
    3c48:	4c07      	ldr	r4, [pc, #28]	; (3c68 <netif_set_netmask+0x30>)
    3c4a:	0e18      	lsrs	r0, r3, #24
    3c4c:	9002      	str	r0, [sp, #8]
    3c4e:	f3c3 4007 	ubfx	r0, r3, #16, #8
    3c52:	9001      	str	r0, [sp, #4]
    3c54:	f3c3 2007 	ubfx	r0, r3, #8, #8
    3c58:	9000      	str	r0, [sp, #0]
    3c5a:	b2db      	uxtb	r3, r3
    3c5c:	4803      	ldr	r0, [pc, #12]	; (3c6c <netif_set_netmask+0x34>)
    3c5e:	47a0      	blx	r4
    3c60:	b004      	add	sp, #16
    3c62:	bd10      	pop	{r4, pc}
    3c64:	460b      	mov	r3, r1
    3c66:	e7ea      	b.n	3c3e <netif_set_netmask+0x6>
    3c68:	00008485 	.word	0x00008485
    3c6c:	0000b060 	.word	0x0000b060

00003c70 <netif_set_addr>:
    3c70:	b570      	push	{r4, r5, r6, lr}
    3c72:	4604      	mov	r4, r0
    3c74:	4616      	mov	r6, r2
    3c76:	461d      	mov	r5, r3
    3c78:	4b05      	ldr	r3, [pc, #20]	; (3c90 <netif_set_addr+0x20>)
    3c7a:	4798      	blx	r3
    3c7c:	4631      	mov	r1, r6
    3c7e:	4620      	mov	r0, r4
    3c80:	4b04      	ldr	r3, [pc, #16]	; (3c94 <netif_set_addr+0x24>)
    3c82:	4798      	blx	r3
    3c84:	4629      	mov	r1, r5
    3c86:	4620      	mov	r0, r4
    3c88:	4b03      	ldr	r3, [pc, #12]	; (3c98 <netif_set_addr+0x28>)
    3c8a:	e8bd 4070 	ldmia.w	sp!, {r4, r5, r6, lr}
    3c8e:	4718      	bx	r3
    3c90:	00003b5d 	.word	0x00003b5d
    3c94:	00003c39 	.word	0x00003c39
    3c98:	00003c01 	.word	0x00003c01

00003c9c <netif_add>:
    3c9c:	e92d 43f7 	stmdb	sp!, {r0, r1, r2, r4, r5, r6, r7, r8, r9, lr}
    3ca0:	f8df e0f8 	ldr.w	lr, [pc, #248]	; 3d9c <netif_add+0x100>
    3ca4:	9f0a      	ldr	r7, [sp, #40]	; 0x28
    3ca6:	6247      	str	r7, [r0, #36]	; 0x24
    3ca8:	f89e 7000 	ldrb.w	r7, [lr]
    3cac:	f880 7038 	strb.w	r7, [r0, #56]	; 0x38
    3cb0:	2500      	movs	r5, #0
    3cb2:	f107 0c01 	add.w	ip, r7, #1
    3cb6:	9f0c      	ldr	r7, [sp, #48]	; 0x30
    3cb8:	6107      	str	r7, [r0, #16]
    3cba:	4604      	mov	r4, r0
    3cbc:	6045      	str	r5, [r0, #4]
    3cbe:	6085      	str	r5, [r0, #8]
    3cc0:	60c5      	str	r5, [r0, #12]
    3cc2:	f880 5035 	strb.w	r5, [r0, #53]	; 0x35
    3cc6:	6285      	str	r5, [r0, #40]	; 0x28
    3cc8:	61c5      	str	r5, [r0, #28]
    3cca:	6205      	str	r5, [r0, #32]
    3ccc:	4f2b      	ldr	r7, [pc, #172]	; (3d7c <netif_add+0xe0>)
    3cce:	f88e c000 	strb.w	ip, [lr]
    3cd2:	461e      	mov	r6, r3
    3cd4:	4689      	mov	r9, r1
    3cd6:	4690      	mov	r8, r2
    3cd8:	47b8      	blx	r7
    3cda:	4620      	mov	r0, r4
    3cdc:	9b0b      	ldr	r3, [sp, #44]	; 0x2c
    3cde:	4798      	blx	r3
    3ce0:	2800      	cmp	r0, #0
    3ce2:	d148      	bne.n	3d76 <netif_add+0xda>
    3ce4:	4b26      	ldr	r3, [pc, #152]	; (3d80 <netif_add+0xe4>)
    3ce6:	f894 1036 	ldrb.w	r1, [r4, #54]	; 0x36
    3cea:	681a      	ldr	r2, [r3, #0]
    3cec:	6022      	str	r2, [r4, #0]
    3cee:	4825      	ldr	r0, [pc, #148]	; (3d84 <netif_add+0xe8>)
    3cf0:	f894 2037 	ldrb.w	r2, [r4, #55]	; 0x37
    3cf4:	4d24      	ldr	r5, [pc, #144]	; (3d88 <netif_add+0xec>)
    3cf6:	601c      	str	r4, [r3, #0]
    3cf8:	47a8      	blx	r5
    3cfa:	f1b9 0f00 	cmp.w	r9, #0
    3cfe:	d02b      	beq.n	3d58 <netif_add+0xbc>
    3d00:	f899 1000 	ldrb.w	r1, [r9]
    3d04:	f899 2001 	ldrb.w	r2, [r9, #1]
    3d08:	f899 3002 	ldrb.w	r3, [r9, #2]
    3d0c:	f899 0003 	ldrb.w	r0, [r9, #3]
    3d10:	9000      	str	r0, [sp, #0]
    3d12:	481e      	ldr	r0, [pc, #120]	; (3d8c <netif_add+0xf0>)
    3d14:	47a8      	blx	r5
    3d16:	481e      	ldr	r0, [pc, #120]	; (3d90 <netif_add+0xf4>)
    3d18:	47a8      	blx	r5
    3d1a:	f1b8 0f00 	cmp.w	r8, #0
    3d1e:	d020      	beq.n	3d62 <netif_add+0xc6>
    3d20:	f898 1000 	ldrb.w	r1, [r8]
    3d24:	f898 2001 	ldrb.w	r2, [r8, #1]
    3d28:	f898 3002 	ldrb.w	r3, [r8, #2]
    3d2c:	f898 0003 	ldrb.w	r0, [r8, #3]
    3d30:	9000      	str	r0, [sp, #0]
    3d32:	4816      	ldr	r0, [pc, #88]	; (3d8c <netif_add+0xf0>)
    3d34:	47a8      	blx	r5
    3d36:	4817      	ldr	r0, [pc, #92]	; (3d94 <netif_add+0xf8>)
    3d38:	47a8      	blx	r5
    3d3a:	b1be      	cbz	r6, 3d6c <netif_add+0xd0>
    3d3c:	7831      	ldrb	r1, [r6, #0]
    3d3e:	7872      	ldrb	r2, [r6, #1]
    3d40:	78b3      	ldrb	r3, [r6, #2]
    3d42:	78f0      	ldrb	r0, [r6, #3]
    3d44:	9000      	str	r0, [sp, #0]
    3d46:	4811      	ldr	r0, [pc, #68]	; (3d8c <netif_add+0xf0>)
    3d48:	47a8      	blx	r5
    3d4a:	200a      	movs	r0, #10
    3d4c:	4b12      	ldr	r3, [pc, #72]	; (3d98 <netif_add+0xfc>)
    3d4e:	4798      	blx	r3
    3d50:	4620      	mov	r0, r4
    3d52:	b003      	add	sp, #12
    3d54:	e8bd 83f0 	ldmia.w	sp!, {r4, r5, r6, r7, r8, r9, pc}
    3d58:	464b      	mov	r3, r9
    3d5a:	464a      	mov	r2, r9
    3d5c:	4649      	mov	r1, r9
    3d5e:	4648      	mov	r0, r9
    3d60:	e7d6      	b.n	3d10 <netif_add+0x74>
    3d62:	4643      	mov	r3, r8
    3d64:	4642      	mov	r2, r8
    3d66:	4641      	mov	r1, r8
    3d68:	4640      	mov	r0, r8
    3d6a:	e7e1      	b.n	3d30 <netif_add+0x94>
    3d6c:	4633      	mov	r3, r6
    3d6e:	4632      	mov	r2, r6
    3d70:	4631      	mov	r1, r6
    3d72:	4630      	mov	r0, r6
    3d74:	e7e6      	b.n	3d44 <netif_add+0xa8>
    3d76:	462c      	mov	r4, r5
    3d78:	e7ea      	b.n	3d50 <netif_add+0xb4>
    3d7a:	bf00      	nop
    3d7c:	00003c71 	.word	0x00003c71
    3d80:	2000907c 	.word	0x2000907c
    3d84:	0000b099 	.word	0x0000b099
    3d88:	00008485 	.word	0x00008485
    3d8c:	0000a60d 	.word	0x0000a60d
    3d90:	0000b0be 	.word	0x0000b0be
    3d94:	0000b0c8 	.word	0x0000b0c8
    3d98:	000084b5 	.word	0x000084b5
    3d9c:	20007ea0 	.word	0x20007ea0

00003da0 <netif_set_default>:
    3da0:	4b06      	ldr	r3, [pc, #24]	; (3dbc <netif_set_default+0x1c>)
    3da2:	6018      	str	r0, [r3, #0]
    3da4:	b130      	cbz	r0, 3db4 <netif_set_default+0x14>
    3da6:	f890 1036 	ldrb.w	r1, [r0, #54]	; 0x36
    3daa:	f890 2037 	ldrb.w	r2, [r0, #55]	; 0x37
    3dae:	4804      	ldr	r0, [pc, #16]	; (3dc0 <netif_set_default+0x20>)
    3db0:	4b04      	ldr	r3, [pc, #16]	; (3dc4 <netif_set_default+0x24>)
    3db2:	4718      	bx	r3
    3db4:	2127      	movs	r1, #39	; 0x27
    3db6:	460a      	mov	r2, r1
    3db8:	e7f9      	b.n	3dae <netif_set_default+0xe>
    3dba:	bf00      	nop
    3dbc:	20009080 	.word	0x20009080
    3dc0:	0000b0cd 	.word	0x0000b0cd
    3dc4:	00008485 	.word	0x00008485

00003dc8 <netif_set_up>:
    3dc8:	b510      	push	{r4, lr}
    3dca:	f890 3035 	ldrb.w	r3, [r0, #53]	; 0x35
    3dce:	07da      	lsls	r2, r3, #31
    3dd0:	4604      	mov	r4, r0
    3dd2:	d412      	bmi.n	3dfa <netif_set_up+0x32>
    3dd4:	f043 0301 	orr.w	r3, r3, #1
    3dd8:	f880 3035 	strb.w	r3, [r0, #53]	; 0x35
    3ddc:	69c3      	ldr	r3, [r0, #28]
    3dde:	b103      	cbz	r3, 3de2 <netif_set_up+0x1a>
    3de0:	4798      	blx	r3
    3de2:	f894 3035 	ldrb.w	r3, [r4, #53]	; 0x35
    3de6:	f003 0330 	and.w	r3, r3, #48	; 0x30
    3dea:	2b30      	cmp	r3, #48	; 0x30
    3dec:	d105      	bne.n	3dfa <netif_set_up+0x32>
    3dee:	1d21      	adds	r1, r4, #4
    3df0:	4620      	mov	r0, r4
    3df2:	4b02      	ldr	r3, [pc, #8]	; (3dfc <netif_set_up+0x34>)
    3df4:	e8bd 4010 	ldmia.w	sp!, {r4, lr}
    3df8:	4718      	bx	r3
    3dfa:	bd10      	pop	{r4, pc}
    3dfc:	00007971 	.word	0x00007971

00003e00 <netif_set_down>:
    3e00:	b510      	push	{r4, lr}
    3e02:	f890 3035 	ldrb.w	r3, [r0, #53]	; 0x35
    3e06:	07da      	lsls	r2, r3, #31
    3e08:	4604      	mov	r4, r0
    3e0a:	d50d      	bpl.n	3e28 <netif_set_down+0x28>
    3e0c:	f023 0201 	bic.w	r2, r3, #1
    3e10:	069b      	lsls	r3, r3, #26
    3e12:	f880 2035 	strb.w	r2, [r0, #53]	; 0x35
    3e16:	d501      	bpl.n	3e1c <netif_set_down+0x1c>
    3e18:	4b04      	ldr	r3, [pc, #16]	; (3e2c <netif_set_down+0x2c>)
    3e1a:	4798      	blx	r3
    3e1c:	69e3      	ldr	r3, [r4, #28]
    3e1e:	b11b      	cbz	r3, 3e28 <netif_set_down+0x28>
    3e20:	4620      	mov	r0, r4
    3e22:	e8bd 4010 	ldmia.w	sp!, {r4, lr}
    3e26:	4718      	bx	r3
    3e28:	bd10      	pop	{r4, pc}
    3e2a:	bf00      	nop
    3e2c:	00007945 	.word	0x00007945

00003e30 <netif_set_status_callback>:
    3e30:	b100      	cbz	r0, 3e34 <netif_set_status_callback+0x4>
    3e32:	61c1      	str	r1, [r0, #28]
    3e34:	4770      	bx	lr

00003e36 <netif_set_link_callback>:
    3e36:	b100      	cbz	r0, 3e3a <netif_set_link_callback+0x4>
    3e38:	6201      	str	r1, [r0, #32]
    3e3a:	4770      	bx	lr

00003e3c <pbuf_free_ooseq>:
    3e3c:	4b0a      	ldr	r3, [pc, #40]	; (3e68 <pbuf_free_ooseq+0x2c>)
    3e3e:	2200      	movs	r2, #0
    3e40:	b510      	push	{r4, lr}
    3e42:	701a      	strb	r2, [r3, #0]
    3e44:	4b09      	ldr	r3, [pc, #36]	; (3e6c <pbuf_free_ooseq+0x30>)
    3e46:	681c      	ldr	r4, [r3, #0]
    3e48:	b904      	cbnz	r4, 3e4c <pbuf_free_ooseq+0x10>
    3e4a:	bd10      	pop	{r4, pc}
    3e4c:	6f63      	ldr	r3, [r4, #116]	; 0x74
    3e4e:	b143      	cbz	r3, 3e62 <pbuf_free_ooseq+0x26>
    3e50:	4b07      	ldr	r3, [pc, #28]	; (3e70 <pbuf_free_ooseq+0x34>)
    3e52:	4808      	ldr	r0, [pc, #32]	; (3e74 <pbuf_free_ooseq+0x38>)
    3e54:	4798      	blx	r3
    3e56:	4b08      	ldr	r3, [pc, #32]	; (3e78 <pbuf_free_ooseq+0x3c>)
    3e58:	6f60      	ldr	r0, [r4, #116]	; 0x74
    3e5a:	4798      	blx	r3
    3e5c:	2300      	movs	r3, #0
    3e5e:	6763      	str	r3, [r4, #116]	; 0x74
    3e60:	bd10      	pop	{r4, pc}
    3e62:	68e4      	ldr	r4, [r4, #12]
    3e64:	e7f0      	b.n	3e48 <pbuf_free_ooseq+0xc>
    3e66:	bf00      	nop
    3e68:	20009084 	.word	0x20009084
    3e6c:	2000908c 	.word	0x2000908c
    3e70:	00008595 	.word	0x00008595
    3e74:	0000b110 	.word	0x0000b110
    3e78:	00004549 	.word	0x00004549

00003e7c <pbuf_alloced_custom>:
    3e7c:	e92d 43f8 	stmdb	sp!, {r3, r4, r5, r6, r7, r8, r9, lr}
    3e80:	4606      	mov	r6, r0
    3e82:	4f1c      	ldr	r7, [pc, #112]	; (3ef4 <pbuf_alloced_custom+0x78>)
    3e84:	481c      	ldr	r0, [pc, #112]	; (3ef8 <pbuf_alloced_custom+0x7c>)
    3e86:	f8dd 9020 	ldr.w	r9, [sp, #32]
    3e8a:	461c      	mov	r4, r3
    3e8c:	460d      	mov	r5, r1
    3e8e:	4690      	mov	r8, r2
    3e90:	47b8      	blx	r7
    3e92:	2e03      	cmp	r6, #3
    3e94:	d80f      	bhi.n	3eb6 <pbuf_alloced_custom+0x3a>
    3e96:	e8df f006 	tbb	[pc, r6]
    3e9a:	0215      	.short	0x0215
    3e9c:	1311      	.short	0x1311
    3e9e:	2322      	movs	r3, #34	; 0x22
    3ea0:	3303      	adds	r3, #3
    3ea2:	f023 0303 	bic.w	r3, r3, #3
    3ea6:	f8bd 2024 	ldrh.w	r2, [sp, #36]	; 0x24
    3eaa:	1959      	adds	r1, r3, r5
    3eac:	4291      	cmp	r1, r2
    3eae:	dd0b      	ble.n	3ec8 <pbuf_alloced_custom+0x4c>
    3eb0:	4629      	mov	r1, r5
    3eb2:	4812      	ldr	r0, [pc, #72]	; (3efc <pbuf_alloced_custom+0x80>)
    3eb4:	47b8      	blx	r7
    3eb6:	2000      	movs	r0, #0
    3eb8:	e8bd 83f8 	ldmia.w	sp!, {r3, r4, r5, r6, r7, r8, r9, pc}
    3ebc:	230e      	movs	r3, #14
    3ebe:	e7ef      	b.n	3ea0 <pbuf_alloced_custom+0x24>
    3ec0:	2300      	movs	r3, #0
    3ec2:	e7ed      	b.n	3ea0 <pbuf_alloced_custom+0x24>
    3ec4:	2336      	movs	r3, #54	; 0x36
    3ec6:	e7eb      	b.n	3ea0 <pbuf_alloced_custom+0x24>
    3ec8:	2200      	movs	r2, #0
    3eca:	6022      	str	r2, [r4, #0]
    3ecc:	f1b9 0f00 	cmp.w	r9, #0
    3ed0:	d00c      	beq.n	3eec <pbuf_alloced_custom+0x70>
    3ed2:	444b      	add	r3, r9
    3ed4:	6063      	str	r3, [r4, #4]
    3ed6:	2302      	movs	r3, #2
    3ed8:	7363      	strb	r3, [r4, #13]
    3eda:	f884 800c 	strb.w	r8, [r4, #12]
    3ede:	2301      	movs	r3, #1
    3ee0:	8125      	strh	r5, [r4, #8]
    3ee2:	8165      	strh	r5, [r4, #10]
    3ee4:	81e3      	strh	r3, [r4, #14]
    3ee6:	4620      	mov	r0, r4
    3ee8:	e8bd 83f8 	ldmia.w	sp!, {r3, r4, r5, r6, r7, r8, r9, pc}
    3eec:	f8c4 9004 	str.w	r9, [r4, #4]
    3ef0:	e7f1      	b.n	3ed6 <pbuf_alloced_custom+0x5a>
    3ef2:	bf00      	nop
    3ef4:	00008485 	.word	0x00008485
    3ef8:	0000b13f 	.word	0x0000b13f
    3efc:	0000b160 	.word	0x0000b160

00003f00 <pbuf_header>:
    3f00:	b538      	push	{r3, r4, r5, lr}
    3f02:	4604      	mov	r4, r0
    3f04:	460b      	mov	r3, r1
    3f06:	2900      	cmp	r1, #0
    3f08:	d038      	beq.n	3f7c <pbuf_header+0x7c>
    3f0a:	2800      	cmp	r0, #0
    3f0c:	d036      	beq.n	3f7c <pbuf_header+0x7c>
    3f0e:	2900      	cmp	r1, #0
    3f10:	da0c      	bge.n	3f2c <pbuf_header+0x2c>
    3f12:	424a      	negs	r2, r1
    3f14:	8941      	ldrh	r1, [r0, #10]
    3f16:	b292      	uxth	r2, r2
    3f18:	4291      	cmp	r1, r2
    3f1a:	d208      	bcs.n	3f2e <pbuf_header+0x2e>
    3f1c:	4b18      	ldr	r3, [pc, #96]	; (3f80 <pbuf_header+0x80>)
    3f1e:	4919      	ldr	r1, [pc, #100]	; (3f84 <pbuf_header+0x84>)
    3f20:	4819      	ldr	r0, [pc, #100]	; (3f88 <pbuf_header+0x88>)
    3f22:	4c1a      	ldr	r4, [pc, #104]	; (3f8c <pbuf_header+0x8c>)
    3f24:	f240 2202 	movw	r2, #514	; 0x202
    3f28:	47a0      	blx	r4
    3f2a:	e7fe      	b.n	3f2a <pbuf_header+0x2a>
    3f2c:	b28a      	uxth	r2, r1
    3f2e:	7b21      	ldrb	r1, [r4, #12]
    3f30:	6865      	ldr	r5, [r4, #4]
    3f32:	b109      	cbz	r1, 3f38 <pbuf_header+0x38>
    3f34:	2903      	cmp	r1, #3
    3f36:	d10b      	bne.n	3f50 <pbuf_header+0x50>
    3f38:	1ae9      	subs	r1, r5, r3
    3f3a:	f104 0210 	add.w	r2, r4, #16
    3f3e:	4291      	cmp	r1, r2
    3f40:	6061      	str	r1, [r4, #4]
    3f42:	d20f      	bcs.n	3f64 <pbuf_header+0x64>
    3f44:	4812      	ldr	r0, [pc, #72]	; (3f90 <pbuf_header+0x90>)
    3f46:	4b11      	ldr	r3, [pc, #68]	; (3f8c <pbuf_header+0x8c>)
    3f48:	4798      	blx	r3
    3f4a:	6065      	str	r5, [r4, #4]
    3f4c:	2001      	movs	r0, #1
    3f4e:	bd38      	pop	{r3, r4, r5, pc}
    3f50:	3901      	subs	r1, #1
    3f52:	2901      	cmp	r1, #1
    3f54:	d8fa      	bhi.n	3f4c <pbuf_header+0x4c>
    3f56:	2b00      	cmp	r3, #0
    3f58:	daf8      	bge.n	3f4c <pbuf_header+0x4c>
    3f5a:	8961      	ldrh	r1, [r4, #10]
    3f5c:	4291      	cmp	r1, r2
    3f5e:	d3f5      	bcc.n	3f4c <pbuf_header+0x4c>
    3f60:	1aea      	subs	r2, r5, r3
    3f62:	6062      	str	r2, [r4, #4]
    3f64:	8961      	ldrh	r1, [r4, #10]
    3f66:	480b      	ldr	r0, [pc, #44]	; (3f94 <pbuf_header+0x94>)
    3f68:	b29a      	uxth	r2, r3
    3f6a:	4411      	add	r1, r2
    3f6c:	8161      	strh	r1, [r4, #10]
    3f6e:	8921      	ldrh	r1, [r4, #8]
    3f70:	440a      	add	r2, r1
    3f72:	8122      	strh	r2, [r4, #8]
    3f74:	4629      	mov	r1, r5
    3f76:	6862      	ldr	r2, [r4, #4]
    3f78:	4c04      	ldr	r4, [pc, #16]	; (3f8c <pbuf_header+0x8c>)
    3f7a:	47a0      	blx	r4
    3f7c:	2000      	movs	r0, #0
    3f7e:	bd38      	pop	{r3, r4, r5, pc}
    3f80:	0000b192 	.word	0x0000b192
    3f84:	0000b1b5 	.word	0x0000b1b5
    3f88:	000096d7 	.word	0x000096d7
    3f8c:	00008485 	.word	0x00008485
    3f90:	0000b1d3 	.word	0x0000b1d3
    3f94:	0000b21a 	.word	0x0000b21a

00003f98 <pbuf_free>:
    3f98:	e92d 47f0 	stmdb	sp!, {r4, r5, r6, r7, r8, r9, sl, lr}
    3f9c:	4604      	mov	r4, r0
    3f9e:	b930      	cbnz	r0, 3fae <pbuf_free+0x16>
    3fa0:	481d      	ldr	r0, [pc, #116]	; (4018 <pbuf_free+0x80>)
    3fa2:	4b1e      	ldr	r3, [pc, #120]	; (401c <pbuf_free+0x84>)
    3fa4:	4798      	blx	r3
    3fa6:	4625      	mov	r5, r4
    3fa8:	4628      	mov	r0, r5
    3faa:	e8bd 87f0 	ldmia.w	sp!, {r4, r5, r6, r7, r8, r9, sl, pc}
    3fae:	4601      	mov	r1, r0
    3fb0:	4e1b      	ldr	r6, [pc, #108]	; (4020 <pbuf_free+0x88>)
    3fb2:	481c      	ldr	r0, [pc, #112]	; (4024 <pbuf_free+0x8c>)
    3fb4:	f8df 8078 	ldr.w	r8, [pc, #120]	; 4030 <pbuf_free+0x98>
    3fb8:	f8df 9078 	ldr.w	r9, [pc, #120]	; 4034 <pbuf_free+0x9c>
    3fbc:	4f1a      	ldr	r7, [pc, #104]	; (4028 <pbuf_free+0x90>)
    3fbe:	47b0      	blx	r6
    3fc0:	2500      	movs	r5, #0
    3fc2:	89e2      	ldrh	r2, [r4, #14]
    3fc4:	3a01      	subs	r2, #1
    3fc6:	b292      	uxth	r2, r2
    3fc8:	81e2      	strh	r2, [r4, #14]
    3fca:	bb02      	cbnz	r2, 400e <pbuf_free+0x76>
    3fcc:	4621      	mov	r1, r4
    3fce:	4640      	mov	r0, r8
    3fd0:	f8d4 a000 	ldr.w	sl, [r4]
    3fd4:	47b0      	blx	r6
    3fd6:	7b63      	ldrb	r3, [r4, #13]
    3fd8:	079b      	lsls	r3, r3, #30
    3fda:	d508      	bpl.n	3fee <pbuf_free+0x56>
    3fdc:	6923      	ldr	r3, [r4, #16]
    3fde:	4620      	mov	r0, r4
    3fe0:	4798      	blx	r3
    3fe2:	3501      	adds	r5, #1
    3fe4:	4654      	mov	r4, sl
    3fe6:	b2ed      	uxtb	r5, r5
    3fe8:	2c00      	cmp	r4, #0
    3fea:	d1ea      	bne.n	3fc2 <pbuf_free+0x2a>
    3fec:	e7dc      	b.n	3fa8 <pbuf_free+0x10>
    3fee:	7b23      	ldrb	r3, [r4, #12]
    3ff0:	2b03      	cmp	r3, #3
    3ff2:	d103      	bne.n	3ffc <pbuf_free+0x64>
    3ff4:	4621      	mov	r1, r4
    3ff6:	2009      	movs	r0, #9
    3ff8:	47b8      	blx	r7
    3ffa:	e7f2      	b.n	3fe2 <pbuf_free+0x4a>
    3ffc:	3b01      	subs	r3, #1
    3ffe:	2b01      	cmp	r3, #1
    4000:	d802      	bhi.n	4008 <pbuf_free+0x70>
    4002:	4621      	mov	r1, r4
    4004:	2008      	movs	r0, #8
    4006:	e7f7      	b.n	3ff8 <pbuf_free+0x60>
    4008:	4620      	mov	r0, r4
    400a:	47c8      	blx	r9
    400c:	e7e9      	b.n	3fe2 <pbuf_free+0x4a>
    400e:	4621      	mov	r1, r4
    4010:	4806      	ldr	r0, [pc, #24]	; (402c <pbuf_free+0x94>)
    4012:	47b0      	blx	r6
    4014:	e7c8      	b.n	3fa8 <pbuf_free+0x10>
    4016:	bf00      	nop
    4018:	0000b23c 	.word	0x0000b23c
    401c:	00008595 	.word	0x00008595
    4020:	00008485 	.word	0x00008485
    4024:	0000b25d 	.word	0x0000b25d
    4028:	00003b41 	.word	0x00003b41
    402c:	0000b288 	.word	0x0000b288
    4030:	0000b26c 	.word	0x0000b26c
    4034:	00003899 	.word	0x00003899

00004038 <pbuf_alloc>:
    4038:	e92d 4ff7 	stmdb	sp!, {r0, r1, r2, r4, r5, r6, r7, r8, r9, sl, fp, lr}
    403c:	4604      	mov	r4, r0
    403e:	4f51      	ldr	r7, [pc, #324]	; (4184 <pbuf_alloc+0x14c>)
    4040:	4851      	ldr	r0, [pc, #324]	; (4188 <pbuf_alloc+0x150>)
    4042:	4688      	mov	r8, r1
    4044:	4616      	mov	r6, r2
    4046:	47b8      	blx	r7
    4048:	2c03      	cmp	r4, #3
    404a:	d851      	bhi.n	40f0 <pbuf_alloc+0xb8>
    404c:	e8df f004 	tbb	[pc, r4]
    4050:	0b09020d 	.word	0x0b09020d
    4054:	2522      	movs	r5, #34	; 0x22
    4056:	2e03      	cmp	r6, #3
    4058:	d84a      	bhi.n	40f0 <pbuf_alloc+0xb8>
    405a:	e8df f006 	tbb	[pc, r6]
    405e:	7d61      	.short	0x7d61
    4060:	087d      	.short	0x087d
    4062:	250e      	movs	r5, #14
    4064:	e7f7      	b.n	4056 <pbuf_alloc+0x1e>
    4066:	2500      	movs	r5, #0
    4068:	e7f5      	b.n	4056 <pbuf_alloc+0x1e>
    406a:	2536      	movs	r5, #54	; 0x36
    406c:	e7f3      	b.n	4056 <pbuf_alloc+0x1e>
    406e:	4e47      	ldr	r6, [pc, #284]	; (418c <pbuf_alloc+0x154>)
    4070:	2009      	movs	r0, #9
    4072:	47b0      	blx	r6
    4074:	4601      	mov	r1, r0
    4076:	4604      	mov	r4, r0
    4078:	4845      	ldr	r0, [pc, #276]	; (4190 <pbuf_alloc+0x158>)
    407a:	47b8      	blx	r7
    407c:	46b1      	mov	r9, r6
    407e:	b934      	cbnz	r4, 408e <pbuf_alloc+0x56>
    4080:	4b44      	ldr	r3, [pc, #272]	; (4194 <pbuf_alloc+0x15c>)
    4082:	2201      	movs	r2, #1
    4084:	701a      	strb	r2, [r3, #0]
    4086:	4620      	mov	r0, r4
    4088:	b003      	add	sp, #12
    408a:	e8bd 8ff0 	ldmia.w	sp!, {r4, r5, r6, r7, r8, r9, sl, fp, pc}
    408e:	2103      	movs	r1, #3
    4090:	1962      	adds	r2, r4, r5
    4092:	440d      	add	r5, r1
    4094:	f025 0503 	bic.w	r5, r5, #3
    4098:	f5c5 65bd 	rsb	r5, r5, #1512	; 0x5e8
    409c:	3504      	adds	r5, #4
    409e:	3213      	adds	r2, #19
    40a0:	f022 0203 	bic.w	r2, r2, #3
    40a4:	4545      	cmp	r5, r8
    40a6:	bfa8      	it	ge
    40a8:	4645      	movge	r5, r8
    40aa:	2300      	movs	r3, #0
    40ac:	6062      	str	r2, [r4, #4]
    40ae:	2201      	movs	r2, #1
    40b0:	8165      	strh	r5, [r4, #10]
    40b2:	7321      	strb	r1, [r4, #12]
    40b4:	6023      	str	r3, [r4, #0]
    40b6:	f8a4 8008 	strh.w	r8, [r4, #8]
    40ba:	81e2      	strh	r2, [r4, #14]
    40bc:	eba8 0505 	sub.w	r5, r8, r5
    40c0:	46a2      	mov	sl, r4
    40c2:	468b      	mov	fp, r1
    40c4:	2d00      	cmp	r5, #0
    40c6:	dc08      	bgt.n	40da <pbuf_alloc+0xa2>
    40c8:	2301      	movs	r3, #1
    40ca:	81e3      	strh	r3, [r4, #14]
    40cc:	2300      	movs	r3, #0
    40ce:	7363      	strb	r3, [r4, #13]
    40d0:	4622      	mov	r2, r4
    40d2:	4641      	mov	r1, r8
    40d4:	4830      	ldr	r0, [pc, #192]	; (4198 <pbuf_alloc+0x160>)
    40d6:	47b8      	blx	r7
    40d8:	e7d5      	b.n	4086 <pbuf_alloc+0x4e>
    40da:	2009      	movs	r0, #9
    40dc:	9301      	str	r3, [sp, #4]
    40de:	47c8      	blx	r9
    40e0:	9b01      	ldr	r3, [sp, #4]
    40e2:	b938      	cbnz	r0, 40f4 <pbuf_alloc+0xbc>
    40e4:	4b2b      	ldr	r3, [pc, #172]	; (4194 <pbuf_alloc+0x15c>)
    40e6:	2201      	movs	r2, #1
    40e8:	701a      	strb	r2, [r3, #0]
    40ea:	4620      	mov	r0, r4
    40ec:	4b2b      	ldr	r3, [pc, #172]	; (419c <pbuf_alloc+0x164>)
    40ee:	4798      	blx	r3
    40f0:	2400      	movs	r4, #0
    40f2:	e7c8      	b.n	4086 <pbuf_alloc+0x4e>
    40f4:	b2aa      	uxth	r2, r5
    40f6:	f240 51ec 	movw	r1, #1516	; 0x5ec
    40fa:	428a      	cmp	r2, r1
    40fc:	f880 b00c 	strb.w	fp, [r0, #12]
    4100:	7343      	strb	r3, [r0, #13]
    4102:	6003      	str	r3, [r0, #0]
    4104:	f8ca 0000 	str.w	r0, [sl]
    4108:	8102      	strh	r2, [r0, #8]
    410a:	bf28      	it	cs
    410c:	460a      	movcs	r2, r1
    410e:	f100 0110 	add.w	r1, r0, #16
    4112:	6041      	str	r1, [r0, #4]
    4114:	2101      	movs	r1, #1
    4116:	8142      	strh	r2, [r0, #10]
    4118:	81c1      	strh	r1, [r0, #14]
    411a:	1aad      	subs	r5, r5, r2
    411c:	4682      	mov	sl, r0
    411e:	e7d1      	b.n	40c4 <pbuf_alloc+0x8c>
    4120:	f105 0013 	add.w	r0, r5, #19
    4124:	f108 0303 	add.w	r3, r8, #3
    4128:	f023 0303 	bic.w	r3, r3, #3
    412c:	f020 0003 	bic.w	r0, r0, #3
    4130:	4418      	add	r0, r3
    4132:	b280      	uxth	r0, r0
    4134:	4b1a      	ldr	r3, [pc, #104]	; (41a0 <pbuf_alloc+0x168>)
    4136:	4798      	blx	r3
    4138:	4604      	mov	r4, r0
    413a:	2800      	cmp	r0, #0
    413c:	d0a3      	beq.n	4086 <pbuf_alloc+0x4e>
    413e:	4405      	add	r5, r0
    4140:	3513      	adds	r5, #19
    4142:	2300      	movs	r3, #0
    4144:	f025 0503 	bic.w	r5, r5, #3
    4148:	6045      	str	r5, [r0, #4]
    414a:	f8a0 8008 	strh.w	r8, [r0, #8]
    414e:	f8a0 800a 	strh.w	r8, [r0, #10]
    4152:	6003      	str	r3, [r0, #0]
    4154:	7303      	strb	r3, [r0, #12]
    4156:	e7b7      	b.n	40c8 <pbuf_alloc+0x90>
    4158:	2008      	movs	r0, #8
    415a:	4b0c      	ldr	r3, [pc, #48]	; (418c <pbuf_alloc+0x154>)
    415c:	4798      	blx	r3
    415e:	4604      	mov	r4, r0
    4160:	b938      	cbnz	r0, 4172 <pbuf_alloc+0x13a>
    4162:	4b10      	ldr	r3, [pc, #64]	; (41a4 <pbuf_alloc+0x16c>)
    4164:	4910      	ldr	r1, [pc, #64]	; (41a8 <pbuf_alloc+0x170>)
    4166:	4811      	ldr	r0, [pc, #68]	; (41ac <pbuf_alloc+0x174>)
    4168:	2e01      	cmp	r6, #1
    416a:	bf18      	it	ne
    416c:	4619      	movne	r1, r3
    416e:	47b8      	blx	r7
    4170:	e789      	b.n	4086 <pbuf_alloc+0x4e>
    4172:	2300      	movs	r3, #0
    4174:	6043      	str	r3, [r0, #4]
    4176:	f8a0 8008 	strh.w	r8, [r0, #8]
    417a:	f8a0 800a 	strh.w	r8, [r0, #10]
    417e:	6003      	str	r3, [r0, #0]
    4180:	7306      	strb	r6, [r0, #12]
    4182:	e7a1      	b.n	40c8 <pbuf_alloc+0x90>
    4184:	00008485 	.word	0x00008485
    4188:	0000b2b5 	.word	0x0000b2b5
    418c:	00003ae9 	.word	0x00003ae9
    4190:	0000b2cd 	.word	0x0000b2cd
    4194:	20009084 	.word	0x20009084
    4198:	0000b323 	.word	0x0000b323
    419c:	00003f99 	.word	0x00003f99
    41a0:	000039dd 	.word	0x000039dd
    41a4:	0000b2b1 	.word	0x0000b2b1
    41a8:	0000af4f 	.word	0x0000af4f
    41ac:	0000b2ec 	.word	0x0000b2ec

000041b0 <pbuf_realloc>:
    41b0:	b538      	push	{r3, r4, r5, lr}
    41b2:	8903      	ldrh	r3, [r0, #8]
    41b4:	428b      	cmp	r3, r1
    41b6:	4604      	mov	r4, r0
    41b8:	d918      	bls.n	41ec <pbuf_realloc+0x3c>
    41ba:	460d      	mov	r5, r1
    41bc:	1acb      	subs	r3, r1, r3
    41be:	8961      	ldrh	r1, [r4, #10]
    41c0:	428d      	cmp	r5, r1
    41c2:	d814      	bhi.n	41ee <pbuf_realloc+0x3e>
    41c4:	7b23      	ldrb	r3, [r4, #12]
    41c6:	b94b      	cbnz	r3, 41dc <pbuf_realloc+0x2c>
    41c8:	428d      	cmp	r5, r1
    41ca:	d007      	beq.n	41dc <pbuf_realloc+0x2c>
    41cc:	6861      	ldr	r1, [r4, #4]
    41ce:	4b0b      	ldr	r3, [pc, #44]	; (41fc <pbuf_realloc+0x4c>)
    41d0:	1b09      	subs	r1, r1, r4
    41d2:	4429      	add	r1, r5
    41d4:	4620      	mov	r0, r4
    41d6:	b289      	uxth	r1, r1
    41d8:	4798      	blx	r3
    41da:	4604      	mov	r4, r0
    41dc:	6820      	ldr	r0, [r4, #0]
    41de:	8165      	strh	r5, [r4, #10]
    41e0:	8125      	strh	r5, [r4, #8]
    41e2:	b108      	cbz	r0, 41e8 <pbuf_realloc+0x38>
    41e4:	4b06      	ldr	r3, [pc, #24]	; (4200 <pbuf_realloc+0x50>)
    41e6:	4798      	blx	r3
    41e8:	2300      	movs	r3, #0
    41ea:	6023      	str	r3, [r4, #0]
    41ec:	bd38      	pop	{r3, r4, r5, pc}
    41ee:	8922      	ldrh	r2, [r4, #8]
    41f0:	1a6d      	subs	r5, r5, r1
    41f2:	441a      	add	r2, r3
    41f4:	8122      	strh	r2, [r4, #8]
    41f6:	b2ad      	uxth	r5, r5
    41f8:	6824      	ldr	r4, [r4, #0]
    41fa:	e7e0      	b.n	41be <pbuf_realloc+0xe>
    41fc:	0000392d 	.word	0x0000392d
    4200:	00003f99 	.word	0x00003f99

00004204 <pbuf_clen>:
    4204:	4603      	mov	r3, r0
    4206:	2200      	movs	r2, #0
    4208:	b2d0      	uxtb	r0, r2
    420a:	3201      	adds	r2, #1
    420c:	b903      	cbnz	r3, 4210 <pbuf_clen+0xc>
    420e:	4770      	bx	lr
    4210:	681b      	ldr	r3, [r3, #0]
    4212:	e7f9      	b.n	4208 <pbuf_clen+0x4>

00004214 <pbuf_ref>:
    4214:	b110      	cbz	r0, 421c <pbuf_ref+0x8>
    4216:	89c3      	ldrh	r3, [r0, #14]
    4218:	3301      	adds	r3, #1
    421a:	81c3      	strh	r3, [r0, #14]
    421c:	4770      	bx	lr
	...

00004220 <pbuf_cat>:
    4220:	b510      	push	{r4, lr}
    4222:	b100      	cbz	r0, 4226 <pbuf_cat+0x6>
    4224:	b941      	cbnz	r1, 4238 <pbuf_cat+0x18>
    4226:	4b09      	ldr	r3, [pc, #36]	; (424c <pbuf_cat+0x2c>)
    4228:	4909      	ldr	r1, [pc, #36]	; (4250 <pbuf_cat+0x30>)
    422a:	480a      	ldr	r0, [pc, #40]	; (4254 <pbuf_cat+0x34>)
    422c:	4c0a      	ldr	r4, [pc, #40]	; (4258 <pbuf_cat+0x38>)
    422e:	f240 22df 	movw	r2, #735	; 0x2df
    4232:	47a0      	blx	r4
    4234:	e7fe      	b.n	4234 <pbuf_cat+0x14>
    4236:	4620      	mov	r0, r4
    4238:	8903      	ldrh	r3, [r0, #8]
    423a:	890a      	ldrh	r2, [r1, #8]
    423c:	6804      	ldr	r4, [r0, #0]
    423e:	4413      	add	r3, r2
    4240:	8103      	strh	r3, [r0, #8]
    4242:	2c00      	cmp	r4, #0
    4244:	d1f7      	bne.n	4236 <pbuf_cat+0x16>
    4246:	6001      	str	r1, [r0, #0]
    4248:	bd10      	pop	{r4, pc}
    424a:	bf00      	nop
    424c:	0000b192 	.word	0x0000b192
    4250:	0000b341 	.word	0x0000b341
    4254:	000096d7 	.word	0x000096d7
    4258:	00008485 	.word	0x00008485

0000425c <pbuf_chain>:
    425c:	b570      	push	{r4, r5, r6, lr}
    425e:	4b07      	ldr	r3, [pc, #28]	; (427c <pbuf_chain+0x20>)
    4260:	460c      	mov	r4, r1
    4262:	4605      	mov	r5, r0
    4264:	4798      	blx	r3
    4266:	4620      	mov	r0, r4
    4268:	4b05      	ldr	r3, [pc, #20]	; (4280 <pbuf_chain+0x24>)
    426a:	4798      	blx	r3
    426c:	4622      	mov	r2, r4
    426e:	4629      	mov	r1, r5
    4270:	4804      	ldr	r0, [pc, #16]	; (4284 <pbuf_chain+0x28>)
    4272:	4b05      	ldr	r3, [pc, #20]	; (4288 <pbuf_chain+0x2c>)
    4274:	e8bd 4070 	ldmia.w	sp!, {r4, r5, r6, lr}
    4278:	4718      	bx	r3
    427a:	bf00      	nop
    427c:	00004221 	.word	0x00004221
    4280:	00004215 	.word	0x00004215
    4284:	0000b376 	.word	0x0000b376
    4288:	00008485 	.word	0x00008485

0000428c <pbuf_copy>:
    428c:	e92d 47f0 	stmdb	sp!, {r4, r5, r6, r7, r8, r9, sl, lr}
    4290:	4e33      	ldr	r6, [pc, #204]	; (4360 <pbuf_copy+0xd4>)
    4292:	460a      	mov	r2, r1
    4294:	4605      	mov	r5, r0
    4296:	460c      	mov	r4, r1
    4298:	4601      	mov	r1, r0
    429a:	4832      	ldr	r0, [pc, #200]	; (4364 <pbuf_copy+0xd8>)
    429c:	47b0      	blx	r6
    429e:	46b0      	mov	r8, r6
    42a0:	b125      	cbz	r5, 42ac <pbuf_copy+0x20>
    42a2:	b11c      	cbz	r4, 42ac <pbuf_copy+0x20>
    42a4:	892a      	ldrh	r2, [r5, #8]
    42a6:	8923      	ldrh	r3, [r4, #8]
    42a8:	429a      	cmp	r2, r3
    42aa:	d206      	bcs.n	42ba <pbuf_copy+0x2e>
    42ac:	4b2e      	ldr	r3, [pc, #184]	; (4368 <pbuf_copy+0xdc>)
    42ae:	492f      	ldr	r1, [pc, #188]	; (436c <pbuf_copy+0xe0>)
    42b0:	482f      	ldr	r0, [pc, #188]	; (4370 <pbuf_copy+0xe4>)
    42b2:	f240 324b 	movw	r2, #843	; 0x34b
    42b6:	47c0      	blx	r8
    42b8:	e7fe      	b.n	42b8 <pbuf_copy+0x2c>
    42ba:	f04f 0a00 	mov.w	sl, #0
    42be:	f8df 90c4 	ldr.w	r9, [pc, #196]	; 4384 <pbuf_copy+0xf8>
    42c2:	4657      	mov	r7, sl
    42c4:	8966      	ldrh	r6, [r4, #10]
    42c6:	896b      	ldrh	r3, [r5, #10]
    42c8:	6861      	ldr	r1, [r4, #4]
    42ca:	6868      	ldr	r0, [r5, #4]
    42cc:	eba6 060a 	sub.w	r6, r6, sl
    42d0:	1bdb      	subs	r3, r3, r7
    42d2:	42b3      	cmp	r3, r6
    42d4:	bfb4      	ite	lt
    42d6:	b29e      	uxthlt	r6, r3
    42d8:	b2b6      	uxthge	r6, r6
    42da:	4632      	mov	r2, r6
    42dc:	4451      	add	r1, sl
    42de:	4438      	add	r0, r7
    42e0:	47c8      	blx	r9
    42e2:	4437      	add	r7, r6
    42e4:	8963      	ldrh	r3, [r4, #10]
    42e6:	4456      	add	r6, sl
    42e8:	fa1f fa86 	uxth.w	sl, r6
    42ec:	4553      	cmp	r3, sl
    42ee:	896b      	ldrh	r3, [r5, #10]
    42f0:	bf98      	it	ls
    42f2:	6824      	ldrls	r4, [r4, #0]
    42f4:	b2bf      	uxth	r7, r7
    42f6:	bf98      	it	ls
    42f8:	f04f 0a00 	movls.w	sl, #0
    42fc:	42bb      	cmp	r3, r7
    42fe:	d11f      	bne.n	4340 <pbuf_copy+0xb4>
    4300:	682d      	ldr	r5, [r5, #0]
    4302:	b9e5      	cbnz	r5, 433e <pbuf_copy+0xb2>
    4304:	b1ac      	cbz	r4, 4332 <pbuf_copy+0xa6>
    4306:	4b18      	ldr	r3, [pc, #96]	; (4368 <pbuf_copy+0xdc>)
    4308:	491a      	ldr	r1, [pc, #104]	; (4374 <pbuf_copy+0xe8>)
    430a:	4819      	ldr	r0, [pc, #100]	; (4370 <pbuf_copy+0xe4>)
    430c:	f240 3265 	movw	r2, #869	; 0x365
    4310:	47c0      	blx	r8
    4312:	e7fe      	b.n	4312 <pbuf_copy+0x86>
    4314:	8962      	ldrh	r2, [r4, #10]
    4316:	8923      	ldrh	r3, [r4, #8]
    4318:	429a      	cmp	r2, r3
    431a:	d113      	bne.n	4344 <pbuf_copy+0xb8>
    431c:	6823      	ldr	r3, [r4, #0]
    431e:	b18b      	cbz	r3, 4344 <pbuf_copy+0xb8>
    4320:	4b11      	ldr	r3, [pc, #68]	; (4368 <pbuf_copy+0xdc>)
    4322:	4915      	ldr	r1, [pc, #84]	; (4378 <pbuf_copy+0xec>)
    4324:	4812      	ldr	r0, [pc, #72]	; (4370 <pbuf_copy+0xe4>)
    4326:	f240 326a 	movw	r2, #874	; 0x36a
    432a:	47c0      	blx	r8
    432c:	e7fe      	b.n	432c <pbuf_copy+0xa0>
    432e:	2c00      	cmp	r4, #0
    4330:	d1c8      	bne.n	42c4 <pbuf_copy+0x38>
    4332:	4b12      	ldr	r3, [pc, #72]	; (437c <pbuf_copy+0xf0>)
    4334:	4812      	ldr	r0, [pc, #72]	; (4380 <pbuf_copy+0xf4>)
    4336:	4798      	blx	r3
    4338:	2000      	movs	r0, #0
    433a:	e8bd 87f0 	ldmia.w	sp!, {r4, r5, r6, r7, r8, r9, sl, pc}
    433e:	2700      	movs	r7, #0
    4340:	2c00      	cmp	r4, #0
    4342:	d1e7      	bne.n	4314 <pbuf_copy+0x88>
    4344:	896a      	ldrh	r2, [r5, #10]
    4346:	892b      	ldrh	r3, [r5, #8]
    4348:	429a      	cmp	r2, r3
    434a:	d1f0      	bne.n	432e <pbuf_copy+0xa2>
    434c:	682b      	ldr	r3, [r5, #0]
    434e:	2b00      	cmp	r3, #0
    4350:	d0ed      	beq.n	432e <pbuf_copy+0xa2>
    4352:	4b05      	ldr	r3, [pc, #20]	; (4368 <pbuf_copy+0xdc>)
    4354:	4908      	ldr	r1, [pc, #32]	; (4378 <pbuf_copy+0xec>)
    4356:	4806      	ldr	r0, [pc, #24]	; (4370 <pbuf_copy+0xe4>)
    4358:	f240 326e 	movw	r2, #878	; 0x36e
    435c:	47c0      	blx	r8
    435e:	e7fe      	b.n	435e <pbuf_copy+0xd2>
    4360:	00008485 	.word	0x00008485
    4364:	0000b3f2 	.word	0x0000b3f2
    4368:	0000b192 	.word	0x0000b192
    436c:	0000b405 	.word	0x0000b405
    4370:	000096d7 	.word	0x000096d7
    4374:	0000b435 	.word	0x0000b435
    4378:	0000b442 	.word	0x0000b442
    437c:	00008595 	.word	0x00008595
    4380:	0000b46d 	.word	0x0000b46d
    4384:	0000845f 	.word	0x0000845f

00004388 <pbuf_copy_partial>:
    4388:	e92d 43f8 	stmdb	sp!, {r3, r4, r5, r6, r7, r8, r9, lr}
    438c:	4688      	mov	r8, r1
    438e:	4617      	mov	r7, r2
    4390:	4605      	mov	r5, r0
    4392:	b938      	cbnz	r0, 43a4 <pbuf_copy_partial+0x1c>
    4394:	4b19      	ldr	r3, [pc, #100]	; (43fc <pbuf_copy_partial+0x74>)
    4396:	491a      	ldr	r1, [pc, #104]	; (4400 <pbuf_copy_partial+0x78>)
    4398:	481a      	ldr	r0, [pc, #104]	; (4404 <pbuf_copy_partial+0x7c>)
    439a:	4c1b      	ldr	r4, [pc, #108]	; (4408 <pbuf_copy_partial+0x80>)
    439c:	f240 3287 	movw	r2, #903	; 0x387
    43a0:	47a0      	blx	r4
    43a2:	e7fe      	b.n	43a2 <pbuf_copy_partial+0x1a>
    43a4:	b139      	cbz	r1, 43b6 <pbuf_copy_partial+0x2e>
    43a6:	f8df 9068 	ldr.w	r9, [pc, #104]	; 4410 <pbuf_copy_partial+0x88>
    43aa:	2600      	movs	r6, #0
    43ac:	b107      	cbz	r7, 43b0 <pbuf_copy_partial+0x28>
    43ae:	b955      	cbnz	r5, 43c6 <pbuf_copy_partial+0x3e>
    43b0:	4630      	mov	r0, r6
    43b2:	e8bd 83f8 	ldmia.w	sp!, {r3, r4, r5, r6, r7, r8, r9, pc}
    43b6:	4b11      	ldr	r3, [pc, #68]	; (43fc <pbuf_copy_partial+0x74>)
    43b8:	4914      	ldr	r1, [pc, #80]	; (440c <pbuf_copy_partial+0x84>)
    43ba:	4812      	ldr	r0, [pc, #72]	; (4404 <pbuf_copy_partial+0x7c>)
    43bc:	4c12      	ldr	r4, [pc, #72]	; (4408 <pbuf_copy_partial+0x80>)
    43be:	f44f 7262 	mov.w	r2, #904	; 0x388
    43c2:	47a0      	blx	r4
    43c4:	e7fe      	b.n	43c4 <pbuf_copy_partial+0x3c>
    43c6:	b133      	cbz	r3, 43d6 <pbuf_copy_partial+0x4e>
    43c8:	8969      	ldrh	r1, [r5, #10]
    43ca:	428b      	cmp	r3, r1
    43cc:	d303      	bcc.n	43d6 <pbuf_copy_partial+0x4e>
    43ce:	1a5b      	subs	r3, r3, r1
    43d0:	b29b      	uxth	r3, r3
    43d2:	682d      	ldr	r5, [r5, #0]
    43d4:	e7ea      	b.n	43ac <pbuf_copy_partial+0x24>
    43d6:	896c      	ldrh	r4, [r5, #10]
    43d8:	6869      	ldr	r1, [r5, #4]
    43da:	1ae4      	subs	r4, r4, r3
    43dc:	b2a4      	uxth	r4, r4
    43de:	42bc      	cmp	r4, r7
    43e0:	bf28      	it	cs
    43e2:	463c      	movcs	r4, r7
    43e4:	4622      	mov	r2, r4
    43e6:	4419      	add	r1, r3
    43e8:	eb08 0006 	add.w	r0, r8, r6
    43ec:	4426      	add	r6, r4
    43ee:	1b3c      	subs	r4, r7, r4
    43f0:	47c8      	blx	r9
    43f2:	b2b6      	uxth	r6, r6
    43f4:	b2a7      	uxth	r7, r4
    43f6:	2300      	movs	r3, #0
    43f8:	e7eb      	b.n	43d2 <pbuf_copy_partial+0x4a>
    43fa:	bf00      	nop
    43fc:	0000b192 	.word	0x0000b192
    4400:	0000b48e 	.word	0x0000b48e
    4404:	000096d7 	.word	0x000096d7
    4408:	00008485 	.word	0x00008485
    440c:	0000b4ad 	.word	0x0000b4ad
    4410:	0000845f 	.word	0x0000845f

00004414 <raw_input>:
    4414:	e92d 4ff8 	stmdb	sp!, {r3, r4, r5, r6, r7, r8, r9, sl, fp, lr}
    4418:	6843      	ldr	r3, [r0, #4]
    441a:	4d1a      	ldr	r5, [pc, #104]	; (4484 <raw_input+0x70>)
    441c:	f893 8009 	ldrb.w	r8, [r3, #9]
    4420:	682c      	ldr	r4, [r5, #0]
    4422:	f8df 9064 	ldr.w	r9, [pc, #100]	; 4488 <raw_input+0x74>
    4426:	f8df a064 	ldr.w	sl, [pc, #100]	; 448c <raw_input+0x78>
    442a:	4607      	mov	r7, r0
    442c:	2600      	movs	r6, #0
    442e:	b914      	cbnz	r4, 4436 <raw_input+0x22>
    4430:	4620      	mov	r0, r4
    4432:	e8bd 8ff8 	ldmia.w	sp!, {r3, r4, r5, r6, r7, r8, r9, sl, fp, pc}
    4436:	7c23      	ldrb	r3, [r4, #16]
    4438:	4543      	cmp	r3, r8
    443a:	d11e      	bne.n	447a <raw_input+0x66>
    443c:	6823      	ldr	r3, [r4, #0]
    443e:	b11b      	cbz	r3, 4448 <raw_input+0x34>
    4440:	f8da 2000 	ldr.w	r2, [sl]
    4444:	4293      	cmp	r3, r2
    4446:	d118      	bne.n	447a <raw_input+0x66>
    4448:	f8d4 b014 	ldr.w	fp, [r4, #20]
    444c:	f1bb 0f00 	cmp.w	fp, #0
    4450:	d013      	beq.n	447a <raw_input+0x66>
    4452:	464b      	mov	r3, r9
    4454:	463a      	mov	r2, r7
    4456:	4621      	mov	r1, r4
    4458:	69a0      	ldr	r0, [r4, #24]
    445a:	47d8      	blx	fp
    445c:	b138      	cbz	r0, 446e <raw_input+0x5a>
    445e:	b176      	cbz	r6, 447e <raw_input+0x6a>
    4460:	68e3      	ldr	r3, [r4, #12]
    4462:	60f3      	str	r3, [r6, #12]
    4464:	682b      	ldr	r3, [r5, #0]
    4466:	60e3      	str	r3, [r4, #12]
    4468:	602c      	str	r4, [r5, #0]
    446a:	2001      	movs	r0, #1
    446c:	2700      	movs	r7, #0
    446e:	68e3      	ldr	r3, [r4, #12]
    4470:	4626      	mov	r6, r4
    4472:	2800      	cmp	r0, #0
    4474:	d1dd      	bne.n	4432 <raw_input+0x1e>
    4476:	461c      	mov	r4, r3
    4478:	e7d9      	b.n	442e <raw_input+0x1a>
    447a:	2000      	movs	r0, #0
    447c:	e7f7      	b.n	446e <raw_input+0x5a>
    447e:	2001      	movs	r0, #1
    4480:	4637      	mov	r7, r6
    4482:	e7f4      	b.n	446e <raw_input+0x5a>
    4484:	20007ea4 	.word	0x20007ea4
    4488:	200080b8 	.word	0x200080b8
    448c:	200080c0 	.word	0x200080c0

00004490 <tcp_init>:
    4490:	4770      	bx	lr

00004492 <tcp_update_rcv_ann_wnd>:
    4492:	b570      	push	{r4, r5, r6, lr}
    4494:	6b01      	ldr	r1, [r0, #48]	; 0x30
    4496:	8d85      	ldrh	r5, [r0, #44]	; 0x2c
    4498:	6a84      	ldr	r4, [r0, #40]	; 0x28
    449a:	4602      	mov	r2, r0
    449c:	1a6b      	subs	r3, r5, r1
    449e:	1918      	adds	r0, r3, r4
    44a0:	8ed3      	ldrh	r3, [r2, #54]	; 0x36
    44a2:	f640 3668 	movw	r6, #2920	; 0xb68
    44a6:	42b3      	cmp	r3, r6
    44a8:	bf94      	ite	ls
    44aa:	1ac3      	subls	r3, r0, r3
    44ac:	1b83      	subhi	r3, r0, r6
    44ae:	2b00      	cmp	r3, #0
    44b0:	db01      	blt.n	44b6 <tcp_update_rcv_ann_wnd+0x24>
    44b2:	85d5      	strh	r5, [r2, #46]	; 0x2e
    44b4:	bd70      	pop	{r4, r5, r6, pc}
    44b6:	1a63      	subs	r3, r4, r1
    44b8:	2b00      	cmp	r3, #0
    44ba:	f04f 0000 	mov.w	r0, #0
    44be:	bfd6      	itet	le
    44c0:	1b09      	suble	r1, r1, r4
    44c2:	85d0      	strhgt	r0, [r2, #46]	; 0x2e
    44c4:	85d1      	strhle	r1, [r2, #46]	; 0x2e
    44c6:	bd70      	pop	{r4, r5, r6, pc}

000044c8 <tcp_recved>:
    44c8:	8d83      	ldrh	r3, [r0, #44]	; 0x2c
    44ca:	440b      	add	r3, r1
    44cc:	b29b      	uxth	r3, r3
    44ce:	f241 62d0 	movw	r2, #5840	; 0x16d0
    44d2:	4293      	cmp	r3, r2
    44d4:	b570      	push	{r4, r5, r6, lr}
    44d6:	bf94      	ite	ls
    44d8:	8583      	strhls	r3, [r0, #44]	; 0x2c
    44da:	8582      	strhhi	r2, [r0, #44]	; 0x2c
    44dc:	4b0c      	ldr	r3, [pc, #48]	; (4510 <tcp_recved+0x48>)
    44de:	4604      	mov	r4, r0
    44e0:	460d      	mov	r5, r1
    44e2:	4798      	blx	r3
    44e4:	f240 53b3 	movw	r3, #1459	; 0x5b3
    44e8:	4298      	cmp	r0, r3
    44ea:	dd06      	ble.n	44fa <tcp_recved+0x32>
    44ec:	7fa3      	ldrb	r3, [r4, #30]
    44ee:	f043 0302 	orr.w	r3, r3, #2
    44f2:	77a3      	strb	r3, [r4, #30]
    44f4:	4620      	mov	r0, r4
    44f6:	4b07      	ldr	r3, [pc, #28]	; (4514 <tcp_recved+0x4c>)
    44f8:	4798      	blx	r3
    44fa:	8da2      	ldrh	r2, [r4, #44]	; 0x2c
    44fc:	4c06      	ldr	r4, [pc, #24]	; (4518 <tcp_recved+0x50>)
    44fe:	4807      	ldr	r0, [pc, #28]	; (451c <tcp_recved+0x54>)
    4500:	f5c2 53b6 	rsb	r3, r2, #5824	; 0x16c0
    4504:	4629      	mov	r1, r5
    4506:	46a4      	mov	ip, r4
    4508:	3310      	adds	r3, #16
    450a:	e8bd 4070 	ldmia.w	sp!, {r4, r5, r6, lr}
    450e:	4760      	bx	ip
    4510:	00004493 	.word	0x00004493
    4514:	000067b9 	.word	0x000067b9
    4518:	00008485 	.word	0x00008485
    451c:	0000b5dc 	.word	0x0000b5dc

00004520 <tcp_seg_free>:
    4520:	b510      	push	{r4, lr}
    4522:	4604      	mov	r4, r0
    4524:	b158      	cbz	r0, 453e <tcp_seg_free+0x1e>
    4526:	6840      	ldr	r0, [r0, #4]
    4528:	b118      	cbz	r0, 4532 <tcp_seg_free+0x12>
    452a:	4b05      	ldr	r3, [pc, #20]	; (4540 <tcp_seg_free+0x20>)
    452c:	4798      	blx	r3
    452e:	2300      	movs	r3, #0
    4530:	6063      	str	r3, [r4, #4]
    4532:	4621      	mov	r1, r4
    4534:	2004      	movs	r0, #4
    4536:	4b03      	ldr	r3, [pc, #12]	; (4544 <tcp_seg_free+0x24>)
    4538:	e8bd 4010 	ldmia.w	sp!, {r4, lr}
    453c:	4718      	bx	r3
    453e:	bd10      	pop	{r4, pc}
    4540:	00003f99 	.word	0x00003f99
    4544:	00003b41 	.word	0x00003b41

00004548 <tcp_segs_free>:
    4548:	b538      	push	{r3, r4, r5, lr}
    454a:	4c03      	ldr	r4, [pc, #12]	; (4558 <tcp_segs_free+0x10>)
    454c:	b900      	cbnz	r0, 4550 <tcp_segs_free+0x8>
    454e:	bd38      	pop	{r3, r4, r5, pc}
    4550:	6805      	ldr	r5, [r0, #0]
    4552:	47a0      	blx	r4
    4554:	4628      	mov	r0, r5
    4556:	e7f9      	b.n	454c <tcp_segs_free+0x4>
    4558:	00004521 	.word	0x00004521

0000455c <tcp_seg_copy>:
    455c:	b538      	push	{r3, r4, r5, lr}
    455e:	4604      	mov	r4, r0
    4560:	4b09      	ldr	r3, [pc, #36]	; (4588 <tcp_seg_copy+0x2c>)
    4562:	2004      	movs	r0, #4
    4564:	4798      	blx	r3
    4566:	4605      	mov	r5, r0
    4568:	b160      	cbz	r0, 4584 <tcp_seg_copy+0x28>
    456a:	4620      	mov	r0, r4
    456c:	462b      	mov	r3, r5
    456e:	f104 0214 	add.w	r2, r4, #20
    4572:	f850 1b04 	ldr.w	r1, [r0], #4
    4576:	f843 1b04 	str.w	r1, [r3], #4
    457a:	4290      	cmp	r0, r2
    457c:	d1f9      	bne.n	4572 <tcp_seg_copy+0x16>
    457e:	6868      	ldr	r0, [r5, #4]
    4580:	4b02      	ldr	r3, [pc, #8]	; (458c <tcp_seg_copy+0x30>)
    4582:	4798      	blx	r3
    4584:	4628      	mov	r0, r5
    4586:	bd38      	pop	{r3, r4, r5, pc}
    4588:	00003ae9 	.word	0x00003ae9
    458c:	00004215 	.word	0x00004215

00004590 <tcp_pcb_purge>:
    4590:	7e03      	ldrb	r3, [r0, #24]
    4592:	2b01      	cmp	r3, #1
    4594:	b570      	push	{r4, r5, r6, lr}
    4596:	4604      	mov	r4, r0
    4598:	d929      	bls.n	45ee <tcp_pcb_purge+0x5e>
    459a:	2b0a      	cmp	r3, #10
    459c:	d027      	beq.n	45ee <tcp_pcb_purge+0x5e>
    459e:	4814      	ldr	r0, [pc, #80]	; (45f0 <tcp_pcb_purge+0x60>)
    45a0:	4d14      	ldr	r5, [pc, #80]	; (45f4 <tcp_pcb_purge+0x64>)
    45a2:	47a8      	blx	r5
    45a4:	6fa3      	ldr	r3, [r4, #120]	; 0x78
    45a6:	b133      	cbz	r3, 45b6 <tcp_pcb_purge+0x26>
    45a8:	4813      	ldr	r0, [pc, #76]	; (45f8 <tcp_pcb_purge+0x68>)
    45aa:	47a8      	blx	r5
    45ac:	4b13      	ldr	r3, [pc, #76]	; (45fc <tcp_pcb_purge+0x6c>)
    45ae:	6fa0      	ldr	r0, [r4, #120]	; 0x78
    45b0:	4798      	blx	r3
    45b2:	2300      	movs	r3, #0
    45b4:	67a3      	str	r3, [r4, #120]	; 0x78
    45b6:	6ee3      	ldr	r3, [r4, #108]	; 0x6c
    45b8:	b10b      	cbz	r3, 45be <tcp_pcb_purge+0x2e>
    45ba:	4811      	ldr	r0, [pc, #68]	; (4600 <tcp_pcb_purge+0x70>)
    45bc:	47a8      	blx	r5
    45be:	6f23      	ldr	r3, [r4, #112]	; 0x70
    45c0:	b10b      	cbz	r3, 45c6 <tcp_pcb_purge+0x36>
    45c2:	4810      	ldr	r0, [pc, #64]	; (4604 <tcp_pcb_purge+0x74>)
    45c4:	47a8      	blx	r5
    45c6:	6f63      	ldr	r3, [r4, #116]	; 0x74
    45c8:	b10b      	cbz	r3, 45ce <tcp_pcb_purge+0x3e>
    45ca:	480f      	ldr	r0, [pc, #60]	; (4608 <tcp_pcb_purge+0x78>)
    45cc:	47a8      	blx	r5
    45ce:	4e0f      	ldr	r6, [pc, #60]	; (460c <tcp_pcb_purge+0x7c>)
    45d0:	6f60      	ldr	r0, [r4, #116]	; 0x74
    45d2:	47b0      	blx	r6
    45d4:	2500      	movs	r5, #0
    45d6:	f64f 73ff 	movw	r3, #65535	; 0xffff
    45da:	86a3      	strh	r3, [r4, #52]	; 0x34
    45dc:	6ee0      	ldr	r0, [r4, #108]	; 0x6c
    45de:	6765      	str	r5, [r4, #116]	; 0x74
    45e0:	47b0      	blx	r6
    45e2:	6f20      	ldr	r0, [r4, #112]	; 0x70
    45e4:	47b0      	blx	r6
    45e6:	66e5      	str	r5, [r4, #108]	; 0x6c
    45e8:	6725      	str	r5, [r4, #112]	; 0x70
    45ea:	f8a4 506a 	strh.w	r5, [r4, #106]	; 0x6a
    45ee:	bd70      	pop	{r4, r5, r6, pc}
    45f0:	0000b60d 	.word	0x0000b60d
    45f4:	00008595 	.word	0x00008595
    45f8:	0000b61b 	.word	0x0000b61b
    45fc:	00003f99 	.word	0x00003f99
    4600:	0000b646 	.word	0x0000b646
    4604:	0000b667 	.word	0x0000b667
    4608:	0000b68d 	.word	0x0000b68d
    460c:	00004549 	.word	0x00004549

00004610 <tcp_slowtmr>:
    4610:	e92d 4ff0 	stmdb	sp!, {r4, r5, r6, r7, r8, r9, sl, fp, lr}
    4614:	4eac      	ldr	r6, [pc, #688]	; (48c8 <tcp_slowtmr+0x2b8>)
    4616:	f8df a314 	ldr.w	sl, [pc, #788]	; 492c <tcp_slowtmr+0x31c>
    461a:	6833      	ldr	r3, [r6, #0]
    461c:	3301      	adds	r3, #1
    461e:	6033      	str	r3, [r6, #0]
    4620:	4baa      	ldr	r3, [pc, #680]	; (48cc <tcp_slowtmr+0x2bc>)
    4622:	781a      	ldrb	r2, [r3, #0]
    4624:	3201      	adds	r2, #1
    4626:	b085      	sub	sp, #20
    4628:	701a      	strb	r2, [r3, #0]
    462a:	469b      	mov	fp, r3
    462c:	4ba8      	ldr	r3, [pc, #672]	; (48d0 <tcp_slowtmr+0x2c0>)
    462e:	9302      	str	r3, [sp, #8]
    4630:	681c      	ldr	r4, [r3, #0]
    4632:	f8df 82fc 	ldr.w	r8, [pc, #764]	; 4930 <tcp_slowtmr+0x320>
    4636:	b974      	cbnz	r4, 4656 <tcp_slowtmr+0x46>
    4638:	48a6      	ldr	r0, [pc, #664]	; (48d4 <tcp_slowtmr+0x2c4>)
    463a:	47c0      	blx	r8
    463c:	4da6      	ldr	r5, [pc, #664]	; (48d8 <tcp_slowtmr+0x2c8>)
    463e:	f8df 82bc 	ldr.w	r8, [pc, #700]	; 48fc <tcp_slowtmr+0x2ec>
    4642:	682c      	ldr	r4, [r5, #0]
    4644:	f8df 92bc 	ldr.w	r9, [pc, #700]	; 4904 <tcp_slowtmr+0x2f4>
    4648:	2700      	movs	r7, #0
    464a:	2c00      	cmp	r4, #0
    464c:	f040 8177 	bne.w	493e <tcp_slowtmr+0x32e>
    4650:	b005      	add	sp, #20
    4652:	e8bd 8ff0 	ldmia.w	sp!, {r4, r5, r6, r7, r8, r9, sl, fp, pc}
    4656:	f04f 0900 	mov.w	r9, #0
    465a:	48a0      	ldr	r0, [pc, #640]	; (48dc <tcp_slowtmr+0x2cc>)
    465c:	47c0      	blx	r8
    465e:	f89b 3000 	ldrb.w	r3, [fp]
    4662:	f894 2021 	ldrb.w	r2, [r4, #33]	; 0x21
    4666:	429a      	cmp	r2, r3
    4668:	d104      	bne.n	4674 <tcp_slowtmr+0x64>
    466a:	68e7      	ldr	r7, [r4, #12]
    466c:	2f00      	cmp	r7, #0
    466e:	d0e5      	beq.n	463c <tcp_slowtmr+0x2c>
    4670:	463c      	mov	r4, r7
    4672:	e7f2      	b.n	465a <tcp_slowtmr+0x4a>
    4674:	f884 3021 	strb.w	r3, [r4, #33]	; 0x21
    4678:	7e23      	ldrb	r3, [r4, #24]
    467a:	2b02      	cmp	r3, #2
    467c:	f894 3046 	ldrb.w	r3, [r4, #70]	; 0x46
    4680:	f040 808f 	bne.w	47a2 <tcp_slowtmr+0x192>
    4684:	2b06      	cmp	r3, #6
    4686:	f040 808c 	bne.w	47a2 <tcp_slowtmr+0x192>
    468a:	4895      	ldr	r0, [pc, #596]	; (48e0 <tcp_slowtmr+0x2d0>)
    468c:	47c0      	blx	r8
    468e:	2501      	movs	r5, #1
    4690:	7e23      	ldrb	r3, [r4, #24]
    4692:	2b06      	cmp	r3, #6
    4694:	d10b      	bne.n	46ae <tcp_slowtmr+0x9e>
    4696:	7fa3      	ldrb	r3, [r4, #30]
    4698:	06db      	lsls	r3, r3, #27
    469a:	d508      	bpl.n	46ae <tcp_slowtmr+0x9e>
    469c:	6833      	ldr	r3, [r6, #0]
    469e:	6a62      	ldr	r2, [r4, #36]	; 0x24
    46a0:	1a9b      	subs	r3, r3, r2
    46a2:	2b28      	cmp	r3, #40	; 0x28
    46a4:	d903      	bls.n	46ae <tcp_slowtmr+0x9e>
    46a6:	3501      	adds	r5, #1
    46a8:	488e      	ldr	r0, [pc, #568]	; (48e4 <tcp_slowtmr+0x2d4>)
    46aa:	b2ed      	uxtb	r5, r5
    46ac:	47c0      	blx	r8
    46ae:	7a27      	ldrb	r7, [r4, #8]
    46b0:	f017 0708 	ands.w	r7, r7, #8
    46b4:	d020      	beq.n	46f8 <tcp_slowtmr+0xe8>
    46b6:	7e23      	ldrb	r3, [r4, #24]
    46b8:	2b04      	cmp	r3, #4
    46ba:	d002      	beq.n	46c2 <tcp_slowtmr+0xb2>
    46bc:	2b07      	cmp	r3, #7
    46be:	f040 80de 	bne.w	487e <tcp_slowtmr+0x26e>
    46c2:	6831      	ldr	r1, [r6, #0]
    46c4:	6a63      	ldr	r3, [r4, #36]	; 0x24
    46c6:	f8d4 7090 	ldr.w	r7, [r4, #144]	; 0x90
    46ca:	1ac9      	subs	r1, r1, r3
    46cc:	f507 2224 	add.w	r2, r7, #671744	; 0xa4000
    46d0:	f602 42b8 	addw	r2, r2, #3256	; 0xcb8
    46d4:	f44f 70fa 	mov.w	r0, #500	; 0x1f4
    46d8:	fbb2 f2f0 	udiv	r2, r2, r0
    46dc:	4291      	cmp	r1, r2
    46de:	f240 80bd 	bls.w	485c <tcp_slowtmr+0x24c>
    46e2:	79e0      	ldrb	r0, [r4, #7]
    46e4:	79a3      	ldrb	r3, [r4, #6]
    46e6:	7962      	ldrb	r2, [r4, #5]
    46e8:	7921      	ldrb	r1, [r4, #4]
    46ea:	4f7f      	ldr	r7, [pc, #508]	; (48e8 <tcp_slowtmr+0x2d8>)
    46ec:	9000      	str	r0, [sp, #0]
    46ee:	3501      	adds	r5, #1
    46f0:	487e      	ldr	r0, [pc, #504]	; (48ec <tcp_slowtmr+0x2dc>)
    46f2:	47b8      	blx	r7
    46f4:	b2ed      	uxtb	r5, r5
    46f6:	2701      	movs	r7, #1
    46f8:	6f60      	ldr	r0, [r4, #116]	; 0x74
    46fa:	b168      	cbz	r0, 4718 <tcp_slowtmr+0x108>
    46fc:	6833      	ldr	r3, [r6, #0]
    46fe:	6a62      	ldr	r2, [r4, #36]	; 0x24
    4700:	1a9a      	subs	r2, r3, r2
    4702:	f9b4 3044 	ldrsh.w	r3, [r4, #68]	; 0x44
    4706:	eb03 0343 	add.w	r3, r3, r3, lsl #1
    470a:	ebb2 0f43 	cmp.w	r2, r3, lsl #1
    470e:	d303      	bcc.n	4718 <tcp_slowtmr+0x108>
    4710:	4b77      	ldr	r3, [pc, #476]	; (48f0 <tcp_slowtmr+0x2e0>)
    4712:	4798      	blx	r3
    4714:	2300      	movs	r3, #0
    4716:	6763      	str	r3, [r4, #116]	; 0x74
    4718:	7e23      	ldrb	r3, [r4, #24]
    471a:	2b03      	cmp	r3, #3
    471c:	d108      	bne.n	4730 <tcp_slowtmr+0x120>
    471e:	6833      	ldr	r3, [r6, #0]
    4720:	6a62      	ldr	r2, [r4, #36]	; 0x24
    4722:	1a9b      	subs	r3, r3, r2
    4724:	2b28      	cmp	r3, #40	; 0x28
    4726:	d903      	bls.n	4730 <tcp_slowtmr+0x120>
    4728:	3501      	adds	r5, #1
    472a:	4872      	ldr	r0, [pc, #456]	; (48f4 <tcp_slowtmr+0x2e4>)
    472c:	b2ed      	uxtb	r5, r5
    472e:	47c0      	blx	r8
    4730:	7e23      	ldrb	r3, [r4, #24]
    4732:	2b09      	cmp	r3, #9
    4734:	f040 80a5 	bne.w	4882 <tcp_slowtmr+0x272>
    4738:	6833      	ldr	r3, [r6, #0]
    473a:	6a62      	ldr	r2, [r4, #36]	; 0x24
    473c:	1a9b      	subs	r3, r3, r2
    473e:	2bf0      	cmp	r3, #240	; 0xf0
    4740:	f240 809f 	bls.w	4882 <tcp_slowtmr+0x272>
    4744:	486c      	ldr	r0, [pc, #432]	; (48f8 <tcp_slowtmr+0x2e8>)
    4746:	47c0      	blx	r8
    4748:	4b6c      	ldr	r3, [pc, #432]	; (48fc <tcp_slowtmr+0x2ec>)
    474a:	4620      	mov	r0, r4
    474c:	4798      	blx	r3
    474e:	68e3      	ldr	r3, [r4, #12]
    4750:	f1b9 0f00 	cmp.w	r9, #0
    4754:	f000 80ee 	beq.w	4934 <tcp_slowtmr+0x324>
    4758:	f8c9 300c 	str.w	r3, [r9, #12]
    475c:	b14f      	cbz	r7, 4772 <tcp_slowtmr+0x162>
    475e:	8ba3      	ldrh	r3, [r4, #28]
    4760:	9301      	str	r3, [sp, #4]
    4762:	8b63      	ldrh	r3, [r4, #26]
    4764:	9300      	str	r3, [sp, #0]
    4766:	4622      	mov	r2, r4
    4768:	1d23      	adds	r3, r4, #4
    476a:	6aa1      	ldr	r1, [r4, #40]	; 0x28
    476c:	6d20      	ldr	r0, [r4, #80]	; 0x50
    476e:	4d64      	ldr	r5, [pc, #400]	; (4900 <tcp_slowtmr+0x2f0>)
    4770:	47a8      	blx	r5
    4772:	6923      	ldr	r3, [r4, #16]
    4774:	4a63      	ldr	r2, [pc, #396]	; (4904 <tcp_slowtmr+0x2f4>)
    4776:	f8d4 508c 	ldr.w	r5, [r4, #140]	; 0x8c
    477a:	9303      	str	r3, [sp, #12]
    477c:	4621      	mov	r1, r4
    477e:	2002      	movs	r0, #2
    4780:	68e7      	ldr	r7, [r4, #12]
    4782:	4790      	blx	r2
    4784:	2200      	movs	r2, #0
    4786:	f88a 2000 	strb.w	r2, [sl]
    478a:	b125      	cbz	r5, 4796 <tcp_slowtmr+0x186>
    478c:	9b03      	ldr	r3, [sp, #12]
    478e:	f06f 0109 	mvn.w	r1, #9
    4792:	4618      	mov	r0, r3
    4794:	47a8      	blx	r5
    4796:	f89a 3000 	ldrb.w	r3, [sl]
    479a:	2b00      	cmp	r3, #0
    479c:	f43f af66 	beq.w	466c <tcp_slowtmr+0x5c>
    47a0:	e744      	b.n	462c <tcp_slowtmr+0x1c>
    47a2:	2b0c      	cmp	r3, #12
    47a4:	d101      	bne.n	47aa <tcp_slowtmr+0x19a>
    47a6:	4858      	ldr	r0, [pc, #352]	; (4908 <tcp_slowtmr+0x2f8>)
    47a8:	e770      	b.n	468c <tcp_slowtmr+0x7c>
    47aa:	f894 5095 	ldrb.w	r5, [r4, #149]	; 0x95
    47ae:	b1d5      	cbz	r5, 47e6 <tcp_slowtmr+0x1d6>
    47b0:	4a56      	ldr	r2, [pc, #344]	; (490c <tcp_slowtmr+0x2fc>)
    47b2:	f894 3094 	ldrb.w	r3, [r4, #148]	; 0x94
    47b6:	442a      	add	r2, r5
    47b8:	3301      	adds	r3, #1
    47ba:	7bd2      	ldrb	r2, [r2, #15]
    47bc:	b2db      	uxtb	r3, r3
    47be:	429a      	cmp	r2, r3
    47c0:	f884 3094 	strb.w	r3, [r4, #148]	; 0x94
    47c4:	d901      	bls.n	47ca <tcp_slowtmr+0x1ba>
    47c6:	2500      	movs	r5, #0
    47c8:	e762      	b.n	4690 <tcp_slowtmr+0x80>
    47ca:	2d06      	cmp	r5, #6
    47cc:	f04f 0300 	mov.w	r3, #0
    47d0:	bf98      	it	ls
    47d2:	3501      	addls	r5, #1
    47d4:	f884 3094 	strb.w	r3, [r4, #148]	; 0x94
    47d8:	bf98      	it	ls
    47da:	f884 5095 	strbls.w	r5, [r4, #149]	; 0x95
    47de:	4620      	mov	r0, r4
    47e0:	4b4b      	ldr	r3, [pc, #300]	; (4910 <tcp_slowtmr+0x300>)
    47e2:	4798      	blx	r3
    47e4:	e7ef      	b.n	47c6 <tcp_slowtmr+0x1b6>
    47e6:	f9b4 3034 	ldrsh.w	r3, [r4, #52]	; 0x34
    47ea:	2b00      	cmp	r3, #0
    47ec:	bfa4      	itt	ge
    47ee:	3301      	addge	r3, #1
    47f0:	86a3      	strhge	r3, [r4, #52]	; 0x34
    47f2:	6f23      	ldr	r3, [r4, #112]	; 0x70
    47f4:	2b00      	cmp	r3, #0
    47f6:	d0e6      	beq.n	47c6 <tcp_slowtmr+0x1b6>
    47f8:	f9b4 1034 	ldrsh.w	r1, [r4, #52]	; 0x34
    47fc:	f9b4 2044 	ldrsh.w	r2, [r4, #68]	; 0x44
    4800:	4291      	cmp	r1, r2
    4802:	dbe0      	blt.n	47c6 <tcp_slowtmr+0x1b6>
    4804:	4b38      	ldr	r3, [pc, #224]	; (48e8 <tcp_slowtmr+0x2d8>)
    4806:	4843      	ldr	r0, [pc, #268]	; (4914 <tcp_slowtmr+0x304>)
    4808:	4798      	blx	r3
    480a:	7e23      	ldrb	r3, [r4, #24]
    480c:	2b02      	cmp	r3, #2
    480e:	d00d      	beq.n	482c <tcp_slowtmr+0x21c>
    4810:	f9b4 2040 	ldrsh.w	r2, [r4, #64]	; 0x40
    4814:	f9b4 3042 	ldrsh.w	r3, [r4, #66]	; 0x42
    4818:	f894 1046 	ldrb.w	r1, [r4, #70]	; 0x46
    481c:	eb03 03e2 	add.w	r3, r3, r2, asr #3
    4820:	4a3a      	ldr	r2, [pc, #232]	; (490c <tcp_slowtmr+0x2fc>)
    4822:	440a      	add	r2, r1
    4824:	7dd2      	ldrb	r2, [r2, #23]
    4826:	4093      	lsls	r3, r2
    4828:	f8a4 3044 	strh.w	r3, [r4, #68]	; 0x44
    482c:	2300      	movs	r3, #0
    482e:	f8b4 204c 	ldrh.w	r2, [r4, #76]	; 0x4c
    4832:	86a3      	strh	r3, [r4, #52]	; 0x34
    4834:	f8b4 3060 	ldrh.w	r3, [r4, #96]	; 0x60
    4838:	4293      	cmp	r3, r2
    483a:	bf28      	it	cs
    483c:	4613      	movcs	r3, r2
    483e:	8ee2      	ldrh	r2, [r4, #54]	; 0x36
    4840:	f8a4 204c 	strh.w	r2, [r4, #76]	; 0x4c
    4844:	085b      	lsrs	r3, r3, #1
    4846:	0051      	lsls	r1, r2, #1
    4848:	428b      	cmp	r3, r1
    484a:	f8a4 304e 	strh.w	r3, [r4, #78]	; 0x4e
    484e:	4620      	mov	r0, r4
    4850:	bfb8      	it	lt
    4852:	f8a4 104e 	strhlt.w	r1, [r4, #78]	; 0x4e
    4856:	4b30      	ldr	r3, [pc, #192]	; (4918 <tcp_slowtmr+0x308>)
    4858:	4798      	blx	r3
    485a:	e719      	b.n	4690 <tcp_slowtmr+0x80>
    485c:	f894 3096 	ldrb.w	r3, [r4, #150]	; 0x96
    4860:	4a2e      	ldr	r2, [pc, #184]	; (491c <tcp_slowtmr+0x30c>)
    4862:	fb02 7303 	mla	r3, r2, r3, r7
    4866:	fbb3 f3f0 	udiv	r3, r3, r0
    486a:	4299      	cmp	r1, r3
    486c:	d907      	bls.n	487e <tcp_slowtmr+0x26e>
    486e:	4b2c      	ldr	r3, [pc, #176]	; (4920 <tcp_slowtmr+0x310>)
    4870:	4620      	mov	r0, r4
    4872:	4798      	blx	r3
    4874:	f894 3096 	ldrb.w	r3, [r4, #150]	; 0x96
    4878:	3301      	adds	r3, #1
    487a:	f884 3096 	strb.w	r3, [r4, #150]	; 0x96
    487e:	2700      	movs	r7, #0
    4880:	e73a      	b.n	46f8 <tcp_slowtmr+0xe8>
    4882:	2d00      	cmp	r5, #0
    4884:	f47f af60 	bne.w	4748 <tcp_slowtmr+0x138>
    4888:	7fe3      	ldrb	r3, [r4, #31]
    488a:	f894 2020 	ldrb.w	r2, [r4, #32]
    488e:	68e7      	ldr	r7, [r4, #12]
    4890:	3301      	adds	r3, #1
    4892:	b2db      	uxtb	r3, r3
    4894:	429a      	cmp	r2, r3
    4896:	77e3      	strb	r3, [r4, #31]
    4898:	d814      	bhi.n	48c4 <tcp_slowtmr+0x2b4>
    489a:	77e5      	strb	r5, [r4, #31]
    489c:	4821      	ldr	r0, [pc, #132]	; (4924 <tcp_slowtmr+0x314>)
    489e:	47c0      	blx	r8
    48a0:	f8d4 3088 	ldr.w	r3, [r4, #136]	; 0x88
    48a4:	f88a 5000 	strb.w	r5, [sl]
    48a8:	2b00      	cmp	r3, #0
    48aa:	d046      	beq.n	493a <tcp_slowtmr+0x32a>
    48ac:	4621      	mov	r1, r4
    48ae:	6920      	ldr	r0, [r4, #16]
    48b0:	4798      	blx	r3
    48b2:	f89a 3000 	ldrb.w	r3, [sl]
    48b6:	2b00      	cmp	r3, #0
    48b8:	f47f aeb8 	bne.w	462c <tcp_slowtmr+0x1c>
    48bc:	b910      	cbnz	r0, 48c4 <tcp_slowtmr+0x2b4>
    48be:	4620      	mov	r0, r4
    48c0:	4b19      	ldr	r3, [pc, #100]	; (4928 <tcp_slowtmr+0x318>)
    48c2:	4798      	blx	r3
    48c4:	46a1      	mov	r9, r4
    48c6:	e6d1      	b.n	466c <tcp_slowtmr+0x5c>
    48c8:	20009090 	.word	0x20009090
    48cc:	20007ea8 	.word	0x20007ea8
    48d0:	2000908c 	.word	0x2000908c
    48d4:	0000b6b1 	.word	0x0000b6b1
    48d8:	200090a0 	.word	0x200090a0
    48dc:	0000b6cd 	.word	0x0000b6cd
    48e0:	0000b6f0 	.word	0x0000b6f0
    48e4:	0000b760 	.word	0x0000b760
    48e8:	00008485 	.word	0x00008485
    48ec:	0000b78e 	.word	0x0000b78e
    48f0:	00004549 	.word	0x00004549
    48f4:	0000b7d7 	.word	0x0000b7d7
    48f8:	0000b803 	.word	0x0000b803
    48fc:	00004591 	.word	0x00004591
    4900:	00006a89 	.word	0x00006a89
    4904:	00003b41 	.word	0x00003b41
    4908:	0000b715 	.word	0x0000b715
    490c:	0000b504 	.word	0x0000b504
    4910:	00006d1d 	.word	0x00006d1d
    4914:	0000b73b 	.word	0x0000b73b
    4918:	00006b41 	.word	0x00006b41
    491c:	000124f8 	.word	0x000124f8
    4920:	00006c61 	.word	0x00006c61
    4924:	0000b82f 	.word	0x0000b82f
    4928:	000067b9 	.word	0x000067b9
    492c:	20009088 	.word	0x20009088
    4930:	00008595 	.word	0x00008595
    4934:	9a02      	ldr	r2, [sp, #8]
    4936:	6013      	str	r3, [r2, #0]
    4938:	e710      	b.n	475c <tcp_slowtmr+0x14c>
    493a:	4628      	mov	r0, r5
    493c:	e7b9      	b.n	48b2 <tcp_slowtmr+0x2a2>
    493e:	6833      	ldr	r3, [r6, #0]
    4940:	6a62      	ldr	r2, [r4, #36]	; 0x24
    4942:	1a9b      	subs	r3, r3, r2
    4944:	2bf0      	cmp	r3, #240	; 0xf0
    4946:	d80a      	bhi.n	495e <tcp_slowtmr+0x34e>
    4948:	4627      	mov	r7, r4
    494a:	68e4      	ldr	r4, [r4, #12]
    494c:	e67d      	b.n	464a <tcp_slowtmr+0x3a>
    494e:	60fb      	str	r3, [r7, #12]
    4950:	f8d4 a00c 	ldr.w	sl, [r4, #12]
    4954:	4621      	mov	r1, r4
    4956:	2002      	movs	r0, #2
    4958:	47c8      	blx	r9
    495a:	4654      	mov	r4, sl
    495c:	e675      	b.n	464a <tcp_slowtmr+0x3a>
    495e:	4620      	mov	r0, r4
    4960:	47c0      	blx	r8
    4962:	68e3      	ldr	r3, [r4, #12]
    4964:	2f00      	cmp	r7, #0
    4966:	d1f2      	bne.n	494e <tcp_slowtmr+0x33e>
    4968:	602b      	str	r3, [r5, #0]
    496a:	e7f1      	b.n	4950 <tcp_slowtmr+0x340>

0000496c <tcp_pcb_remove>:
    496c:	6803      	ldr	r3, [r0, #0]
    496e:	428b      	cmp	r3, r1
    4970:	b510      	push	{r4, lr}
    4972:	460c      	mov	r4, r1
    4974:	d117      	bne.n	49a6 <tcp_pcb_remove+0x3a>
    4976:	68cb      	ldr	r3, [r1, #12]
    4978:	6003      	str	r3, [r0, #0]
    497a:	2300      	movs	r3, #0
    497c:	60e3      	str	r3, [r4, #12]
    497e:	4620      	mov	r0, r4
    4980:	4b12      	ldr	r3, [pc, #72]	; (49cc <tcp_pcb_remove+0x60>)
    4982:	4798      	blx	r3
    4984:	7e23      	ldrb	r3, [r4, #24]
    4986:	2b0a      	cmp	r3, #10
    4988:	d00a      	beq.n	49a0 <tcp_pcb_remove+0x34>
    498a:	2b01      	cmp	r3, #1
    498c:	d008      	beq.n	49a0 <tcp_pcb_remove+0x34>
    498e:	7fa3      	ldrb	r3, [r4, #30]
    4990:	07da      	lsls	r2, r3, #31
    4992:	d505      	bpl.n	49a0 <tcp_pcb_remove+0x34>
    4994:	f043 0302 	orr.w	r3, r3, #2
    4998:	77a3      	strb	r3, [r4, #30]
    499a:	4620      	mov	r0, r4
    499c:	4b0c      	ldr	r3, [pc, #48]	; (49d0 <tcp_pcb_remove+0x64>)
    499e:	4798      	blx	r3
    49a0:	2300      	movs	r3, #0
    49a2:	7623      	strb	r3, [r4, #24]
    49a4:	bd10      	pop	{r4, pc}
    49a6:	4a0b      	ldr	r2, [pc, #44]	; (49d4 <tcp_pcb_remove+0x68>)
    49a8:	2100      	movs	r1, #0
    49aa:	6013      	str	r3, [r2, #0]
    49ac:	b91b      	cbnz	r3, 49b6 <tcp_pcb_remove+0x4a>
    49ae:	2900      	cmp	r1, #0
    49b0:	d0e3      	beq.n	497a <tcp_pcb_remove+0xe>
    49b2:	6013      	str	r3, [r2, #0]
    49b4:	e7e1      	b.n	497a <tcp_pcb_remove+0xe>
    49b6:	68d8      	ldr	r0, [r3, #12]
    49b8:	4284      	cmp	r4, r0
    49ba:	d104      	bne.n	49c6 <tcp_pcb_remove+0x5a>
    49bc:	b101      	cbz	r1, 49c0 <tcp_pcb_remove+0x54>
    49be:	6013      	str	r3, [r2, #0]
    49c0:	68e2      	ldr	r2, [r4, #12]
    49c2:	60da      	str	r2, [r3, #12]
    49c4:	e7d9      	b.n	497a <tcp_pcb_remove+0xe>
    49c6:	2101      	movs	r1, #1
    49c8:	4603      	mov	r3, r0
    49ca:	e7ef      	b.n	49ac <tcp_pcb_remove+0x40>
    49cc:	00004591 	.word	0x00004591
    49d0:	000067b9 	.word	0x000067b9
    49d4:	20009098 	.word	0x20009098

000049d8 <tcp_close_shutdown>:
    49d8:	b537      	push	{r0, r1, r2, r4, r5, lr}
    49da:	7e03      	ldrb	r3, [r0, #24]
    49dc:	4604      	mov	r4, r0
    49de:	2900      	cmp	r1, #0
    49e0:	d041      	beq.n	4a66 <tcp_close_shutdown+0x8e>
    49e2:	2b04      	cmp	r3, #4
    49e4:	d001      	beq.n	49ea <tcp_close_shutdown+0x12>
    49e6:	2b07      	cmp	r3, #7
    49e8:	d13d      	bne.n	4a66 <tcp_close_shutdown+0x8e>
    49ea:	6fa2      	ldr	r2, [r4, #120]	; 0x78
    49ec:	b922      	cbnz	r2, 49f8 <tcp_close_shutdown+0x20>
    49ee:	8da1      	ldrh	r1, [r4, #44]	; 0x2c
    49f0:	f241 62d0 	movw	r2, #5840	; 0x16d0
    49f4:	4291      	cmp	r1, r2
    49f6:	d036      	beq.n	4a66 <tcp_close_shutdown+0x8e>
    49f8:	8ba3      	ldrh	r3, [r4, #28]
    49fa:	9301      	str	r3, [sp, #4]
    49fc:	8b63      	ldrh	r3, [r4, #26]
    49fe:	9300      	str	r3, [sp, #0]
    4a00:	4622      	mov	r2, r4
    4a02:	1d23      	adds	r3, r4, #4
    4a04:	6aa1      	ldr	r1, [r4, #40]	; 0x28
    4a06:	6d20      	ldr	r0, [r4, #80]	; 0x50
    4a08:	4d42      	ldr	r5, [pc, #264]	; (4b14 <tcp_close_shutdown+0x13c>)
    4a0a:	47a8      	blx	r5
    4a0c:	4b42      	ldr	r3, [pc, #264]	; (4b18 <tcp_close_shutdown+0x140>)
    4a0e:	4620      	mov	r0, r4
    4a10:	4798      	blx	r3
    4a12:	4a42      	ldr	r2, [pc, #264]	; (4b1c <tcp_close_shutdown+0x144>)
    4a14:	6813      	ldr	r3, [r2, #0]
    4a16:	429c      	cmp	r4, r3
    4a18:	d102      	bne.n	4a20 <tcp_close_shutdown+0x48>
    4a1a:	68e3      	ldr	r3, [r4, #12]
    4a1c:	6013      	str	r3, [r2, #0]
    4a1e:	e00c      	b.n	4a3a <tcp_close_shutdown+0x62>
    4a20:	4a3f      	ldr	r2, [pc, #252]	; (4b20 <tcp_close_shutdown+0x148>)
    4a22:	2100      	movs	r1, #0
    4a24:	6013      	str	r3, [r2, #0]
    4a26:	b90b      	cbnz	r3, 4a2c <tcp_close_shutdown+0x54>
    4a28:	b139      	cbz	r1, 4a3a <tcp_close_shutdown+0x62>
    4a2a:	e7f7      	b.n	4a1c <tcp_close_shutdown+0x44>
    4a2c:	68d8      	ldr	r0, [r3, #12]
    4a2e:	4284      	cmp	r4, r0
    4a30:	d116      	bne.n	4a60 <tcp_close_shutdown+0x88>
    4a32:	b101      	cbz	r1, 4a36 <tcp_close_shutdown+0x5e>
    4a34:	6013      	str	r3, [r2, #0]
    4a36:	68e2      	ldr	r2, [r4, #12]
    4a38:	60da      	str	r2, [r3, #12]
    4a3a:	4b3a      	ldr	r3, [pc, #232]	; (4b24 <tcp_close_shutdown+0x14c>)
    4a3c:	2201      	movs	r2, #1
    4a3e:	701a      	strb	r2, [r3, #0]
    4a40:	7e23      	ldrb	r3, [r4, #24]
    4a42:	2500      	movs	r5, #0
    4a44:	2b04      	cmp	r3, #4
    4a46:	60e5      	str	r5, [r4, #12]
    4a48:	d13a      	bne.n	4ac0 <tcp_close_shutdown+0xe8>
    4a4a:	230a      	movs	r3, #10
    4a4c:	7623      	strb	r3, [r4, #24]
    4a4e:	4b36      	ldr	r3, [pc, #216]	; (4b28 <tcp_close_shutdown+0x150>)
    4a50:	681a      	ldr	r2, [r3, #0]
    4a52:	60e2      	str	r2, [r4, #12]
    4a54:	601c      	str	r4, [r3, #0]
    4a56:	4b35      	ldr	r3, [pc, #212]	; (4b2c <tcp_close_shutdown+0x154>)
    4a58:	4798      	blx	r3
    4a5a:	2000      	movs	r0, #0
    4a5c:	b003      	add	sp, #12
    4a5e:	bd30      	pop	{r4, r5, pc}
    4a60:	2101      	movs	r1, #1
    4a62:	4603      	mov	r3, r0
    4a64:	e7df      	b.n	4a26 <tcp_close_shutdown+0x4e>
    4a66:	2b07      	cmp	r3, #7
    4a68:	d8f7      	bhi.n	4a5a <tcp_close_shutdown+0x82>
    4a6a:	a201      	add	r2, pc, #4	; (adr r2, 4a70 <tcp_close_shutdown+0x98>)
    4a6c:	f852 f023 	ldr.w	pc, [r2, r3, lsl #2]
    4a70:	00004a91 	.word	0x00004a91
    4a74:	00004acd 	.word	0x00004acd
    4a78:	00004adf 	.word	0x00004adf
    4a7c:	00004aef 	.word	0x00004aef
    4a80:	00004aef 	.word	0x00004aef
    4a84:	00004a5b 	.word	0x00004a5b
    4a88:	00004a5b 	.word	0x00004a5b
    4a8c:	00004b05 	.word	0x00004b05
    4a90:	8b63      	ldrh	r3, [r4, #26]
    4a92:	b1ab      	cbz	r3, 4ac0 <tcp_close_shutdown+0xe8>
    4a94:	4a26      	ldr	r2, [pc, #152]	; (4b30 <tcp_close_shutdown+0x158>)
    4a96:	6813      	ldr	r3, [r2, #0]
    4a98:	429c      	cmp	r4, r3
    4a9a:	d102      	bne.n	4aa2 <tcp_close_shutdown+0xca>
    4a9c:	68e3      	ldr	r3, [r4, #12]
    4a9e:	6013      	str	r3, [r2, #0]
    4aa0:	e00c      	b.n	4abc <tcp_close_shutdown+0xe4>
    4aa2:	4a1f      	ldr	r2, [pc, #124]	; (4b20 <tcp_close_shutdown+0x148>)
    4aa4:	2100      	movs	r1, #0
    4aa6:	6013      	str	r3, [r2, #0]
    4aa8:	b90b      	cbnz	r3, 4aae <tcp_close_shutdown+0xd6>
    4aaa:	b139      	cbz	r1, 4abc <tcp_close_shutdown+0xe4>
    4aac:	e7f7      	b.n	4a9e <tcp_close_shutdown+0xc6>
    4aae:	68d8      	ldr	r0, [r3, #12]
    4ab0:	4284      	cmp	r4, r0
    4ab2:	d108      	bne.n	4ac6 <tcp_close_shutdown+0xee>
    4ab4:	b101      	cbz	r1, 4ab8 <tcp_close_shutdown+0xe0>
    4ab6:	6013      	str	r3, [r2, #0]
    4ab8:	68e2      	ldr	r2, [r4, #12]
    4aba:	60da      	str	r2, [r3, #12]
    4abc:	2300      	movs	r3, #0
    4abe:	60e3      	str	r3, [r4, #12]
    4ac0:	4621      	mov	r1, r4
    4ac2:	2002      	movs	r0, #2
    4ac4:	e008      	b.n	4ad8 <tcp_close_shutdown+0x100>
    4ac6:	2101      	movs	r1, #1
    4ac8:	4603      	mov	r3, r0
    4aca:	e7ed      	b.n	4aa8 <tcp_close_shutdown+0xd0>
    4acc:	4621      	mov	r1, r4
    4ace:	4819      	ldr	r0, [pc, #100]	; (4b34 <tcp_close_shutdown+0x15c>)
    4ad0:	4b19      	ldr	r3, [pc, #100]	; (4b38 <tcp_close_shutdown+0x160>)
    4ad2:	4798      	blx	r3
    4ad4:	4621      	mov	r1, r4
    4ad6:	2003      	movs	r0, #3
    4ad8:	4b18      	ldr	r3, [pc, #96]	; (4b3c <tcp_close_shutdown+0x164>)
    4ada:	4798      	blx	r3
    4adc:	e7bd      	b.n	4a5a <tcp_close_shutdown+0x82>
    4ade:	4b16      	ldr	r3, [pc, #88]	; (4b38 <tcp_close_shutdown+0x160>)
    4ae0:	480e      	ldr	r0, [pc, #56]	; (4b1c <tcp_close_shutdown+0x144>)
    4ae2:	4621      	mov	r1, r4
    4ae4:	4798      	blx	r3
    4ae6:	4b0f      	ldr	r3, [pc, #60]	; (4b24 <tcp_close_shutdown+0x14c>)
    4ae8:	2201      	movs	r2, #1
    4aea:	701a      	strb	r2, [r3, #0]
    4aec:	e7e8      	b.n	4ac0 <tcp_close_shutdown+0xe8>
    4aee:	4620      	mov	r0, r4
    4af0:	4b13      	ldr	r3, [pc, #76]	; (4b40 <tcp_close_shutdown+0x168>)
    4af2:	4798      	blx	r3
    4af4:	2800      	cmp	r0, #0
    4af6:	d1b1      	bne.n	4a5c <tcp_close_shutdown+0x84>
    4af8:	2305      	movs	r3, #5
    4afa:	7623      	strb	r3, [r4, #24]
    4afc:	4620      	mov	r0, r4
    4afe:	4b11      	ldr	r3, [pc, #68]	; (4b44 <tcp_close_shutdown+0x16c>)
    4b00:	4798      	blx	r3
    4b02:	e7aa      	b.n	4a5a <tcp_close_shutdown+0x82>
    4b04:	4620      	mov	r0, r4
    4b06:	4b0e      	ldr	r3, [pc, #56]	; (4b40 <tcp_close_shutdown+0x168>)
    4b08:	4798      	blx	r3
    4b0a:	2800      	cmp	r0, #0
    4b0c:	d1a6      	bne.n	4a5c <tcp_close_shutdown+0x84>
    4b0e:	2309      	movs	r3, #9
    4b10:	e7f3      	b.n	4afa <tcp_close_shutdown+0x122>
    4b12:	bf00      	nop
    4b14:	00006a89 	.word	0x00006a89
    4b18:	00004591 	.word	0x00004591
    4b1c:	2000908c 	.word	0x2000908c
    4b20:	20009098 	.word	0x20009098
    4b24:	20009088 	.word	0x20009088
    4b28:	200090a0 	.word	0x200090a0
    4b2c:	00006e99 	.word	0x00006e99
    4b30:	2000909c 	.word	0x2000909c
    4b34:	20009094 	.word	0x20009094
    4b38:	0000496d 	.word	0x0000496d
    4b3c:	00003b41 	.word	0x00003b41
    4b40:	000066d1 	.word	0x000066d1
    4b44:	000067b9 	.word	0x000067b9

00004b48 <tcp_abandon>:
    4b48:	7e03      	ldrb	r3, [r0, #24]
    4b4a:	2b0a      	cmp	r3, #10
    4b4c:	e92d 47f3 	stmdb	sp!, {r0, r1, r4, r5, r6, r7, r8, r9, sl, lr}
    4b50:	4b22      	ldr	r3, [pc, #136]	; (4bdc <tcp_abandon+0x94>)
    4b52:	4e23      	ldr	r6, [pc, #140]	; (4be0 <tcp_abandon+0x98>)
    4b54:	4604      	mov	r4, r0
    4b56:	468a      	mov	sl, r1
    4b58:	d109      	bne.n	4b6e <tcp_abandon+0x26>
    4b5a:	4601      	mov	r1, r0
    4b5c:	4821      	ldr	r0, [pc, #132]	; (4be4 <tcp_abandon+0x9c>)
    4b5e:	4798      	blx	r3
    4b60:	4621      	mov	r1, r4
    4b62:	2002      	movs	r0, #2
    4b64:	4633      	mov	r3, r6
    4b66:	b002      	add	sp, #8
    4b68:	e8bd 47f0 	ldmia.w	sp!, {r4, r5, r6, r7, r8, r9, sl, lr}
    4b6c:	4718      	bx	r3
    4b6e:	f8d0 8050 	ldr.w	r8, [r0, #80]	; 0x50
    4b72:	f8d0 9028 	ldr.w	r9, [r0, #40]	; 0x28
    4b76:	f8d0 508c 	ldr.w	r5, [r0, #140]	; 0x8c
    4b7a:	6907      	ldr	r7, [r0, #16]
    4b7c:	4601      	mov	r1, r0
    4b7e:	481a      	ldr	r0, [pc, #104]	; (4be8 <tcp_abandon+0xa0>)
    4b80:	4798      	blx	r3
    4b82:	4b1a      	ldr	r3, [pc, #104]	; (4bec <tcp_abandon+0xa4>)
    4b84:	6f20      	ldr	r0, [r4, #112]	; 0x70
    4b86:	2201      	movs	r2, #1
    4b88:	701a      	strb	r2, [r3, #0]
    4b8a:	b108      	cbz	r0, 4b90 <tcp_abandon+0x48>
    4b8c:	4b18      	ldr	r3, [pc, #96]	; (4bf0 <tcp_abandon+0xa8>)
    4b8e:	4798      	blx	r3
    4b90:	6ee0      	ldr	r0, [r4, #108]	; 0x6c
    4b92:	b108      	cbz	r0, 4b98 <tcp_abandon+0x50>
    4b94:	4b16      	ldr	r3, [pc, #88]	; (4bf0 <tcp_abandon+0xa8>)
    4b96:	4798      	blx	r3
    4b98:	6f60      	ldr	r0, [r4, #116]	; 0x74
    4b9a:	b108      	cbz	r0, 4ba0 <tcp_abandon+0x58>
    4b9c:	4b14      	ldr	r3, [pc, #80]	; (4bf0 <tcp_abandon+0xa8>)
    4b9e:	4798      	blx	r3
    4ba0:	f1ba 0f00 	cmp.w	sl, #0
    4ba4:	d00a      	beq.n	4bbc <tcp_abandon+0x74>
    4ba6:	8ba3      	ldrh	r3, [r4, #28]
    4ba8:	9301      	str	r3, [sp, #4]
    4baa:	8b63      	ldrh	r3, [r4, #26]
    4bac:	9300      	str	r3, [sp, #0]
    4bae:	4640      	mov	r0, r8
    4bb0:	1d23      	adds	r3, r4, #4
    4bb2:	4622      	mov	r2, r4
    4bb4:	4649      	mov	r1, r9
    4bb6:	f8df 803c 	ldr.w	r8, [pc, #60]	; 4bf4 <tcp_abandon+0xac>
    4bba:	47c0      	blx	r8
    4bbc:	4621      	mov	r1, r4
    4bbe:	2002      	movs	r0, #2
    4bc0:	47b0      	blx	r6
    4bc2:	b13d      	cbz	r5, 4bd4 <tcp_abandon+0x8c>
    4bc4:	f06f 0109 	mvn.w	r1, #9
    4bc8:	4638      	mov	r0, r7
    4bca:	462b      	mov	r3, r5
    4bcc:	b002      	add	sp, #8
    4bce:	e8bd 47f0 	ldmia.w	sp!, {r4, r5, r6, r7, r8, r9, sl, lr}
    4bd2:	4718      	bx	r3
    4bd4:	b002      	add	sp, #8
    4bd6:	e8bd 87f0 	ldmia.w	sp!, {r4, r5, r6, r7, r8, r9, sl, pc}
    4bda:	bf00      	nop
    4bdc:	0000496d 	.word	0x0000496d
    4be0:	00003b41 	.word	0x00003b41
    4be4:	200090a0 	.word	0x200090a0
    4be8:	2000908c 	.word	0x2000908c
    4bec:	20009088 	.word	0x20009088
    4bf0:	00004549 	.word	0x00004549
    4bf4:	00006a89 	.word	0x00006a89

00004bf8 <tcp_abort>:
    4bf8:	2101      	movs	r1, #1
    4bfa:	4b01      	ldr	r3, [pc, #4]	; (4c00 <tcp_abort+0x8>)
    4bfc:	4718      	bx	r3
    4bfe:	bf00      	nop
    4c00:	00004b49 	.word	0x00004b49

00004c04 <tcp_next_iss>:
    4c04:	4b03      	ldr	r3, [pc, #12]	; (4c14 <tcp_next_iss+0x10>)
    4c06:	4a04      	ldr	r2, [pc, #16]	; (4c18 <tcp_next_iss+0x14>)
    4c08:	6858      	ldr	r0, [r3, #4]
    4c0a:	6812      	ldr	r2, [r2, #0]
    4c0c:	4410      	add	r0, r2
    4c0e:	6058      	str	r0, [r3, #4]
    4c10:	4770      	bx	lr
    4c12:	bf00      	nop
    4c14:	20000004 	.word	0x20000004
    4c18:	20009090 	.word	0x20009090

00004c1c <tcp_alloc>:
    4c1c:	e92d 41f0 	stmdb	sp!, {r4, r5, r6, r7, r8, lr}
    4c20:	4680      	mov	r8, r0
    4c22:	4d44      	ldr	r5, [pc, #272]	; (4d34 <tcp_alloc+0x118>)
    4c24:	4f44      	ldr	r7, [pc, #272]	; (4d38 <tcp_alloc+0x11c>)
    4c26:	2002      	movs	r0, #2
    4c28:	47a8      	blx	r5
    4c2a:	4604      	mov	r4, r0
    4c2c:	2800      	cmp	r0, #0
    4c2e:	d12d      	bne.n	4c8c <tcp_alloc+0x70>
    4c30:	4b42      	ldr	r3, [pc, #264]	; (4d3c <tcp_alloc+0x120>)
    4c32:	4843      	ldr	r0, [pc, #268]	; (4d40 <tcp_alloc+0x124>)
    4c34:	4798      	blx	r3
    4c36:	4b43      	ldr	r3, [pc, #268]	; (4d44 <tcp_alloc+0x128>)
    4c38:	6838      	ldr	r0, [r7, #0]
    4c3a:	681b      	ldr	r3, [r3, #0]
    4c3c:	4622      	mov	r2, r4
    4c3e:	2b00      	cmp	r3, #0
    4c40:	d161      	bne.n	4d06 <tcp_alloc+0xea>
    4c42:	b134      	cbz	r4, 4c52 <tcp_alloc+0x36>
    4c44:	4b40      	ldr	r3, [pc, #256]	; (4d48 <tcp_alloc+0x12c>)
    4c46:	4841      	ldr	r0, [pc, #260]	; (4d4c <tcp_alloc+0x130>)
    4c48:	4621      	mov	r1, r4
    4c4a:	4798      	blx	r3
    4c4c:	4620      	mov	r0, r4
    4c4e:	4b40      	ldr	r3, [pc, #256]	; (4d50 <tcp_alloc+0x134>)
    4c50:	4798      	blx	r3
    4c52:	2002      	movs	r0, #2
    4c54:	47a8      	blx	r5
    4c56:	4604      	mov	r4, r0
    4c58:	b9c0      	cbnz	r0, 4c8c <tcp_alloc+0x70>
    4c5a:	4641      	mov	r1, r8
    4c5c:	483d      	ldr	r0, [pc, #244]	; (4d54 <tcp_alloc+0x138>)
    4c5e:	4e3a      	ldr	r6, [pc, #232]	; (4d48 <tcp_alloc+0x12c>)
    4c60:	47b0      	blx	r6
    4c62:	4b3d      	ldr	r3, [pc, #244]	; (4d58 <tcp_alloc+0x13c>)
    4c64:	f8d7 c000 	ldr.w	ip, [r7]
    4c68:	681b      	ldr	r3, [r3, #0]
    4c6a:	f04f 0e7f 	mov.w	lr, #127	; 0x7f
    4c6e:	4622      	mov	r2, r4
    4c70:	2b00      	cmp	r3, #0
    4c72:	d150      	bne.n	4d16 <tcp_alloc+0xfa>
    4c74:	b12c      	cbz	r4, 4c82 <tcp_alloc+0x66>
    4c76:	4621      	mov	r1, r4
    4c78:	4838      	ldr	r0, [pc, #224]	; (4d5c <tcp_alloc+0x140>)
    4c7a:	47b0      	blx	r6
    4c7c:	4620      	mov	r0, r4
    4c7e:	4b34      	ldr	r3, [pc, #208]	; (4d50 <tcp_alloc+0x134>)
    4c80:	4798      	blx	r3
    4c82:	2002      	movs	r0, #2
    4c84:	47a8      	blx	r5
    4c86:	4604      	mov	r4, r0
    4c88:	2800      	cmp	r0, #0
    4c8a:	d039      	beq.n	4d00 <tcp_alloc+0xe4>
    4c8c:	2298      	movs	r2, #152	; 0x98
    4c8e:	2100      	movs	r1, #0
    4c90:	4b33      	ldr	r3, [pc, #204]	; (4d60 <tcp_alloc+0x144>)
    4c92:	4620      	mov	r0, r4
    4c94:	4798      	blx	r3
    4c96:	f640 3368 	movw	r3, #2920	; 0xb68
    4c9a:	f8a4 3066 	strh.w	r3, [r4, #102]	; 0x66
    4c9e:	f241 63d0 	movw	r3, #5840	; 0x16d0
    4ca2:	85a3      	strh	r3, [r4, #44]	; 0x2c
    4ca4:	85e3      	strh	r3, [r4, #46]	; 0x2e
    4ca6:	23ff      	movs	r3, #255	; 0xff
    4ca8:	72a3      	strb	r3, [r4, #10]
    4caa:	f44f 7306 	mov.w	r3, #536	; 0x218
    4cae:	86e3      	strh	r3, [r4, #54]	; 0x36
    4cb0:	2306      	movs	r3, #6
    4cb2:	f8a4 3044 	strh.w	r3, [r4, #68]	; 0x44
    4cb6:	f8a4 3042 	strh.w	r3, [r4, #66]	; 0x42
    4cba:	f64f 73ff 	movw	r3, #65535	; 0xffff
    4cbe:	2100      	movs	r1, #0
    4cc0:	86a3      	strh	r3, [r4, #52]	; 0x34
    4cc2:	2301      	movs	r3, #1
    4cc4:	f8a4 304c 	strh.w	r3, [r4, #76]	; 0x4c
    4cc8:	f884 8019 	strb.w	r8, [r4, #25]
    4ccc:	4b25      	ldr	r3, [pc, #148]	; (4d64 <tcp_alloc+0x148>)
    4cce:	f8a4 1068 	strh.w	r1, [r4, #104]	; 0x68
    4cd2:	7261      	strb	r1, [r4, #9]
    4cd4:	f8a4 1040 	strh.w	r1, [r4, #64]	; 0x40
    4cd8:	4798      	blx	r3
    4cda:	683b      	ldr	r3, [r7, #0]
    4cdc:	6263      	str	r3, [r4, #36]	; 0x24
    4cde:	4b22      	ldr	r3, [pc, #136]	; (4d68 <tcp_alloc+0x14c>)
    4ce0:	65a0      	str	r0, [r4, #88]	; 0x58
    4ce2:	781b      	ldrb	r3, [r3, #0]
    4ce4:	f884 3021 	strb.w	r3, [r4, #33]	; 0x21
    4ce8:	4b20      	ldr	r3, [pc, #128]	; (4d6c <tcp_alloc+0x150>)
    4cea:	f8c4 3080 	str.w	r3, [r4, #128]	; 0x80
    4cee:	4b20      	ldr	r3, [pc, #128]	; (4d70 <tcp_alloc+0x154>)
    4cf0:	6520      	str	r0, [r4, #80]	; 0x50
    4cf2:	64a0      	str	r0, [r4, #72]	; 0x48
    4cf4:	65e0      	str	r0, [r4, #92]	; 0x5c
    4cf6:	77e1      	strb	r1, [r4, #31]
    4cf8:	f8c4 3090 	str.w	r3, [r4, #144]	; 0x90
    4cfc:	f884 1096 	strb.w	r1, [r4, #150]	; 0x96
    4d00:	4620      	mov	r0, r4
    4d02:	e8bd 81f0 	ldmia.w	sp!, {r4, r5, r6, r7, r8, pc}
    4d06:	6a59      	ldr	r1, [r3, #36]	; 0x24
    4d08:	1a41      	subs	r1, r0, r1
    4d0a:	4291      	cmp	r1, r2
    4d0c:	bf24      	itt	cs
    4d0e:	461c      	movcs	r4, r3
    4d10:	460a      	movcs	r2, r1
    4d12:	68db      	ldr	r3, [r3, #12]
    4d14:	e793      	b.n	4c3e <tcp_alloc+0x22>
    4d16:	7e58      	ldrb	r0, [r3, #25]
    4d18:	4580      	cmp	r8, r0
    4d1a:	d309      	bcc.n	4d30 <tcp_alloc+0x114>
    4d1c:	4570      	cmp	r0, lr
    4d1e:	d807      	bhi.n	4d30 <tcp_alloc+0x114>
    4d20:	6a59      	ldr	r1, [r3, #36]	; 0x24
    4d22:	ebac 0101 	sub.w	r1, ip, r1
    4d26:	4291      	cmp	r1, r2
    4d28:	bf22      	ittt	cs
    4d2a:	4686      	movcs	lr, r0
    4d2c:	460a      	movcs	r2, r1
    4d2e:	461c      	movcs	r4, r3
    4d30:	68db      	ldr	r3, [r3, #12]
    4d32:	e79d      	b.n	4c70 <tcp_alloc+0x54>
    4d34:	00003ae9 	.word	0x00003ae9
    4d38:	20009090 	.word	0x20009090
    4d3c:	00008595 	.word	0x00008595
    4d40:	0000b850 	.word	0x0000b850
    4d44:	200090a0 	.word	0x200090a0
    4d48:	00008485 	.word	0x00008485
    4d4c:	0000b883 	.word	0x0000b883
    4d50:	00004bf9 	.word	0x00004bf9
    4d54:	0000b8bc 	.word	0x0000b8bc
    4d58:	2000908c 	.word	0x2000908c
    4d5c:	0000b8f3 	.word	0x0000b8f3
    4d60:	00008475 	.word	0x00008475
    4d64:	00004c05 	.word	0x00004c05
    4d68:	20007ea8 	.word	0x20007ea8
    4d6c:	00004df1 	.word	0x00004df1
    4d70:	006ddd00 	.word	0x006ddd00

00004d74 <tcp_eff_send_mss>:
    4d74:	b510      	push	{r4, lr}
    4d76:	4b07      	ldr	r3, [pc, #28]	; (4d94 <tcp_eff_send_mss+0x20>)
    4d78:	4604      	mov	r4, r0
    4d7a:	4608      	mov	r0, r1
    4d7c:	4798      	blx	r3
    4d7e:	b130      	cbz	r0, 4d8e <tcp_eff_send_mss+0x1a>
    4d80:	8d83      	ldrh	r3, [r0, #44]	; 0x2c
    4d82:	b123      	cbz	r3, 4d8e <tcp_eff_send_mss+0x1a>
    4d84:	3b28      	subs	r3, #40	; 0x28
    4d86:	b29b      	uxth	r3, r3
    4d88:	429c      	cmp	r4, r3
    4d8a:	bf28      	it	cs
    4d8c:	461c      	movcs	r4, r3
    4d8e:	4620      	mov	r0, r4
    4d90:	bd10      	pop	{r4, pc}
    4d92:	bf00      	nop
    4d94:	00002be5 	.word	0x00002be5

00004d98 <tcp_debug_print_state>:
    4d98:	4b03      	ldr	r3, [pc, #12]	; (4da8 <tcp_debug_print_state+0x10>)
    4d9a:	eb03 0080 	add.w	r0, r3, r0, lsl #2
    4d9e:	4b03      	ldr	r3, [pc, #12]	; (4dac <tcp_debug_print_state+0x14>)
    4da0:	6a41      	ldr	r1, [r0, #36]	; 0x24
    4da2:	4803      	ldr	r0, [pc, #12]	; (4db0 <tcp_debug_print_state+0x18>)
    4da4:	4718      	bx	r3
    4da6:	bf00      	nop
    4da8:	0000b504 	.word	0x0000b504
    4dac:	00008485 	.word	0x00008485
    4db0:	0000b967 	.word	0x0000b967

00004db4 <tcp_close>:
    4db4:	b510      	push	{r4, lr}
    4db6:	4604      	mov	r4, r0
    4db8:	4b09      	ldr	r3, [pc, #36]	; (4de0 <tcp_close+0x2c>)
    4dba:	480a      	ldr	r0, [pc, #40]	; (4de4 <tcp_close+0x30>)
    4dbc:	4798      	blx	r3
    4dbe:	7e20      	ldrb	r0, [r4, #24]
    4dc0:	4b09      	ldr	r3, [pc, #36]	; (4de8 <tcp_close+0x34>)
    4dc2:	4798      	blx	r3
    4dc4:	7e23      	ldrb	r3, [r4, #24]
    4dc6:	2b01      	cmp	r3, #1
    4dc8:	bf1e      	ittt	ne
    4dca:	7fa3      	ldrbne	r3, [r4, #30]
    4dcc:	f043 0310 	orrne.w	r3, r3, #16
    4dd0:	77a3      	strbne	r3, [r4, #30]
    4dd2:	4620      	mov	r0, r4
    4dd4:	2101      	movs	r1, #1
    4dd6:	4b05      	ldr	r3, [pc, #20]	; (4dec <tcp_close+0x38>)
    4dd8:	e8bd 4010 	ldmia.w	sp!, {r4, lr}
    4ddc:	4718      	bx	r3
    4dde:	bf00      	nop
    4de0:	00008485 	.word	0x00008485
    4de4:	0000b972 	.word	0x0000b972
    4de8:	00004d99 	.word	0x00004d99
    4dec:	000049d9 	.word	0x000049d9

00004df0 <tcp_recv_null>:
    4df0:	b510      	push	{r4, lr}
    4df2:	4608      	mov	r0, r1
    4df4:	4614      	mov	r4, r2
    4df6:	b13a      	cbz	r2, 4e08 <tcp_recv_null+0x18>
    4df8:	4b06      	ldr	r3, [pc, #24]	; (4e14 <tcp_recv_null+0x24>)
    4dfa:	8911      	ldrh	r1, [r2, #8]
    4dfc:	4798      	blx	r3
    4dfe:	4620      	mov	r0, r4
    4e00:	4b05      	ldr	r3, [pc, #20]	; (4e18 <tcp_recv_null+0x28>)
    4e02:	4798      	blx	r3
    4e04:	2000      	movs	r0, #0
    4e06:	bd10      	pop	{r4, pc}
    4e08:	2b00      	cmp	r3, #0
    4e0a:	d1fb      	bne.n	4e04 <tcp_recv_null+0x14>
    4e0c:	4b03      	ldr	r3, [pc, #12]	; (4e1c <tcp_recv_null+0x2c>)
    4e0e:	e8bd 4010 	ldmia.w	sp!, {r4, lr}
    4e12:	4718      	bx	r3
    4e14:	000044c9 	.word	0x000044c9
    4e18:	00003f99 	.word	0x00003f99
    4e1c:	00004db5 	.word	0x00004db5

00004e20 <tcp_process_refused_data>:
    4e20:	e92d 47f0 	stmdb	sp!, {r4, r5, r6, r7, r8, r9, sl, lr}
    4e24:	6f86      	ldr	r6, [r0, #120]	; 0x78
    4e26:	4f1f      	ldr	r7, [pc, #124]	; (4ea4 <tcp_process_refused_data+0x84>)
    4e28:	f896 a00d 	ldrb.w	sl, [r6, #13]
    4e2c:	4604      	mov	r4, r0
    4e2e:	f04f 0900 	mov.w	r9, #0
    4e32:	f8c0 9078 	str.w	r9, [r0, #120]	; 0x78
    4e36:	481c      	ldr	r0, [pc, #112]	; (4ea8 <tcp_process_refused_data+0x88>)
    4e38:	47b8      	blx	r7
    4e3a:	f8d4 8080 	ldr.w	r8, [r4, #128]	; 0x80
    4e3e:	f1b8 0f00 	cmp.w	r8, #0
    4e42:	d01e      	beq.n	4e82 <tcp_process_refused_data+0x62>
    4e44:	464b      	mov	r3, r9
    4e46:	4632      	mov	r2, r6
    4e48:	4621      	mov	r1, r4
    4e4a:	6920      	ldr	r0, [r4, #16]
    4e4c:	47c0      	blx	r8
    4e4e:	4605      	mov	r5, r0
    4e50:	b9f0      	cbnz	r0, 4e90 <tcp_process_refused_data+0x70>
    4e52:	f01a 0f20 	tst.w	sl, #32
    4e56:	d011      	beq.n	4e7c <tcp_process_refused_data+0x5c>
    4e58:	8da3      	ldrh	r3, [r4, #44]	; 0x2c
    4e5a:	f8d4 5080 	ldr.w	r5, [r4, #128]	; 0x80
    4e5e:	f241 62d0 	movw	r2, #5840	; 0x16d0
    4e62:	4293      	cmp	r3, r2
    4e64:	bf1c      	itt	ne
    4e66:	3301      	addne	r3, #1
    4e68:	85a3      	strhne	r3, [r4, #44]	; 0x2c
    4e6a:	b13d      	cbz	r5, 4e7c <tcp_process_refused_data+0x5c>
    4e6c:	2300      	movs	r3, #0
    4e6e:	461a      	mov	r2, r3
    4e70:	4621      	mov	r1, r4
    4e72:	6920      	ldr	r0, [r4, #16]
    4e74:	47a8      	blx	r5
    4e76:	f110 0f0a 	cmn.w	r0, #10
    4e7a:	d000      	beq.n	4e7e <tcp_process_refused_data+0x5e>
    4e7c:	2000      	movs	r0, #0
    4e7e:	e8bd 87f0 	ldmia.w	sp!, {r4, r5, r6, r7, r8, r9, sl, pc}
    4e82:	4643      	mov	r3, r8
    4e84:	4632      	mov	r2, r6
    4e86:	4621      	mov	r1, r4
    4e88:	4640      	mov	r0, r8
    4e8a:	4d08      	ldr	r5, [pc, #32]	; (4eac <tcp_process_refused_data+0x8c>)
    4e8c:	47a8      	blx	r5
    4e8e:	e7de      	b.n	4e4e <tcp_process_refused_data+0x2e>
    4e90:	f110 0f0a 	cmn.w	r0, #10
    4e94:	d104      	bne.n	4ea0 <tcp_process_refused_data+0x80>
    4e96:	4806      	ldr	r0, [pc, #24]	; (4eb0 <tcp_process_refused_data+0x90>)
    4e98:	47b8      	blx	r7
    4e9a:	4628      	mov	r0, r5
    4e9c:	e8bd 87f0 	ldmia.w	sp!, {r4, r5, r6, r7, r8, r9, sl, pc}
    4ea0:	67a6      	str	r6, [r4, #120]	; 0x78
    4ea2:	e7eb      	b.n	4e7c <tcp_process_refused_data+0x5c>
    4ea4:	00008595 	.word	0x00008595
    4ea8:	0000b989 	.word	0x0000b989
    4eac:	00004df1 	.word	0x00004df1
    4eb0:	0000b9a7 	.word	0x0000b9a7

00004eb4 <tcp_fasttmr>:
    4eb4:	e92d 4ff8 	stmdb	sp!, {r3, r4, r5, r6, r7, r8, r9, sl, fp, lr}
    4eb8:	4d1b      	ldr	r5, [pc, #108]	; (4f28 <tcp_fasttmr+0x74>)
    4eba:	4e1c      	ldr	r6, [pc, #112]	; (4f2c <tcp_fasttmr+0x78>)
    4ebc:	782b      	ldrb	r3, [r5, #0]
    4ebe:	f8df 8078 	ldr.w	r8, [pc, #120]	; 4f38 <tcp_fasttmr+0x84>
    4ec2:	3301      	adds	r3, #1
    4ec4:	702b      	strb	r3, [r5, #0]
    4ec6:	6834      	ldr	r4, [r6, #0]
    4ec8:	4f19      	ldr	r7, [pc, #100]	; (4f30 <tcp_fasttmr+0x7c>)
    4eca:	f8df 9070 	ldr.w	r9, [pc, #112]	; 4f3c <tcp_fasttmr+0x88>
    4ece:	782b      	ldrb	r3, [r5, #0]
    4ed0:	b90c      	cbnz	r4, 4ed6 <tcp_fasttmr+0x22>
    4ed2:	e8bd 8ff8 	ldmia.w	sp!, {r3, r4, r5, r6, r7, r8, r9, sl, fp, pc}
    4ed6:	f894 2021 	ldrb.w	r2, [r4, #33]	; 0x21
    4eda:	429a      	cmp	r2, r3
    4edc:	d0f8      	beq.n	4ed0 <tcp_fasttmr+0x1c>
    4ede:	f884 3021 	strb.w	r3, [r4, #33]	; 0x21
    4ee2:	7fa3      	ldrb	r3, [r4, #30]
    4ee4:	07db      	lsls	r3, r3, #31
    4ee6:	d50b      	bpl.n	4f00 <tcp_fasttmr+0x4c>
    4ee8:	4638      	mov	r0, r7
    4eea:	47c0      	blx	r8
    4eec:	7fa3      	ldrb	r3, [r4, #30]
    4eee:	f043 0302 	orr.w	r3, r3, #2
    4ef2:	77a3      	strb	r3, [r4, #30]
    4ef4:	4620      	mov	r0, r4
    4ef6:	47c8      	blx	r9
    4ef8:	7fa3      	ldrb	r3, [r4, #30]
    4efa:	f023 0303 	bic.w	r3, r3, #3
    4efe:	77a3      	strb	r3, [r4, #30]
    4f00:	6fa3      	ldr	r3, [r4, #120]	; 0x78
    4f02:	f8d4 b00c 	ldr.w	fp, [r4, #12]
    4f06:	b90b      	cbnz	r3, 4f0c <tcp_fasttmr+0x58>
    4f08:	465c      	mov	r4, fp
    4f0a:	e7e0      	b.n	4ece <tcp_fasttmr+0x1a>
    4f0c:	f8df a030 	ldr.w	sl, [pc, #48]	; 4f40 <tcp_fasttmr+0x8c>
    4f10:	2300      	movs	r3, #0
    4f12:	f88a 3000 	strb.w	r3, [sl]
    4f16:	4620      	mov	r0, r4
    4f18:	4b06      	ldr	r3, [pc, #24]	; (4f34 <tcp_fasttmr+0x80>)
    4f1a:	4798      	blx	r3
    4f1c:	f89a 3000 	ldrb.w	r3, [sl]
    4f20:	2b00      	cmp	r3, #0
    4f22:	d0f1      	beq.n	4f08 <tcp_fasttmr+0x54>
    4f24:	e7cf      	b.n	4ec6 <tcp_fasttmr+0x12>
    4f26:	bf00      	nop
    4f28:	20007ea8 	.word	0x20007ea8
    4f2c:	2000908c 	.word	0x2000908c
    4f30:	0000b9df 	.word	0x0000b9df
    4f34:	00004e21 	.word	0x00004e21
    4f38:	00008595 	.word	0x00008595
    4f3c:	000067b9 	.word	0x000067b9
    4f40:	20009088 	.word	0x20009088

00004f44 <tcp_tmr>:
    4f44:	4b07      	ldr	r3, [pc, #28]	; (4f64 <tcp_tmr+0x20>)
    4f46:	b510      	push	{r4, lr}
    4f48:	4798      	blx	r3
    4f4a:	4a07      	ldr	r2, [pc, #28]	; (4f68 <tcp_tmr+0x24>)
    4f4c:	7853      	ldrb	r3, [r2, #1]
    4f4e:	3301      	adds	r3, #1
    4f50:	b2db      	uxtb	r3, r3
    4f52:	7053      	strb	r3, [r2, #1]
    4f54:	07db      	lsls	r3, r3, #31
    4f56:	d503      	bpl.n	4f60 <tcp_tmr+0x1c>
    4f58:	4b04      	ldr	r3, [pc, #16]	; (4f6c <tcp_tmr+0x28>)
    4f5a:	e8bd 4010 	ldmia.w	sp!, {r4, lr}
    4f5e:	4718      	bx	r3
    4f60:	bd10      	pop	{r4, pc}
    4f62:	bf00      	nop
    4f64:	00004eb5 	.word	0x00004eb5
    4f68:	20007ea8 	.word	0x20007ea8
    4f6c:	00004611 	.word	0x00004611

00004f70 <tcp_debug_print_flags>:
    4f70:	b510      	push	{r4, lr}
    4f72:	4604      	mov	r4, r0
    4f74:	07e0      	lsls	r0, r4, #31
    4f76:	d502      	bpl.n	4f7e <tcp_debug_print_flags+0xe>
    4f78:	4815      	ldr	r0, [pc, #84]	; (4fd0 <tcp_debug_print_flags+0x60>)
    4f7a:	4b16      	ldr	r3, [pc, #88]	; (4fd4 <tcp_debug_print_flags+0x64>)
    4f7c:	4798      	blx	r3
    4f7e:	07a1      	lsls	r1, r4, #30
    4f80:	d502      	bpl.n	4f88 <tcp_debug_print_flags+0x18>
    4f82:	4815      	ldr	r0, [pc, #84]	; (4fd8 <tcp_debug_print_flags+0x68>)
    4f84:	4b13      	ldr	r3, [pc, #76]	; (4fd4 <tcp_debug_print_flags+0x64>)
    4f86:	4798      	blx	r3
    4f88:	0762      	lsls	r2, r4, #29
    4f8a:	d502      	bpl.n	4f92 <tcp_debug_print_flags+0x22>
    4f8c:	4813      	ldr	r0, [pc, #76]	; (4fdc <tcp_debug_print_flags+0x6c>)
    4f8e:	4b11      	ldr	r3, [pc, #68]	; (4fd4 <tcp_debug_print_flags+0x64>)
    4f90:	4798      	blx	r3
    4f92:	0723      	lsls	r3, r4, #28
    4f94:	d502      	bpl.n	4f9c <tcp_debug_print_flags+0x2c>
    4f96:	4812      	ldr	r0, [pc, #72]	; (4fe0 <tcp_debug_print_flags+0x70>)
    4f98:	4b0e      	ldr	r3, [pc, #56]	; (4fd4 <tcp_debug_print_flags+0x64>)
    4f9a:	4798      	blx	r3
    4f9c:	06e0      	lsls	r0, r4, #27
    4f9e:	d502      	bpl.n	4fa6 <tcp_debug_print_flags+0x36>
    4fa0:	4810      	ldr	r0, [pc, #64]	; (4fe4 <tcp_debug_print_flags+0x74>)
    4fa2:	4b0c      	ldr	r3, [pc, #48]	; (4fd4 <tcp_debug_print_flags+0x64>)
    4fa4:	4798      	blx	r3
    4fa6:	06a1      	lsls	r1, r4, #26
    4fa8:	d502      	bpl.n	4fb0 <tcp_debug_print_flags+0x40>
    4faa:	480f      	ldr	r0, [pc, #60]	; (4fe8 <tcp_debug_print_flags+0x78>)
    4fac:	4b09      	ldr	r3, [pc, #36]	; (4fd4 <tcp_debug_print_flags+0x64>)
    4fae:	4798      	blx	r3
    4fb0:	0662      	lsls	r2, r4, #25
    4fb2:	d502      	bpl.n	4fba <tcp_debug_print_flags+0x4a>
    4fb4:	480d      	ldr	r0, [pc, #52]	; (4fec <tcp_debug_print_flags+0x7c>)
    4fb6:	4b07      	ldr	r3, [pc, #28]	; (4fd4 <tcp_debug_print_flags+0x64>)
    4fb8:	4798      	blx	r3
    4fba:	0623      	lsls	r3, r4, #24
    4fbc:	d502      	bpl.n	4fc4 <tcp_debug_print_flags+0x54>
    4fbe:	480c      	ldr	r0, [pc, #48]	; (4ff0 <tcp_debug_print_flags+0x80>)
    4fc0:	4b04      	ldr	r3, [pc, #16]	; (4fd4 <tcp_debug_print_flags+0x64>)
    4fc2:	4798      	blx	r3
    4fc4:	200a      	movs	r0, #10
    4fc6:	4b0b      	ldr	r3, [pc, #44]	; (4ff4 <tcp_debug_print_flags+0x84>)
    4fc8:	e8bd 4010 	ldmia.w	sp!, {r4, lr}
    4fcc:	4718      	bx	r3
    4fce:	bf00      	nop
    4fd0:	0000b9f8 	.word	0x0000b9f8
    4fd4:	00008485 	.word	0x00008485
    4fd8:	0000b9fd 	.word	0x0000b9fd
    4fdc:	0000ba02 	.word	0x0000ba02
    4fe0:	0000ba07 	.word	0x0000ba07
    4fe4:	0000ba0c 	.word	0x0000ba0c
    4fe8:	0000ba11 	.word	0x0000ba11
    4fec:	0000ba16 	.word	0x0000ba16
    4ff0:	0000ba1b 	.word	0x0000ba1b
    4ff4:	000084b5 	.word	0x000084b5

00004ff8 <tcp_debug_print>:
    4ff8:	e92d 4ff0 	stmdb	sp!, {r4, r5, r6, r7, r8, r9, sl, fp, lr}
    4ffc:	4f37      	ldr	r7, [pc, #220]	; (50dc <tcp_debug_print+0xe4>)
    4ffe:	4e38      	ldr	r6, [pc, #224]	; (50e0 <tcp_debug_print+0xe8>)
    5000:	4d38      	ldr	r5, [pc, #224]	; (50e4 <tcp_debug_print+0xec>)
    5002:	f8df 9104 	ldr.w	r9, [pc, #260]	; 5108 <tcp_debug_print+0x110>
    5006:	b08b      	sub	sp, #44	; 0x2c
    5008:	4604      	mov	r4, r0
    500a:	4837      	ldr	r0, [pc, #220]	; (50e8 <tcp_debug_print+0xf0>)
    500c:	47b0      	blx	r6
    500e:	4638      	mov	r0, r7
    5010:	47b0      	blx	r6
    5012:	8820      	ldrh	r0, [r4, #0]
    5014:	47a8      	blx	r5
    5016:	4680      	mov	r8, r0
    5018:	8860      	ldrh	r0, [r4, #2]
    501a:	47a8      	blx	r5
    501c:	4641      	mov	r1, r8
    501e:	4602      	mov	r2, r0
    5020:	f8df 80e8 	ldr.w	r8, [pc, #232]	; 510c <tcp_debug_print+0x114>
    5024:	4831      	ldr	r0, [pc, #196]	; (50ec <tcp_debug_print+0xf4>)
    5026:	47c0      	blx	r8
    5028:	4638      	mov	r0, r7
    502a:	47b0      	blx	r6
    502c:	6860      	ldr	r0, [r4, #4]
    502e:	47c8      	blx	r9
    5030:	4601      	mov	r1, r0
    5032:	482f      	ldr	r0, [pc, #188]	; (50f0 <tcp_debug_print+0xf8>)
    5034:	47c0      	blx	r8
    5036:	4638      	mov	r0, r7
    5038:	47b0      	blx	r6
    503a:	68a0      	ldr	r0, [r4, #8]
    503c:	47c8      	blx	r9
    503e:	4601      	mov	r1, r0
    5040:	482c      	ldr	r0, [pc, #176]	; (50f4 <tcp_debug_print+0xfc>)
    5042:	47c0      	blx	r8
    5044:	4638      	mov	r0, r7
    5046:	47b0      	blx	r6
    5048:	89a0      	ldrh	r0, [r4, #12]
    504a:	47a8      	blx	r5
    504c:	9006      	str	r0, [sp, #24]
    504e:	89a0      	ldrh	r0, [r4, #12]
    5050:	47a8      	blx	r5
    5052:	9009      	str	r0, [sp, #36]	; 0x24
    5054:	89a0      	ldrh	r0, [r4, #12]
    5056:	47a8      	blx	r5
    5058:	9008      	str	r0, [sp, #32]
    505a:	89a0      	ldrh	r0, [r4, #12]
    505c:	47a8      	blx	r5
    505e:	4681      	mov	r9, r0
    5060:	89a0      	ldrh	r0, [r4, #12]
    5062:	47a8      	blx	r5
    5064:	4682      	mov	sl, r0
    5066:	89a0      	ldrh	r0, [r4, #12]
    5068:	47a8      	blx	r5
    506a:	4683      	mov	fp, r0
    506c:	89a0      	ldrh	r0, [r4, #12]
    506e:	47a8      	blx	r5
    5070:	9007      	str	r0, [sp, #28]
    5072:	89e0      	ldrh	r0, [r4, #14]
    5074:	47a8      	blx	r5
    5076:	9907      	ldr	r1, [sp, #28]
    5078:	9b08      	ldr	r3, [sp, #32]
    507a:	9a09      	ldr	r2, [sp, #36]	; 0x24
    507c:	9004      	str	r0, [sp, #16]
    507e:	f001 0101 	and.w	r1, r1, #1
    5082:	9103      	str	r1, [sp, #12]
    5084:	f3cb 0140 	ubfx	r1, fp, #1, #1
    5088:	9102      	str	r1, [sp, #8]
    508a:	f3ca 0180 	ubfx	r1, sl, #2, #1
    508e:	9101      	str	r1, [sp, #4]
    5090:	f3c9 01c0 	ubfx	r1, r9, #3, #1
    5094:	9100      	str	r1, [sp, #0]
    5096:	9906      	ldr	r1, [sp, #24]
    5098:	4817      	ldr	r0, [pc, #92]	; (50f8 <tcp_debug_print+0x100>)
    509a:	f3c2 1240 	ubfx	r2, r2, #5, #1
    509e:	f3c1 310f 	ubfx	r1, r1, #12, #16
    50a2:	f3c3 1300 	ubfx	r3, r3, #4, #1
    50a6:	47c0      	blx	r8
    50a8:	89a0      	ldrh	r0, [r4, #12]
    50aa:	47a8      	blx	r5
    50ac:	4b13      	ldr	r3, [pc, #76]	; (50fc <tcp_debug_print+0x104>)
    50ae:	f000 003f 	and.w	r0, r0, #63	; 0x3f
    50b2:	4798      	blx	r3
    50b4:	4812      	ldr	r0, [pc, #72]	; (5100 <tcp_debug_print+0x108>)
    50b6:	47b0      	blx	r6
    50b8:	4638      	mov	r0, r7
    50ba:	47b0      	blx	r6
    50bc:	8a20      	ldrh	r0, [r4, #16]
    50be:	47a8      	blx	r5
    50c0:	4681      	mov	r9, r0
    50c2:	8a60      	ldrh	r0, [r4, #18]
    50c4:	47a8      	blx	r5
    50c6:	4649      	mov	r1, r9
    50c8:	4602      	mov	r2, r0
    50ca:	480e      	ldr	r0, [pc, #56]	; (5104 <tcp_debug_print+0x10c>)
    50cc:	47c0      	blx	r8
    50ce:	4638      	mov	r0, r7
    50d0:	4633      	mov	r3, r6
    50d2:	b00b      	add	sp, #44	; 0x2c
    50d4:	e8bd 4ff0 	ldmia.w	sp!, {r4, r5, r6, r7, r8, r9, sl, fp, lr}
    50d8:	4718      	bx	r3
    50da:	bf00      	nop
    50dc:	0000a819 	.word	0x0000a819
    50e0:	00008595 	.word	0x00008595
    50e4:	000011f3 	.word	0x000011f3
    50e8:	0000ba20 	.word	0x0000ba20
    50ec:	0000ba2c 	.word	0x0000ba2c
    50f0:	0000ba63 	.word	0x0000ba63
    50f4:	0000ba8a 	.word	0x0000ba8a
    50f8:	0000bab1 	.word	0x0000bab1
    50fc:	00004f71 	.word	0x00004f71
    5100:	0000baf1 	.word	0x0000baf1
    5104:	0000baf9 	.word	0x0000baf9
    5108:	000011fd 	.word	0x000011fd
    510c:	00008485 	.word	0x00008485

00005110 <tcp_oos_insert_segment>:
    5110:	e92d 4ff8 	stmdb	sp!, {r3, r4, r5, r6, r7, r8, r9, sl, fp, lr}
    5114:	6903      	ldr	r3, [r0, #16]
    5116:	4e1f      	ldr	r6, [pc, #124]	; (5194 <tcp_oos_insert_segment+0x84>)
    5118:	4605      	mov	r5, r0
    511a:	8998      	ldrh	r0, [r3, #12]
    511c:	460c      	mov	r4, r1
    511e:	47b0      	blx	r6
    5120:	07c2      	lsls	r2, r0, #31
    5122:	d41b      	bmi.n	515c <tcp_oos_insert_segment+0x4c>
    5124:	4f1c      	ldr	r7, [pc, #112]	; (5198 <tcp_oos_insert_segment+0x88>)
    5126:	f8df 807c 	ldr.w	r8, [pc, #124]	; 51a4 <tcp_oos_insert_segment+0x94>
    512a:	f8df 907c 	ldr.w	r9, [pc, #124]	; 51a8 <tcp_oos_insert_segment+0x98>
    512e:	b1cc      	cbz	r4, 5164 <tcp_oos_insert_segment+0x54>
    5130:	f8d4 e010 	ldr.w	lr, [r4, #16]
    5134:	6838      	ldr	r0, [r7, #0]
    5136:	892b      	ldrh	r3, [r5, #8]
    5138:	f8de 1004 	ldr.w	r1, [lr, #4]
    513c:	8922      	ldrh	r2, [r4, #8]
    513e:	4403      	add	r3, r0
    5140:	440a      	add	r2, r1
    5142:	1a9a      	subs	r2, r3, r2
    5144:	2a00      	cmp	r2, #0
    5146:	da10      	bge.n	516a <tcp_oos_insert_segment+0x5a>
    5148:	1a5b      	subs	r3, r3, r1
    514a:	2b00      	cmp	r3, #0
    514c:	dd0a      	ble.n	5164 <tcp_oos_insert_segment+0x54>
    514e:	1a09      	subs	r1, r1, r0
    5150:	b289      	uxth	r1, r1
    5152:	8129      	strh	r1, [r5, #8]
    5154:	6868      	ldr	r0, [r5, #4]
    5156:	4b11      	ldr	r3, [pc, #68]	; (519c <tcp_oos_insert_segment+0x8c>)
    5158:	4798      	blx	r3
    515a:	e003      	b.n	5164 <tcp_oos_insert_segment+0x54>
    515c:	4620      	mov	r0, r4
    515e:	4b10      	ldr	r3, [pc, #64]	; (51a0 <tcp_oos_insert_segment+0x90>)
    5160:	4798      	blx	r3
    5162:	2400      	movs	r4, #0
    5164:	602c      	str	r4, [r5, #0]
    5166:	e8bd 8ff8 	ldmia.w	sp!, {r3, r4, r5, r6, r7, r8, r9, sl, fp, pc}
    516a:	f8be 000c 	ldrh.w	r0, [lr, #12]
    516e:	47b0      	blx	r6
    5170:	07c3      	lsls	r3, r0, #31
    5172:	d509      	bpl.n	5188 <tcp_oos_insert_segment+0x78>
    5174:	f8d5 b010 	ldr.w	fp, [r5, #16]
    5178:	2001      	movs	r0, #1
    517a:	f8bb a00c 	ldrh.w	sl, [fp, #12]
    517e:	47c0      	blx	r8
    5180:	ea4a 0000 	orr.w	r0, sl, r0
    5184:	f8ab 000c 	strh.w	r0, [fp, #12]
    5188:	f8d4 a000 	ldr.w	sl, [r4]
    518c:	4620      	mov	r0, r4
    518e:	47c8      	blx	r9
    5190:	4654      	mov	r4, sl
    5192:	e7cc      	b.n	512e <tcp_oos_insert_segment+0x1e>
    5194:	000011f3 	.word	0x000011f3
    5198:	20007eac 	.word	0x20007eac
    519c:	000041b1 	.word	0x000041b1
    51a0:	00004549 	.word	0x00004549
    51a4:	000011ed 	.word	0x000011ed
    51a8:	00004521 	.word	0x00004521

000051ac <tcp_receive>:
    51ac:	e92d 4ff1 	stmdb	sp!, {r0, r4, r5, r6, r7, r8, r9, sl, fp, lr}
    51b0:	4da3      	ldr	r5, [pc, #652]	; (5440 <tcp_receive+0x294>)
    51b2:	792b      	ldrb	r3, [r5, #4]
    51b4:	06de      	lsls	r6, r3, #27
    51b6:	4604      	mov	r4, r0
    51b8:	d570      	bpl.n	529c <tcp_receive+0xf0>
    51ba:	6d43      	ldr	r3, [r0, #84]	; 0x54
    51bc:	f8b0 2060 	ldrh.w	r2, [r0, #96]	; 0x60
    51c0:	6d81      	ldr	r1, [r0, #88]	; 0x58
    51c2:	6828      	ldr	r0, [r5, #0]
    51c4:	1a1e      	subs	r6, r3, r0
    51c6:	2e00      	cmp	r6, #0
    51c8:	db0c      	blt.n	51e4 <tcp_receive+0x38>
    51ca:	4283      	cmp	r3, r0
    51cc:	d103      	bne.n	51d6 <tcp_receive+0x2a>
    51ce:	68ab      	ldr	r3, [r5, #8]
    51d0:	1acb      	subs	r3, r1, r3
    51d2:	2b00      	cmp	r3, #0
    51d4:	db06      	blt.n	51e4 <tcp_receive+0x38>
    51d6:	68ab      	ldr	r3, [r5, #8]
    51d8:	4299      	cmp	r1, r3
    51da:	d11b      	bne.n	5214 <tcp_receive+0x68>
    51dc:	68eb      	ldr	r3, [r5, #12]
    51de:	89db      	ldrh	r3, [r3, #14]
    51e0:	4293      	cmp	r3, r2
    51e2:	d917      	bls.n	5214 <tcp_receive+0x68>
    51e4:	68eb      	ldr	r3, [r5, #12]
    51e6:	f8b4 7062 	ldrh.w	r7, [r4, #98]	; 0x62
    51ea:	89de      	ldrh	r6, [r3, #14]
    51ec:	6560      	str	r0, [r4, #84]	; 0x54
    51ee:	42b7      	cmp	r7, r6
    51f0:	68a8      	ldr	r0, [r5, #8]
    51f2:	65a0      	str	r0, [r4, #88]	; 0x58
    51f4:	f8a4 6060 	strh.w	r6, [r4, #96]	; 0x60
    51f8:	bf38      	it	cc
    51fa:	f8a4 6062 	strhcc.w	r6, [r4, #98]	; 0x62
    51fe:	f894 0095 	ldrb.w	r0, [r4, #149]	; 0x95
    5202:	2e00      	cmp	r6, #0
    5204:	f040 8111 	bne.w	542a <tcp_receive+0x27e>
    5208:	b920      	cbnz	r0, 5214 <tcp_receive+0x68>
    520a:	f884 6094 	strb.w	r6, [r4, #148]	; 0x94
    520e:	2301      	movs	r3, #1
    5210:	f884 3095 	strb.w	r3, [r4, #149]	; 0x95
    5214:	68af      	ldr	r7, [r5, #8]
    5216:	6ca0      	ldr	r0, [r4, #72]	; 0x48
    5218:	4e8a      	ldr	r6, [pc, #552]	; (5444 <tcp_receive+0x298>)
    521a:	1a3b      	subs	r3, r7, r0
    521c:	2b00      	cmp	r3, #0
    521e:	f300 8131 	bgt.w	5484 <tcp_receive+0x2d8>
    5222:	2300      	movs	r3, #0
    5224:	f8a4 3064 	strh.w	r3, [r4, #100]	; 0x64
    5228:	8a2b      	ldrh	r3, [r5, #16]
    522a:	2b00      	cmp	r3, #0
    522c:	f040 840b 	bne.w	5a46 <tcp_receive+0x89a>
    5230:	1853      	adds	r3, r2, r1
    5232:	f8b4 2060 	ldrh.w	r2, [r4, #96]	; 0x60
    5236:	6da1      	ldr	r1, [r4, #88]	; 0x58
    5238:	440a      	add	r2, r1
    523a:	4293      	cmp	r3, r2
    523c:	f040 8403 	bne.w	5a46 <tcp_receive+0x89a>
    5240:	f9b4 3034 	ldrsh.w	r3, [r4, #52]	; 0x34
    5244:	2b00      	cmp	r3, #0
    5246:	f2c0 83fe 	blt.w	5a46 <tcp_receive+0x89a>
    524a:	4287      	cmp	r7, r0
    524c:	f040 83fb 	bne.w	5a46 <tcp_receive+0x89a>
    5250:	f894 2047 	ldrb.w	r2, [r4, #71]	; 0x47
    5254:	1c53      	adds	r3, r2, #1
    5256:	b2db      	uxtb	r3, r3
    5258:	429a      	cmp	r2, r3
    525a:	bf38      	it	cc
    525c:	f884 3047 	strbcc.w	r3, [r4, #71]	; 0x47
    5260:	f894 3047 	ldrb.w	r3, [r4, #71]	; 0x47
    5264:	2b03      	cmp	r3, #3
    5266:	f240 80e5 	bls.w	5434 <tcp_receive+0x288>
    526a:	f8b4 204c 	ldrh.w	r2, [r4, #76]	; 0x4c
    526e:	8ee3      	ldrh	r3, [r4, #54]	; 0x36
    5270:	4413      	add	r3, r2
    5272:	b29b      	uxth	r3, r3
    5274:	429a      	cmp	r2, r3
    5276:	d201      	bcs.n	527c <tcp_receive+0xd0>
    5278:	f8a4 304c 	strh.w	r3, [r4, #76]	; 0x4c
    527c:	4f72      	ldr	r7, [pc, #456]	; (5448 <tcp_receive+0x29c>)
    527e:	f8df 81d4 	ldr.w	r8, [pc, #468]	; 5454 <tcp_receive+0x2a8>
    5282:	6ee3      	ldr	r3, [r4, #108]	; 0x6c
    5284:	2b00      	cmp	r3, #0
    5286:	f040 81bb 	bne.w	5600 <tcp_receive+0x454>
    528a:	6be2      	ldr	r2, [r4, #60]	; 0x3c
    528c:	68ab      	ldr	r3, [r5, #8]
    528e:	6ba1      	ldr	r1, [r4, #56]	; 0x38
    5290:	486e      	ldr	r0, [pc, #440]	; (544c <tcp_receive+0x2a0>)
    5292:	47b0      	blx	r6
    5294:	6ba2      	ldr	r2, [r4, #56]	; 0x38
    5296:	2a00      	cmp	r2, #0
    5298:	f040 820d 	bne.w	56b6 <tcp_receive+0x50a>
    529c:	8a2e      	ldrh	r6, [r5, #16]
    529e:	6aa2      	ldr	r2, [r4, #40]	; 0x28
    52a0:	2e00      	cmp	r6, #0
    52a2:	f000 83c3 	beq.w	5a2c <tcp_receive+0x880>
    52a6:	7e23      	ldrb	r3, [r4, #24]
    52a8:	2b06      	cmp	r3, #6
    52aa:	f200 83bf 	bhi.w	5a2c <tcp_receive+0x880>
    52ae:	6829      	ldr	r1, [r5, #0]
    52b0:	1a53      	subs	r3, r2, r1
    52b2:	2b01      	cmp	r3, #1
    52b4:	f100 8239 	bmi.w	572a <tcp_receive+0x57e>
    52b8:	f1c1 0001 	rsb	r0, r1, #1
    52bc:	1b80      	subs	r0, r0, r6
    52be:	4410      	add	r0, r2
    52c0:	2800      	cmp	r0, #0
    52c2:	f300 8232 	bgt.w	572a <tcp_receive+0x57e>
    52c6:	69a8      	ldr	r0, [r5, #24]
    52c8:	8942      	ldrh	r2, [r0, #10]
    52ca:	4293      	cmp	r3, r2
    52cc:	4619      	mov	r1, r3
    52ce:	f340 822a 	ble.w	5726 <tcp_receive+0x57a>
    52d2:	8903      	ldrh	r3, [r0, #8]
    52d4:	1a5b      	subs	r3, r3, r1
    52d6:	b29b      	uxth	r3, r3
    52d8:	2600      	movs	r6, #0
    52da:	8942      	ldrh	r2, [r0, #10]
    52dc:	4291      	cmp	r1, r2
    52de:	f300 821d 	bgt.w	571c <tcp_receive+0x570>
    52e2:	4249      	negs	r1, r1
    52e4:	b209      	sxth	r1, r1
    52e6:	4b5a      	ldr	r3, [pc, #360]	; (5450 <tcp_receive+0x2a4>)
    52e8:	4798      	blx	r3
    52ea:	8ba9      	ldrh	r1, [r5, #28]
    52ec:	682b      	ldr	r3, [r5, #0]
    52ee:	6aa2      	ldr	r2, [r4, #40]	; 0x28
    52f0:	602a      	str	r2, [r5, #0]
    52f2:	440b      	add	r3, r1
    52f4:	1a9b      	subs	r3, r3, r2
    52f6:	83ab      	strh	r3, [r5, #28]
    52f8:	6a6b      	ldr	r3, [r5, #36]	; 0x24
    52fa:	605a      	str	r2, [r3, #4]
    52fc:	6829      	ldr	r1, [r5, #0]
    52fe:	6aa2      	ldr	r2, [r4, #40]	; 0x28
    5300:	1a8b      	subs	r3, r1, r2
    5302:	2b00      	cmp	r3, #0
    5304:	f2c0 838c 	blt.w	5a20 <tcp_receive+0x874>
    5308:	1c4b      	adds	r3, r1, #1
    530a:	8da0      	ldrh	r0, [r4, #44]	; 0x2c
    530c:	1a9b      	subs	r3, r3, r2
    530e:	1a1b      	subs	r3, r3, r0
    5310:	2b00      	cmp	r3, #0
    5312:	f300 8385 	bgt.w	5a20 <tcp_receive+0x874>
    5316:	4291      	cmp	r1, r2
    5318:	f040 82d1 	bne.w	58be <tcp_receive+0x712>
    531c:	6a6b      	ldr	r3, [r5, #36]	; 0x24
    531e:	4e4d      	ldr	r6, [pc, #308]	; (5454 <tcp_receive+0x2a8>)
    5320:	8998      	ldrh	r0, [r3, #12]
    5322:	8baf      	ldrh	r7, [r5, #28]
    5324:	47b0      	blx	r6
    5326:	f010 0203 	ands.w	r2, r0, #3
    532a:	bf18      	it	ne
    532c:	2201      	movne	r2, #1
    532e:	443a      	add	r2, r7
    5330:	8da3      	ldrh	r3, [r4, #44]	; 0x2c
    5332:	b292      	uxth	r2, r2
    5334:	429a      	cmp	r2, r3
    5336:	822a      	strh	r2, [r5, #16]
    5338:	d933      	bls.n	53a2 <tcp_receive+0x1f6>
    533a:	6aa1      	ldr	r1, [r4, #40]	; 0x28
    533c:	4846      	ldr	r0, [pc, #280]	; (5458 <tcp_receive+0x2ac>)
    533e:	4f41      	ldr	r7, [pc, #260]	; (5444 <tcp_receive+0x298>)
    5340:	440b      	add	r3, r1
    5342:	6829      	ldr	r1, [r5, #0]
    5344:	47b8      	blx	r7
    5346:	6a6b      	ldr	r3, [r5, #36]	; 0x24
    5348:	8998      	ldrh	r0, [r3, #12]
    534a:	47b0      	blx	r6
    534c:	07c3      	lsls	r3, r0, #31
    534e:	d50e      	bpl.n	536e <tcp_receive+0x1c2>
    5350:	f8d5 8024 	ldr.w	r8, [r5, #36]	; 0x24
    5354:	f8b8 700c 	ldrh.w	r7, [r8, #12]
    5358:	4638      	mov	r0, r7
    535a:	47b0      	blx	r6
    535c:	4b3f      	ldr	r3, [pc, #252]	; (545c <tcp_receive+0x2b0>)
    535e:	f000 003e 	and.w	r0, r0, #62	; 0x3e
    5362:	4798      	blx	r3
    5364:	f427 577c 	bic.w	r7, r7, #16128	; 0x3f00
    5368:	4307      	orrs	r7, r0
    536a:	f8a8 700c 	strh.w	r7, [r8, #12]
    536e:	8da3      	ldrh	r3, [r4, #44]	; 0x2c
    5370:	83ab      	strh	r3, [r5, #28]
    5372:	6a6b      	ldr	r3, [r5, #36]	; 0x24
    5374:	8998      	ldrh	r0, [r3, #12]
    5376:	47b0      	blx	r6
    5378:	0787      	lsls	r7, r0, #30
    537a:	bf48      	it	mi
    537c:	8bab      	ldrhmi	r3, [r5, #28]
    537e:	69a8      	ldr	r0, [r5, #24]
    5380:	bf44      	itt	mi
    5382:	f103 33ff 	addmi.w	r3, r3, #4294967295
    5386:	83ab      	strhmi	r3, [r5, #28]
    5388:	8ba9      	ldrh	r1, [r5, #28]
    538a:	4b35      	ldr	r3, [pc, #212]	; (5460 <tcp_receive+0x2b4>)
    538c:	4798      	blx	r3
    538e:	6a6b      	ldr	r3, [r5, #36]	; 0x24
    5390:	8baf      	ldrh	r7, [r5, #28]
    5392:	8998      	ldrh	r0, [r3, #12]
    5394:	47b0      	blx	r6
    5396:	f010 0003 	ands.w	r0, r0, #3
    539a:	bf18      	it	ne
    539c:	2001      	movne	r0, #1
    539e:	4407      	add	r7, r0
    53a0:	822f      	strh	r7, [r5, #16]
    53a2:	6f63      	ldr	r3, [r4, #116]	; 0x74
    53a4:	b16b      	cbz	r3, 53c2 <tcp_receive+0x216>
    53a6:	6a6b      	ldr	r3, [r5, #36]	; 0x24
    53a8:	8998      	ldrh	r0, [r3, #12]
    53aa:	47b0      	blx	r6
    53ac:	07c0      	lsls	r0, r0, #31
    53ae:	f140 81cc 	bpl.w	574a <tcp_receive+0x59e>
    53b2:	482c      	ldr	r0, [pc, #176]	; (5464 <tcp_receive+0x2b8>)
    53b4:	4b2c      	ldr	r3, [pc, #176]	; (5468 <tcp_receive+0x2bc>)
    53b6:	4f2d      	ldr	r7, [pc, #180]	; (546c <tcp_receive+0x2c0>)
    53b8:	4798      	blx	r3
    53ba:	6f60      	ldr	r0, [r4, #116]	; 0x74
    53bc:	2800      	cmp	r0, #0
    53be:	f040 81c0 	bne.w	5742 <tcp_receive+0x596>
    53c2:	8a29      	ldrh	r1, [r5, #16]
    53c4:	8da3      	ldrh	r3, [r4, #44]	; 0x2c
    53c6:	682a      	ldr	r2, [r5, #0]
    53c8:	4f29      	ldr	r7, [pc, #164]	; (5470 <tcp_receive+0x2c4>)
    53ca:	440a      	add	r2, r1
    53cc:	1a5b      	subs	r3, r3, r1
    53ce:	62a2      	str	r2, [r4, #40]	; 0x28
    53d0:	85a3      	strh	r3, [r4, #44]	; 0x2c
    53d2:	4620      	mov	r0, r4
    53d4:	47b8      	blx	r7
    53d6:	69ab      	ldr	r3, [r5, #24]
    53d8:	891a      	ldrh	r2, [r3, #8]
    53da:	46b8      	mov	r8, r7
    53dc:	b112      	cbz	r2, 53e4 <tcp_receive+0x238>
    53de:	62ab      	str	r3, [r5, #40]	; 0x28
    53e0:	2300      	movs	r3, #0
    53e2:	61ab      	str	r3, [r5, #24]
    53e4:	6a6b      	ldr	r3, [r5, #36]	; 0x24
    53e6:	8998      	ldrh	r0, [r3, #12]
    53e8:	47b0      	blx	r6
    53ea:	07c7      	lsls	r7, r0, #31
    53ec:	d508      	bpl.n	5400 <tcp_receive+0x254>
    53ee:	4b1e      	ldr	r3, [pc, #120]	; (5468 <tcp_receive+0x2bc>)
    53f0:	4820      	ldr	r0, [pc, #128]	; (5474 <tcp_receive+0x2c8>)
    53f2:	4798      	blx	r3
    53f4:	f895 302c 	ldrb.w	r3, [r5, #44]	; 0x2c
    53f8:	f043 0320 	orr.w	r3, r3, #32
    53fc:	f885 302c 	strb.w	r3, [r5, #44]	; 0x2c
    5400:	f8df 9078 	ldr.w	r9, [pc, #120]	; 547c <tcp_receive+0x2d0>
    5404:	f8df a078 	ldr.w	sl, [pc, #120]	; 5480 <tcp_receive+0x2d4>
    5408:	6f67      	ldr	r7, [r4, #116]	; 0x74
    540a:	b12f      	cbz	r7, 5418 <tcp_receive+0x26c>
    540c:	693a      	ldr	r2, [r7, #16]
    540e:	6aa1      	ldr	r1, [r4, #40]	; 0x28
    5410:	6853      	ldr	r3, [r2, #4]
    5412:	428b      	cmp	r3, r1
    5414:	f000 820e 	beq.w	5834 <tcp_receive+0x688>
    5418:	7fa3      	ldrb	r3, [r4, #30]
    541a:	07d9      	lsls	r1, r3, #31
    541c:	f140 8249 	bpl.w	58b2 <tcp_receive+0x706>
    5420:	f023 0301 	bic.w	r3, r3, #1
    5424:	f043 0302 	orr.w	r3, r3, #2
    5428:	e245      	b.n	58b6 <tcp_receive+0x70a>
    542a:	2800      	cmp	r0, #0
    542c:	f43f aef2 	beq.w	5214 <tcp_receive+0x68>
    5430:	2300      	movs	r3, #0
    5432:	e6ed      	b.n	5210 <tcp_receive+0x64>
    5434:	f47f af22 	bne.w	527c <tcp_receive+0xd0>
    5438:	4620      	mov	r0, r4
    543a:	4b0f      	ldr	r3, [pc, #60]	; (5478 <tcp_receive+0x2cc>)
    543c:	4798      	blx	r3
    543e:	e71d      	b.n	527c <tcp_receive+0xd0>
    5440:	20007eac 	.word	0x20007eac
    5444:	00008485 	.word	0x00008485
    5448:	000011fd 	.word	0x000011fd
    544c:	0000bc85 	.word	0x0000bc85
    5450:	00003f01 	.word	0x00003f01
    5454:	000011f3 	.word	0x000011f3
    5458:	0000bd32 	.word	0x0000bd32
    545c:	000011ed 	.word	0x000011ed
    5460:	000041b1 	.word	0x000041b1
    5464:	0000bd7f 	.word	0x0000bd7f
    5468:	00008595 	.word	0x00008595
    546c:	00004521 	.word	0x00004521
    5470:	00004493 	.word	0x00004493
    5474:	0000bdb7 	.word	0x0000bdb7
    5478:	00006bd1 	.word	0x00006bd1
    547c:	00004221 	.word	0x00004221
    5480:	0000bdd2 	.word	0x0000bdd2
    5484:	6d22      	ldr	r2, [r4, #80]	; 0x50
    5486:	1aba      	subs	r2, r7, r2
    5488:	2a00      	cmp	r2, #0
    548a:	f300 80b5 	bgt.w	55f8 <tcp_receive+0x44c>
    548e:	7fa2      	ldrb	r2, [r4, #30]
    5490:	64a7      	str	r7, [r4, #72]	; 0x48
    5492:	0750      	lsls	r0, r2, #29
    5494:	bf41      	itttt	mi
    5496:	f022 0204 	bicmi.w	r2, r2, #4
    549a:	77a2      	strbmi	r2, [r4, #30]
    549c:	f8b4 204e 	ldrhmi.w	r2, [r4, #78]	; 0x4e
    54a0:	f8a4 204c 	strhmi.w	r2, [r4, #76]	; 0x4c
    54a4:	f9b4 0040 	ldrsh.w	r0, [r4, #64]	; 0x40
    54a8:	f8b4 2042 	ldrh.w	r2, [r4, #66]	; 0x42
    54ac:	eb02 02e0 	add.w	r2, r2, r0, asr #3
    54b0:	f8a4 2044 	strh.w	r2, [r4, #68]	; 0x44
    54b4:	f8b4 2066 	ldrh.w	r2, [r4, #102]	; 0x66
    54b8:	b29b      	uxth	r3, r3
    54ba:	f8a4 3064 	strh.w	r3, [r4, #100]	; 0x64
    54be:	4413      	add	r3, r2
    54c0:	f8a4 3066 	strh.w	r3, [r4, #102]	; 0x66
    54c4:	7e23      	ldrb	r3, [r4, #24]
    54c6:	2100      	movs	r1, #0
    54c8:	2b03      	cmp	r3, #3
    54ca:	f884 1046 	strb.w	r1, [r4, #70]	; 0x46
    54ce:	f884 1047 	strb.w	r1, [r4, #71]	; 0x47
    54d2:	d90f      	bls.n	54f4 <tcp_receive+0x348>
    54d4:	f8b4 204c 	ldrh.w	r2, [r4, #76]	; 0x4c
    54d8:	f8b4 304e 	ldrh.w	r3, [r4, #78]	; 0x4e
    54dc:	4293      	cmp	r3, r2
    54de:	8ee3      	ldrh	r3, [r4, #54]	; 0x36
    54e0:	bf9c      	itt	ls
    54e2:	435b      	mulls	r3, r3
    54e4:	fb93 f3f2 	sdivls	r3, r3, r2
    54e8:	4413      	add	r3, r2
    54ea:	b29b      	uxth	r3, r3
    54ec:	429a      	cmp	r2, r3
    54ee:	bf38      	it	cc
    54f0:	f8a4 304c 	strhcc.w	r3, [r4, #76]	; 0x4c
    54f4:	6f22      	ldr	r2, [r4, #112]	; 0x70
    54f6:	b35a      	cbz	r2, 5550 <tcp_receive+0x3a4>
    54f8:	6913      	ldr	r3, [r2, #16]
    54fa:	6858      	ldr	r0, [r3, #4]
    54fc:	4bac      	ldr	r3, [pc, #688]	; (57b0 <tcp_receive+0x604>)
    54fe:	4798      	blx	r3
    5500:	4680      	mov	r8, r0
    5502:	6f23      	ldr	r3, [r4, #112]	; 0x70
    5504:	b193      	cbz	r3, 552c <tcp_receive+0x380>
    5506:	691b      	ldr	r3, [r3, #16]
    5508:	6858      	ldr	r0, [r3, #4]
    550a:	4ba9      	ldr	r3, [pc, #676]	; (57b0 <tcp_receive+0x604>)
    550c:	4798      	blx	r3
    550e:	6f22      	ldr	r2, [r4, #112]	; 0x70
    5510:	6913      	ldr	r3, [r2, #16]
    5512:	f8b2 a008 	ldrh.w	sl, [r2, #8]
    5516:	4681      	mov	r9, r0
    5518:	8998      	ldrh	r0, [r3, #12]
    551a:	4ba6      	ldr	r3, [pc, #664]	; (57b4 <tcp_receive+0x608>)
    551c:	4798      	blx	r3
    551e:	f010 0003 	ands.w	r0, r0, #3
    5522:	bf18      	it	ne
    5524:	2001      	movne	r0, #1
    5526:	eb00 030a 	add.w	r3, r0, sl
    552a:	444b      	add	r3, r9
    552c:	4642      	mov	r2, r8
    552e:	4639      	mov	r1, r7
    5530:	48a1      	ldr	r0, [pc, #644]	; (57b8 <tcp_receive+0x60c>)
    5532:	f8df 827c 	ldr.w	r8, [pc, #636]	; 57b0 <tcp_receive+0x604>
    5536:	4f9f      	ldr	r7, [pc, #636]	; (57b4 <tcp_receive+0x608>)
    5538:	47b0      	blx	r6
    553a:	6f23      	ldr	r3, [r4, #112]	; 0x70
    553c:	b953      	cbnz	r3, 5554 <tcp_receive+0x3a8>
    553e:	6f22      	ldr	r2, [r4, #112]	; 0x70
    5540:	2300      	movs	r3, #0
    5542:	2a00      	cmp	r2, #0
    5544:	d156      	bne.n	55f4 <tcp_receive+0x448>
    5546:	f64f 72ff 	movw	r2, #65535	; 0xffff
    554a:	86a2      	strh	r2, [r4, #52]	; 0x34
    554c:	77e3      	strb	r3, [r4, #31]
    554e:	e695      	b.n	527c <tcp_receive+0xd0>
    5550:	4690      	mov	r8, r2
    5552:	e7d6      	b.n	5502 <tcp_receive+0x356>
    5554:	691b      	ldr	r3, [r3, #16]
    5556:	6858      	ldr	r0, [r3, #4]
    5558:	47c0      	blx	r8
    555a:	6f23      	ldr	r3, [r4, #112]	; 0x70
    555c:	f8b3 b008 	ldrh.w	fp, [r3, #8]
    5560:	691b      	ldr	r3, [r3, #16]
    5562:	4682      	mov	sl, r0
    5564:	8998      	ldrh	r0, [r3, #12]
    5566:	47b8      	blx	r7
    5568:	68ab      	ldr	r3, [r5, #8]
    556a:	f010 0003 	ands.w	r0, r0, #3
    556e:	bf18      	it	ne
    5570:	2001      	movne	r0, #1
    5572:	4458      	add	r0, fp
    5574:	ebaa 0303 	sub.w	r3, sl, r3
    5578:	4418      	add	r0, r3
    557a:	2800      	cmp	r0, #0
    557c:	dcdf      	bgt.n	553e <tcp_receive+0x392>
    557e:	6f23      	ldr	r3, [r4, #112]	; 0x70
    5580:	691b      	ldr	r3, [r3, #16]
    5582:	6858      	ldr	r0, [r3, #4]
    5584:	47c0      	blx	r8
    5586:	6f23      	ldr	r3, [r4, #112]	; 0x70
    5588:	691b      	ldr	r3, [r3, #16]
    558a:	4682      	mov	sl, r0
    558c:	6858      	ldr	r0, [r3, #4]
    558e:	47c0      	blx	r8
    5590:	6f23      	ldr	r3, [r4, #112]	; 0x70
    5592:	f8b3 9008 	ldrh.w	r9, [r3, #8]
    5596:	691b      	ldr	r3, [r3, #16]
    5598:	4683      	mov	fp, r0
    559a:	8998      	ldrh	r0, [r3, #12]
    559c:	47b8      	blx	r7
    559e:	f010 0003 	ands.w	r0, r0, #3
    55a2:	bf18      	it	ne
    55a4:	2001      	movne	r0, #1
    55a6:	eb00 0209 	add.w	r2, r0, r9
    55aa:	4651      	mov	r1, sl
    55ac:	445a      	add	r2, fp
    55ae:	4883      	ldr	r0, [pc, #524]	; (57bc <tcp_receive+0x610>)
    55b0:	47b0      	blx	r6
    55b2:	f8d4 a070 	ldr.w	sl, [r4, #112]	; 0x70
    55b6:	f8da 3000 	ldr.w	r3, [sl]
    55ba:	6723      	str	r3, [r4, #112]	; 0x70
    55bc:	f8b4 3064 	ldrh.w	r3, [r4, #100]	; 0x64
    55c0:	b15b      	cbz	r3, 55da <tcp_receive+0x42e>
    55c2:	f8da 3010 	ldr.w	r3, [sl, #16]
    55c6:	8998      	ldrh	r0, [r3, #12]
    55c8:	47b8      	blx	r7
    55ca:	07c1      	lsls	r1, r0, #31
    55cc:	bf42      	ittt	mi
    55ce:	f8b4 3064 	ldrhmi.w	r3, [r4, #100]	; 0x64
    55d2:	f103 33ff 	addmi.w	r3, r3, #4294967295
    55d6:	f8a4 3064 	strhmi.w	r3, [r4, #100]	; 0x64
    55da:	f8da 0004 	ldr.w	r0, [sl, #4]
    55de:	4b78      	ldr	r3, [pc, #480]	; (57c0 <tcp_receive+0x614>)
    55e0:	4798      	blx	r3
    55e2:	f8b4 3068 	ldrh.w	r3, [r4, #104]	; 0x68
    55e6:	1a18      	subs	r0, r3, r0
    55e8:	f8a4 0068 	strh.w	r0, [r4, #104]	; 0x68
    55ec:	4b75      	ldr	r3, [pc, #468]	; (57c4 <tcp_receive+0x618>)
    55ee:	4650      	mov	r0, sl
    55f0:	4798      	blx	r3
    55f2:	e7a2      	b.n	553a <tcp_receive+0x38e>
    55f4:	86a3      	strh	r3, [r4, #52]	; 0x34
    55f6:	e7a9      	b.n	554c <tcp_receive+0x3a0>
    55f8:	2300      	movs	r3, #0
    55fa:	f8a4 3064 	strh.w	r3, [r4, #100]	; 0x64
    55fe:	e63d      	b.n	527c <tcp_receive+0xd0>
    5600:	691b      	ldr	r3, [r3, #16]
    5602:	f8d5 9008 	ldr.w	r9, [r5, #8]
    5606:	6858      	ldr	r0, [r3, #4]
    5608:	47b8      	blx	r7
    560a:	6ee2      	ldr	r2, [r4, #108]	; 0x6c
    560c:	6913      	ldr	r3, [r2, #16]
    560e:	f8b2 a008 	ldrh.w	sl, [r2, #8]
    5612:	4683      	mov	fp, r0
    5614:	8998      	ldrh	r0, [r3, #12]
    5616:	47c0      	blx	r8
    5618:	f010 0003 	ands.w	r0, r0, #3
    561c:	bf18      	it	ne
    561e:	2001      	movne	r0, #1
    5620:	eba9 030b 	sub.w	r3, r9, fp
    5624:	4450      	add	r0, sl
    5626:	1a1b      	subs	r3, r3, r0
    5628:	2b00      	cmp	r3, #0
    562a:	f6ff ae2e 	blt.w	528a <tcp_receive+0xde>
    562e:	68ab      	ldr	r3, [r5, #8]
    5630:	6d22      	ldr	r2, [r4, #80]	; 0x50
    5632:	1a9b      	subs	r3, r3, r2
    5634:	2b00      	cmp	r3, #0
    5636:	f73f ae28 	bgt.w	528a <tcp_receive+0xde>
    563a:	6ee3      	ldr	r3, [r4, #108]	; 0x6c
    563c:	691b      	ldr	r3, [r3, #16]
    563e:	6858      	ldr	r0, [r3, #4]
    5640:	47b8      	blx	r7
    5642:	6ee3      	ldr	r3, [r4, #108]	; 0x6c
    5644:	691b      	ldr	r3, [r3, #16]
    5646:	4681      	mov	r9, r0
    5648:	6858      	ldr	r0, [r3, #4]
    564a:	47b8      	blx	r7
    564c:	6ee3      	ldr	r3, [r4, #108]	; 0x6c
    564e:	f8b3 b008 	ldrh.w	fp, [r3, #8]
    5652:	691b      	ldr	r3, [r3, #16]
    5654:	4682      	mov	sl, r0
    5656:	8998      	ldrh	r0, [r3, #12]
    5658:	47c0      	blx	r8
    565a:	f010 0003 	ands.w	r0, r0, #3
    565e:	bf18      	it	ne
    5660:	2001      	movne	r0, #1
    5662:	4458      	add	r0, fp
    5664:	eb00 020a 	add.w	r2, r0, sl
    5668:	4649      	mov	r1, r9
    566a:	4857      	ldr	r0, [pc, #348]	; (57c8 <tcp_receive+0x61c>)
    566c:	47b0      	blx	r6
    566e:	f8d4 906c 	ldr.w	r9, [r4, #108]	; 0x6c
    5672:	f8d9 3000 	ldr.w	r3, [r9]
    5676:	66e3      	str	r3, [r4, #108]	; 0x6c
    5678:	b90b      	cbnz	r3, 567e <tcp_receive+0x4d2>
    567a:	f8a4 306a 	strh.w	r3, [r4, #106]	; 0x6a
    567e:	f8b4 3064 	ldrh.w	r3, [r4, #100]	; 0x64
    5682:	b15b      	cbz	r3, 569c <tcp_receive+0x4f0>
    5684:	f8d9 3010 	ldr.w	r3, [r9, #16]
    5688:	8998      	ldrh	r0, [r3, #12]
    568a:	47c0      	blx	r8
    568c:	07c2      	lsls	r2, r0, #31
    568e:	bf42      	ittt	mi
    5690:	f8b4 3064 	ldrhmi.w	r3, [r4, #100]	; 0x64
    5694:	f103 33ff 	addmi.w	r3, r3, #4294967295
    5698:	f8a4 3064 	strhmi.w	r3, [r4, #100]	; 0x64
    569c:	f8d9 0004 	ldr.w	r0, [r9, #4]
    56a0:	4b47      	ldr	r3, [pc, #284]	; (57c0 <tcp_receive+0x614>)
    56a2:	4798      	blx	r3
    56a4:	f8b4 3068 	ldrh.w	r3, [r4, #104]	; 0x68
    56a8:	1a18      	subs	r0, r3, r0
    56aa:	f8a4 0068 	strh.w	r0, [r4, #104]	; 0x68
    56ae:	4b45      	ldr	r3, [pc, #276]	; (57c4 <tcp_receive+0x618>)
    56b0:	4648      	mov	r0, r9
    56b2:	4798      	blx	r3
    56b4:	e5e5      	b.n	5282 <tcp_receive+0xd6>
    56b6:	6be3      	ldr	r3, [r4, #60]	; 0x3c
    56b8:	68a9      	ldr	r1, [r5, #8]
    56ba:	1a5b      	subs	r3, r3, r1
    56bc:	2b00      	cmp	r3, #0
    56be:	f6bf aded 	bge.w	529c <tcp_receive+0xf0>
    56c2:	4b42      	ldr	r3, [pc, #264]	; (57cc <tcp_receive+0x620>)
    56c4:	4842      	ldr	r0, [pc, #264]	; (57d0 <tcp_receive+0x624>)
    56c6:	681f      	ldr	r7, [r3, #0]
    56c8:	1abf      	subs	r7, r7, r2
    56ca:	b2bf      	uxth	r7, r7
    56cc:	b239      	sxth	r1, r7
    56ce:	f44f 72fa 	mov.w	r2, #500	; 0x1f4
    56d2:	434a      	muls	r2, r1
    56d4:	47b0      	blx	r6
    56d6:	f9b4 0040 	ldrsh.w	r0, [r4, #64]	; 0x40
    56da:	f9b4 3042 	ldrsh.w	r3, [r4, #66]	; 0x42
    56de:	eba7 02e0 	sub.w	r2, r7, r0, asr #3
    56e2:	b292      	uxth	r2, r2
    56e4:	b211      	sxth	r1, r2
    56e6:	2900      	cmp	r1, #0
    56e8:	4410      	add	r0, r2
    56ea:	bfbc      	itt	lt
    56ec:	4252      	neglt	r2, r2
    56ee:	b211      	sxthlt	r1, r2
    56f0:	eba3 03a3 	sub.w	r3, r3, r3, asr #2
    56f4:	4419      	add	r1, r3
    56f6:	b200      	sxth	r0, r0
    56f8:	b289      	uxth	r1, r1
    56fa:	f8a4 1042 	strh.w	r1, [r4, #66]	; 0x42
    56fe:	eb01 01e0 	add.w	r1, r1, r0, asr #3
    5702:	b209      	sxth	r1, r1
    5704:	f44f 72fa 	mov.w	r2, #500	; 0x1f4
    5708:	f8a4 0040 	strh.w	r0, [r4, #64]	; 0x40
    570c:	f8a4 1044 	strh.w	r1, [r4, #68]	; 0x44
    5710:	434a      	muls	r2, r1
    5712:	4830      	ldr	r0, [pc, #192]	; (57d4 <tcp_receive+0x628>)
    5714:	47b0      	blx	r6
    5716:	2300      	movs	r3, #0
    5718:	63a3      	str	r3, [r4, #56]	; 0x38
    571a:	e5bf      	b.n	529c <tcp_receive+0xf0>
    571c:	8103      	strh	r3, [r0, #8]
    571e:	8146      	strh	r6, [r0, #10]
    5720:	1a89      	subs	r1, r1, r2
    5722:	6800      	ldr	r0, [r0, #0]
    5724:	e5d9      	b.n	52da <tcp_receive+0x12e>
    5726:	4259      	negs	r1, r3
    5728:	e5dc      	b.n	52e4 <tcp_receive+0x138>
    572a:	1a8b      	subs	r3, r1, r2
    572c:	2b00      	cmp	r3, #0
    572e:	f6bf ade5 	bge.w	52fc <tcp_receive+0x150>
    5732:	4b29      	ldr	r3, [pc, #164]	; (57d8 <tcp_receive+0x62c>)
    5734:	4829      	ldr	r0, [pc, #164]	; (57dc <tcp_receive+0x630>)
    5736:	4798      	blx	r3
    5738:	7fa3      	ldrb	r3, [r4, #30]
    573a:	f043 0302 	orr.w	r3, r3, #2
    573e:	77a3      	strb	r3, [r4, #30]
    5740:	e5dc      	b.n	52fc <tcp_receive+0x150>
    5742:	6803      	ldr	r3, [r0, #0]
    5744:	6763      	str	r3, [r4, #116]	; 0x74
    5746:	47b8      	blx	r7
    5748:	e637      	b.n	53ba <tcp_receive+0x20e>
    574a:	6f67      	ldr	r7, [r4, #116]	; 0x74
    574c:	f8df 8094 	ldr.w	r8, [pc, #148]	; 57e4 <tcp_receive+0x638>
    5750:	f8df 9070 	ldr.w	r9, [pc, #112]	; 57c4 <tcp_receive+0x618>
    5754:	b357      	cbz	r7, 57ac <tcp_receive+0x600>
    5756:	f8d7 e010 	ldr.w	lr, [r7, #16]
    575a:	6828      	ldr	r0, [r5, #0]
    575c:	8a2b      	ldrh	r3, [r5, #16]
    575e:	f8de 2004 	ldr.w	r2, [lr, #4]
    5762:	8939      	ldrh	r1, [r7, #8]
    5764:	4403      	add	r3, r0
    5766:	4411      	add	r1, r2
    5768:	1a59      	subs	r1, r3, r1
    576a:	2900      	cmp	r1, #0
    576c:	da3c      	bge.n	57e8 <tcp_receive+0x63c>
    576e:	1a9b      	subs	r3, r3, r2
    5770:	2b00      	cmp	r3, #0
    5772:	dd1b      	ble.n	57ac <tcp_receive+0x600>
    5774:	6a6b      	ldr	r3, [r5, #36]	; 0x24
    5776:	1a12      	subs	r2, r2, r0
    5778:	83aa      	strh	r2, [r5, #28]
    577a:	8998      	ldrh	r0, [r3, #12]
    577c:	47b0      	blx	r6
    577e:	0783      	lsls	r3, r0, #30
    5780:	bf48      	it	mi
    5782:	8bab      	ldrhmi	r3, [r5, #28]
    5784:	69a8      	ldr	r0, [r5, #24]
    5786:	bf44      	itt	mi
    5788:	f103 33ff 	addmi.w	r3, r3, #4294967295
    578c:	83ab      	strhmi	r3, [r5, #28]
    578e:	8ba9      	ldrh	r1, [r5, #28]
    5790:	4b13      	ldr	r3, [pc, #76]	; (57e0 <tcp_receive+0x634>)
    5792:	4798      	blx	r3
    5794:	6a6b      	ldr	r3, [r5, #36]	; 0x24
    5796:	f8b5 801c 	ldrh.w	r8, [r5, #28]
    579a:	8998      	ldrh	r0, [r3, #12]
    579c:	47b0      	blx	r6
    579e:	f010 0003 	ands.w	r0, r0, #3
    57a2:	bf18      	it	ne
    57a4:	2001      	movne	r0, #1
    57a6:	4480      	add	r8, r0
    57a8:	f8a5 8010 	strh.w	r8, [r5, #16]
    57ac:	6767      	str	r7, [r4, #116]	; 0x74
    57ae:	e608      	b.n	53c2 <tcp_receive+0x216>
    57b0:	000011fd 	.word	0x000011fd
    57b4:	000011f3 	.word	0x000011f3
    57b8:	0000bbf9 	.word	0x0000bbf9
    57bc:	0000bc28 	.word	0x0000bc28
    57c0:	00004205 	.word	0x00004205
    57c4:	00004521 	.word	0x00004521
    57c8:	0000bc57 	.word	0x0000bc57
    57cc:	20009090 	.word	0x20009090
    57d0:	0000bcb4 	.word	0x0000bcb4
    57d4:	0000bce8 	.word	0x0000bce8
    57d8:	00008485 	.word	0x00008485
    57dc:	0000bd11 	.word	0x0000bd11
    57e0:	000041b1 	.word	0x000041b1
    57e4:	000011ed 	.word	0x000011ed
    57e8:	f8be 000c 	ldrh.w	r0, [lr, #12]
    57ec:	47b0      	blx	r6
    57ee:	07c1      	lsls	r1, r0, #31
    57f0:	d51a      	bpl.n	5828 <tcp_receive+0x67c>
    57f2:	6a6b      	ldr	r3, [r5, #36]	; 0x24
    57f4:	8998      	ldrh	r0, [r3, #12]
    57f6:	47b0      	blx	r6
    57f8:	0782      	lsls	r2, r0, #30
    57fa:	d415      	bmi.n	5828 <tcp_receive+0x67c>
    57fc:	f8d5 b024 	ldr.w	fp, [r5, #36]	; 0x24
    5800:	2001      	movs	r0, #1
    5802:	f8bb a00c 	ldrh.w	sl, [fp, #12]
    5806:	47c0      	blx	r8
    5808:	6a6b      	ldr	r3, [r5, #36]	; 0x24
    580a:	ea4a 0000 	orr.w	r0, sl, r0
    580e:	f8ab 000c 	strh.w	r0, [fp, #12]
    5812:	8998      	ldrh	r0, [r3, #12]
    5814:	f8b5 a01c 	ldrh.w	sl, [r5, #28]
    5818:	47b0      	blx	r6
    581a:	f010 0003 	ands.w	r0, r0, #3
    581e:	bf18      	it	ne
    5820:	2001      	movne	r0, #1
    5822:	4482      	add	sl, r0
    5824:	f8a5 a010 	strh.w	sl, [r5, #16]
    5828:	f8d7 a000 	ldr.w	sl, [r7]
    582c:	4638      	mov	r0, r7
    582e:	47c8      	blx	r9
    5830:	4657      	mov	r7, sl
    5832:	e78f      	b.n	5754 <tcp_receive+0x5a8>
    5834:	602b      	str	r3, [r5, #0]
    5836:	8990      	ldrh	r0, [r2, #12]
    5838:	f8b7 b008 	ldrh.w	fp, [r7, #8]
    583c:	47b0      	blx	r6
    583e:	f010 0003 	ands.w	r0, r0, #3
    5842:	6aa3      	ldr	r3, [r4, #40]	; 0x28
    5844:	693a      	ldr	r2, [r7, #16]
    5846:	bf18      	it	ne
    5848:	2001      	movne	r0, #1
    584a:	4458      	add	r0, fp
    584c:	4418      	add	r0, r3
    584e:	62a0      	str	r0, [r4, #40]	; 0x28
    5850:	8990      	ldrh	r0, [r2, #12]
    5852:	f8b7 b008 	ldrh.w	fp, [r7, #8]
    5856:	47b0      	blx	r6
    5858:	f010 0003 	ands.w	r0, r0, #3
    585c:	8da3      	ldrh	r3, [r4, #44]	; 0x2c
    585e:	bf18      	it	ne
    5860:	2001      	movne	r0, #1
    5862:	4458      	add	r0, fp
    5864:	1a18      	subs	r0, r3, r0
    5866:	85a0      	strh	r0, [r4, #44]	; 0x2c
    5868:	4620      	mov	r0, r4
    586a:	47c0      	blx	r8
    586c:	6879      	ldr	r1, [r7, #4]
    586e:	890b      	ldrh	r3, [r1, #8]
    5870:	b123      	cbz	r3, 587c <tcp_receive+0x6d0>
    5872:	6aa8      	ldr	r0, [r5, #40]	; 0x28
    5874:	b1d8      	cbz	r0, 58ae <tcp_receive+0x702>
    5876:	47c8      	blx	r9
    5878:	2300      	movs	r3, #0
    587a:	607b      	str	r3, [r7, #4]
    587c:	693b      	ldr	r3, [r7, #16]
    587e:	8998      	ldrh	r0, [r3, #12]
    5880:	47b0      	blx	r6
    5882:	07c0      	lsls	r0, r0, #31
    5884:	d50d      	bpl.n	58a2 <tcp_receive+0x6f6>
    5886:	4b72      	ldr	r3, [pc, #456]	; (5a50 <tcp_receive+0x8a4>)
    5888:	4650      	mov	r0, sl
    588a:	4798      	blx	r3
    588c:	f895 302c 	ldrb.w	r3, [r5, #44]	; 0x2c
    5890:	f043 0320 	orr.w	r3, r3, #32
    5894:	f885 302c 	strb.w	r3, [r5, #44]	; 0x2c
    5898:	7e23      	ldrb	r3, [r4, #24]
    589a:	2b04      	cmp	r3, #4
    589c:	bf04      	itt	eq
    589e:	2307      	moveq	r3, #7
    58a0:	7623      	strbeq	r3, [r4, #24]
    58a2:	683b      	ldr	r3, [r7, #0]
    58a4:	6763      	str	r3, [r4, #116]	; 0x74
    58a6:	4638      	mov	r0, r7
    58a8:	4b6a      	ldr	r3, [pc, #424]	; (5a54 <tcp_receive+0x8a8>)
    58aa:	4798      	blx	r3
    58ac:	e5ac      	b.n	5408 <tcp_receive+0x25c>
    58ae:	62a9      	str	r1, [r5, #40]	; 0x28
    58b0:	e7e2      	b.n	5878 <tcp_receive+0x6cc>
    58b2:	f043 0301 	orr.w	r3, r3, #1
    58b6:	77a3      	strb	r3, [r4, #30]
    58b8:	b001      	add	sp, #4
    58ba:	e8bd 8ff0 	ldmia.w	sp!, {r4, r5, r6, r7, r8, r9, sl, fp, pc}
    58be:	4620      	mov	r0, r4
    58c0:	4b65      	ldr	r3, [pc, #404]	; (5a58 <tcp_receive+0x8ac>)
    58c2:	4798      	blx	r3
    58c4:	6f66      	ldr	r6, [r4, #116]	; 0x74
    58c6:	b926      	cbnz	r6, 58d2 <tcp_receive+0x726>
    58c8:	4864      	ldr	r0, [pc, #400]	; (5a5c <tcp_receive+0x8b0>)
    58ca:	4b65      	ldr	r3, [pc, #404]	; (5a60 <tcp_receive+0x8b4>)
    58cc:	4798      	blx	r3
    58ce:	6760      	str	r0, [r4, #116]	; 0x74
    58d0:	e7f2      	b.n	58b8 <tcp_receive+0x70c>
    58d2:	682b      	ldr	r3, [r5, #0]
    58d4:	2700      	movs	r7, #0
    58d6:	f103 3eff 	add.w	lr, r3, #4294967295
    58da:	f103 0c01 	add.w	ip, r3, #1
    58de:	6930      	ldr	r0, [r6, #16]
    58e0:	6841      	ldr	r1, [r0, #4]
    58e2:	4299      	cmp	r1, r3
    58e4:	d114      	bne.n	5910 <tcp_receive+0x764>
    58e6:	8baa      	ldrh	r2, [r5, #28]
    58e8:	8933      	ldrh	r3, [r6, #8]
    58ea:	429a      	cmp	r2, r3
    58ec:	d9e4      	bls.n	58b8 <tcp_receive+0x70c>
    58ee:	485b      	ldr	r0, [pc, #364]	; (5a5c <tcp_receive+0x8b0>)
    58f0:	4b5b      	ldr	r3, [pc, #364]	; (5a60 <tcp_receive+0x8b4>)
    58f2:	4798      	blx	r3
    58f4:	2800      	cmp	r0, #0
    58f6:	d0df      	beq.n	58b8 <tcp_receive+0x70c>
    58f8:	b147      	cbz	r7, 590c <tcp_receive+0x760>
    58fa:	6038      	str	r0, [r7, #0]
    58fc:	4631      	mov	r1, r6
    58fe:	4b59      	ldr	r3, [pc, #356]	; (5a64 <tcp_receive+0x8b8>)
    5900:	b001      	add	sp, #4
    5902:	e8bd 4ff0 	ldmia.w	sp!, {r4, r5, r6, r7, r8, r9, sl, fp, lr}
    5906:	4718      	bx	r3
    5908:	4616      	mov	r6, r2
    590a:	e7e8      	b.n	58de <tcp_receive+0x732>
    590c:	6760      	str	r0, [r4, #116]	; 0x74
    590e:	e7f5      	b.n	58fc <tcp_receive+0x750>
    5910:	b94f      	cbnz	r7, 5926 <tcp_receive+0x77a>
    5912:	1a5a      	subs	r2, r3, r1
    5914:	2a00      	cmp	r2, #0
    5916:	da28      	bge.n	596a <tcp_receive+0x7be>
    5918:	4850      	ldr	r0, [pc, #320]	; (5a5c <tcp_receive+0x8b0>)
    591a:	4b51      	ldr	r3, [pc, #324]	; (5a60 <tcp_receive+0x8b4>)
    591c:	4798      	blx	r3
    591e:	2800      	cmp	r0, #0
    5920:	d0ca      	beq.n	58b8 <tcp_receive+0x70c>
    5922:	6760      	str	r0, [r4, #116]	; 0x74
    5924:	e7ea      	b.n	58fc <tcp_receive+0x750>
    5926:	693a      	ldr	r2, [r7, #16]
    5928:	6852      	ldr	r2, [r2, #4]
    592a:	ebae 0202 	sub.w	r2, lr, r2
    592e:	2a00      	cmp	r2, #0
    5930:	db1b      	blt.n	596a <tcp_receive+0x7be>
    5932:	ebac 0201 	sub.w	r2, ip, r1
    5936:	2a00      	cmp	r2, #0
    5938:	dc17      	bgt.n	596a <tcp_receive+0x7be>
    593a:	4848      	ldr	r0, [pc, #288]	; (5a5c <tcp_receive+0x8b0>)
    593c:	4b48      	ldr	r3, [pc, #288]	; (5a60 <tcp_receive+0x8b4>)
    593e:	4798      	blx	r3
    5940:	4604      	mov	r4, r0
    5942:	2800      	cmp	r0, #0
    5944:	d0b8      	beq.n	58b8 <tcp_receive+0x70c>
    5946:	693b      	ldr	r3, [r7, #16]
    5948:	6829      	ldr	r1, [r5, #0]
    594a:	685a      	ldr	r2, [r3, #4]
    594c:	893b      	ldrh	r3, [r7, #8]
    594e:	4413      	add	r3, r2
    5950:	1a5b      	subs	r3, r3, r1
    5952:	2b00      	cmp	r3, #0
    5954:	dd05      	ble.n	5962 <tcp_receive+0x7b6>
    5956:	1a89      	subs	r1, r1, r2
    5958:	b289      	uxth	r1, r1
    595a:	8139      	strh	r1, [r7, #8]
    595c:	6878      	ldr	r0, [r7, #4]
    595e:	4b42      	ldr	r3, [pc, #264]	; (5a68 <tcp_receive+0x8bc>)
    5960:	4798      	blx	r3
    5962:	603c      	str	r4, [r7, #0]
    5964:	4631      	mov	r1, r6
    5966:	4620      	mov	r0, r4
    5968:	e7c9      	b.n	58fe <tcp_receive+0x752>
    596a:	6832      	ldr	r2, [r6, #0]
    596c:	4637      	mov	r7, r6
    596e:	2a00      	cmp	r2, #0
    5970:	d1ca      	bne.n	5908 <tcp_receive+0x75c>
    5972:	1a5b      	subs	r3, r3, r1
    5974:	2b00      	cmp	r3, #0
    5976:	dd9f      	ble.n	58b8 <tcp_receive+0x70c>
    5978:	8980      	ldrh	r0, [r0, #12]
    597a:	4f3c      	ldr	r7, [pc, #240]	; (5a6c <tcp_receive+0x8c0>)
    597c:	47b8      	blx	r7
    597e:	07c2      	lsls	r2, r0, #31
    5980:	d49a      	bmi.n	58b8 <tcp_receive+0x70c>
    5982:	4836      	ldr	r0, [pc, #216]	; (5a5c <tcp_receive+0x8b0>)
    5984:	4b36      	ldr	r3, [pc, #216]	; (5a60 <tcp_receive+0x8b4>)
    5986:	4798      	blx	r3
    5988:	6030      	str	r0, [r6, #0]
    598a:	2800      	cmp	r0, #0
    598c:	d094      	beq.n	58b8 <tcp_receive+0x70c>
    598e:	6933      	ldr	r3, [r6, #16]
    5990:	6829      	ldr	r1, [r5, #0]
    5992:	685a      	ldr	r2, [r3, #4]
    5994:	8933      	ldrh	r3, [r6, #8]
    5996:	4413      	add	r3, r2
    5998:	1a5b      	subs	r3, r3, r1
    599a:	2b00      	cmp	r3, #0
    599c:	dd05      	ble.n	59aa <tcp_receive+0x7fe>
    599e:	1a89      	subs	r1, r1, r2
    59a0:	b289      	uxth	r1, r1
    59a2:	8131      	strh	r1, [r6, #8]
    59a4:	6870      	ldr	r0, [r6, #4]
    59a6:	4b30      	ldr	r3, [pc, #192]	; (5a68 <tcp_receive+0x8bc>)
    59a8:	4798      	blx	r3
    59aa:	6aa0      	ldr	r0, [r4, #40]	; 0x28
    59ac:	8a2a      	ldrh	r2, [r5, #16]
    59ae:	6829      	ldr	r1, [r5, #0]
    59b0:	8da3      	ldrh	r3, [r4, #44]	; 0x2c
    59b2:	4403      	add	r3, r0
    59b4:	1850      	adds	r0, r2, r1
    59b6:	4298      	cmp	r0, r3
    59b8:	f67f af7e 	bls.w	58b8 <tcp_receive+0x70c>
    59bc:	482c      	ldr	r0, [pc, #176]	; (5a70 <tcp_receive+0x8c4>)
    59be:	f8df 80b8 	ldr.w	r8, [pc, #184]	; 5a78 <tcp_receive+0x8cc>
    59c2:	47c0      	blx	r8
    59c4:	6833      	ldr	r3, [r6, #0]
    59c6:	691b      	ldr	r3, [r3, #16]
    59c8:	8998      	ldrh	r0, [r3, #12]
    59ca:	47b8      	blx	r7
    59cc:	07c3      	lsls	r3, r0, #31
    59ce:	d510      	bpl.n	59f2 <tcp_receive+0x846>
    59d0:	6833      	ldr	r3, [r6, #0]
    59d2:	f8d3 9010 	ldr.w	r9, [r3, #16]
    59d6:	f8b9 800c 	ldrh.w	r8, [r9, #12]
    59da:	4640      	mov	r0, r8
    59dc:	47b8      	blx	r7
    59de:	4b25      	ldr	r3, [pc, #148]	; (5a74 <tcp_receive+0x8c8>)
    59e0:	f000 003e 	and.w	r0, r0, #62	; 0x3e
    59e4:	4798      	blx	r3
    59e6:	f428 587c 	bic.w	r8, r8, #16128	; 0x3f00
    59ea:	ea48 0800 	orr.w	r8, r8, r0
    59ee:	f8a9 800c 	strh.w	r8, [r9, #12]
    59f2:	8da1      	ldrh	r1, [r4, #44]	; 0x2c
    59f4:	682a      	ldr	r2, [r5, #0]
    59f6:	6833      	ldr	r3, [r6, #0]
    59f8:	1a89      	subs	r1, r1, r2
    59fa:	6aa2      	ldr	r2, [r4, #40]	; 0x28
    59fc:	6858      	ldr	r0, [r3, #4]
    59fe:	4411      	add	r1, r2
    5a00:	b289      	uxth	r1, r1
    5a02:	8119      	strh	r1, [r3, #8]
    5a04:	4b18      	ldr	r3, [pc, #96]	; (5a68 <tcp_receive+0x8bc>)
    5a06:	4798      	blx	r3
    5a08:	6833      	ldr	r3, [r6, #0]
    5a0a:	891c      	ldrh	r4, [r3, #8]
    5a0c:	691b      	ldr	r3, [r3, #16]
    5a0e:	8998      	ldrh	r0, [r3, #12]
    5a10:	47b8      	blx	r7
    5a12:	f010 0003 	ands.w	r0, r0, #3
    5a16:	bf18      	it	ne
    5a18:	2001      	movne	r0, #1
    5a1a:	4404      	add	r4, r0
    5a1c:	822c      	strh	r4, [r5, #16]
    5a1e:	e74b      	b.n	58b8 <tcp_receive+0x70c>
    5a20:	4b0d      	ldr	r3, [pc, #52]	; (5a58 <tcp_receive+0x8ac>)
    5a22:	4620      	mov	r0, r4
    5a24:	b001      	add	sp, #4
    5a26:	e8bd 4ff0 	ldmia.w	sp!, {r4, r5, r6, r7, r8, r9, sl, fp, lr}
    5a2a:	4718      	bx	r3
    5a2c:	682b      	ldr	r3, [r5, #0]
    5a2e:	1a99      	subs	r1, r3, r2
    5a30:	2900      	cmp	r1, #0
    5a32:	db06      	blt.n	5a42 <tcp_receive+0x896>
    5a34:	3301      	adds	r3, #1
    5a36:	1a9b      	subs	r3, r3, r2
    5a38:	8da2      	ldrh	r2, [r4, #44]	; 0x2c
    5a3a:	1a9b      	subs	r3, r3, r2
    5a3c:	2b00      	cmp	r3, #0
    5a3e:	f77f af3b 	ble.w	58b8 <tcp_receive+0x70c>
    5a42:	7fa3      	ldrb	r3, [r4, #30]
    5a44:	e4ee      	b.n	5424 <tcp_receive+0x278>
    5a46:	2300      	movs	r3, #0
    5a48:	f884 3047 	strb.w	r3, [r4, #71]	; 0x47
    5a4c:	e416      	b.n	527c <tcp_receive+0xd0>
    5a4e:	bf00      	nop
    5a50:	00008595 	.word	0x00008595
    5a54:	00004521 	.word	0x00004521
    5a58:	00006725 	.word	0x00006725
    5a5c:	20007ec0 	.word	0x20007ec0
    5a60:	0000455d 	.word	0x0000455d
    5a64:	00005111 	.word	0x00005111
    5a68:	000041b1 	.word	0x000041b1
    5a6c:	000011f3 	.word	0x000011f3
    5a70:	0000bd32 	.word	0x0000bd32
    5a74:	000011ed 	.word	0x000011ed
    5a78:	00008485 	.word	0x00008485

00005a7c <tcp_parseopt.isra.0>:
    5a7c:	e92d 4ff1 	stmdb	sp!, {r0, r4, r5, r6, r7, r8, r9, sl, fp, lr}
    5a80:	4d2a      	ldr	r5, [pc, #168]	; (5b2c <tcp_parseopt.isra.0+0xb0>)
    5a82:	4c2b      	ldr	r4, [pc, #172]	; (5b30 <tcp_parseopt.isra.0+0xb4>)
    5a84:	68ee      	ldr	r6, [r5, #12]
    5a86:	4680      	mov	r8, r0
    5a88:	89b0      	ldrh	r0, [r6, #12]
    5a8a:	47a0      	blx	r4
    5a8c:	f3c0 300f 	ubfx	r0, r0, #12, #16
    5a90:	2805      	cmp	r0, #5
    5a92:	d90f      	bls.n	5ab4 <tcp_parseopt.isra.0+0x38>
    5a94:	68eb      	ldr	r3, [r5, #12]
    5a96:	4f27      	ldr	r7, [pc, #156]	; (5b34 <tcp_parseopt.isra.0+0xb8>)
    5a98:	8998      	ldrh	r0, [r3, #12]
    5a9a:	f8df 90a8 	ldr.w	r9, [pc, #168]	; 5b44 <tcp_parseopt.isra.0+0xc8>
    5a9e:	f8df a0a8 	ldr.w	sl, [pc, #168]	; 5b48 <tcp_parseopt.isra.0+0xcc>
    5aa2:	47a0      	blx	r4
    5aa4:	0b05      	lsrs	r5, r0, #12
    5aa6:	3d05      	subs	r5, #5
    5aa8:	00ad      	lsls	r5, r5, #2
    5aaa:	3614      	adds	r6, #20
    5aac:	b2ad      	uxth	r5, r5
    5aae:	2400      	movs	r4, #0
    5ab0:	42a5      	cmp	r5, r4
    5ab2:	d802      	bhi.n	5aba <tcp_parseopt.isra.0+0x3e>
    5ab4:	b001      	add	sp, #4
    5ab6:	e8bd 8ff0 	ldmia.w	sp!, {r4, r5, r6, r7, r8, r9, sl, fp, pc}
    5aba:	5d33      	ldrb	r3, [r6, r4]
    5abc:	2b01      	cmp	r3, #1
    5abe:	d011      	beq.n	5ae4 <tcp_parseopt.isra.0+0x68>
    5ac0:	d30a      	bcc.n	5ad8 <tcp_parseopt.isra.0+0x5c>
    5ac2:	2b02      	cmp	r3, #2
    5ac4:	eb06 0b04 	add.w	fp, r6, r4
    5ac8:	d011      	beq.n	5aee <tcp_parseopt.isra.0+0x72>
    5aca:	4650      	mov	r0, sl
    5acc:	47b8      	blx	r7
    5ace:	f89b 3001 	ldrb.w	r3, [fp, #1]
    5ad2:	b1ab      	cbz	r3, 5b00 <tcp_parseopt.isra.0+0x84>
    5ad4:	441c      	add	r4, r3
    5ad6:	e027      	b.n	5b28 <tcp_parseopt.isra.0+0xac>
    5ad8:	4817      	ldr	r0, [pc, #92]	; (5b38 <tcp_parseopt.isra.0+0xbc>)
    5ada:	463b      	mov	r3, r7
    5adc:	b001      	add	sp, #4
    5ade:	e8bd 4ff0 	ldmia.w	sp!, {r4, r5, r6, r7, r8, r9, sl, fp, lr}
    5ae2:	4718      	bx	r3
    5ae4:	3401      	adds	r4, #1
    5ae6:	4648      	mov	r0, r9
    5ae8:	b2a4      	uxth	r4, r4
    5aea:	47b8      	blx	r7
    5aec:	e7e0      	b.n	5ab0 <tcp_parseopt.isra.0+0x34>
    5aee:	4813      	ldr	r0, [pc, #76]	; (5b3c <tcp_parseopt.isra.0+0xc0>)
    5af0:	47b8      	blx	r7
    5af2:	f89b 3001 	ldrb.w	r3, [fp, #1]
    5af6:	2b04      	cmp	r3, #4
    5af8:	d102      	bne.n	5b00 <tcp_parseopt.isra.0+0x84>
    5afa:	1ce3      	adds	r3, r4, #3
    5afc:	42ab      	cmp	r3, r5
    5afe:	db01      	blt.n	5b04 <tcp_parseopt.isra.0+0x88>
    5b00:	480f      	ldr	r0, [pc, #60]	; (5b40 <tcp_parseopt.isra.0+0xc4>)
    5b02:	e7ea      	b.n	5ada <tcp_parseopt.isra.0+0x5e>
    5b04:	f89b 2002 	ldrb.w	r2, [fp, #2]
    5b08:	f89b 3003 	ldrb.w	r3, [fp, #3]
    5b0c:	ea43 2302 	orr.w	r3, r3, r2, lsl #8
    5b10:	1e5a      	subs	r2, r3, #1
    5b12:	b292      	uxth	r2, r2
    5b14:	f240 51b4 	movw	r1, #1460	; 0x5b4
    5b18:	f240 50b3 	movw	r0, #1459	; 0x5b3
    5b1c:	4282      	cmp	r2, r0
    5b1e:	bf88      	it	hi
    5b20:	460b      	movhi	r3, r1
    5b22:	f8a8 3000 	strh.w	r3, [r8]
    5b26:	3404      	adds	r4, #4
    5b28:	b2a4      	uxth	r4, r4
    5b2a:	e7c1      	b.n	5ab0 <tcp_parseopt.isra.0+0x34>
    5b2c:	20007eac 	.word	0x20007eac
    5b30:	000011f3 	.word	0x000011f3
    5b34:	00008595 	.word	0x00008595
    5b38:	0000bded 	.word	0x0000bded
    5b3c:	0000be11 	.word	0x0000be11
    5b40:	0000be23 	.word	0x0000be23
    5b44:	0000bdff 	.word	0x0000bdff
    5b48:	0000be3c 	.word	0x0000be3c

00005b4c <tcp_input>:
    5b4c:	e92d 4ff0 	stmdb	sp!, {r4, r5, r6, r7, r8, r9, sl, fp, lr}
    5b50:	4605      	mov	r5, r0
    5b52:	6840      	ldr	r0, [r0, #4]
    5b54:	4ea1      	ldr	r6, [pc, #644]	; (5ddc <tcp_input+0x290>)
    5b56:	7803      	ldrb	r3, [r0, #0]
    5b58:	6330      	str	r0, [r6, #48]	; 0x30
    5b5a:	f003 030f 	and.w	r3, r3, #15
    5b5e:	eb00 0083 	add.w	r0, r0, r3, lsl #2
    5b62:	b085      	sub	sp, #20
    5b64:	f8df a2cc 	ldr.w	sl, [pc, #716]	; 5e34 <tcp_input+0x2e8>
    5b68:	60f0      	str	r0, [r6, #12]
    5b6a:	4688      	mov	r8, r1
    5b6c:	47d0      	blx	sl
    5b6e:	6b33      	ldr	r3, [r6, #48]	; 0x30
    5b70:	f8df 92c4 	ldr.w	r9, [pc, #708]	; 5e38 <tcp_input+0x2ec>
    5b74:	7819      	ldrb	r1, [r3, #0]
    5b76:	f001 010f 	and.w	r1, r1, #15
    5b7a:	0089      	lsls	r1, r1, #2
    5b7c:	4249      	negs	r1, r1
    5b7e:	4628      	mov	r0, r5
    5b80:	47c8      	blx	r9
    5b82:	4634      	mov	r4, r6
    5b84:	8929      	ldrh	r1, [r5, #8]
    5b86:	b908      	cbnz	r0, 5b8c <tcp_input+0x40>
    5b88:	2913      	cmp	r1, #19
    5b8a:	d808      	bhi.n	5b9e <tcp_input+0x52>
    5b8c:	4894      	ldr	r0, [pc, #592]	; (5de0 <tcp_input+0x294>)
    5b8e:	4b95      	ldr	r3, [pc, #596]	; (5de4 <tcp_input+0x298>)
    5b90:	4798      	blx	r3
    5b92:	4b95      	ldr	r3, [pc, #596]	; (5de8 <tcp_input+0x29c>)
    5b94:	4628      	mov	r0, r5
    5b96:	b005      	add	sp, #20
    5b98:	e8bd 4ff0 	ldmia.w	sp!, {r4, r5, r6, r7, r8, r9, sl, fp, lr}
    5b9c:	4718      	bx	r3
    5b9e:	4f93      	ldr	r7, [pc, #588]	; (5dec <tcp_input+0x2a0>)
    5ba0:	4b93      	ldr	r3, [pc, #588]	; (5df0 <tcp_input+0x2a4>)
    5ba2:	6838      	ldr	r0, [r7, #0]
    5ba4:	4641      	mov	r1, r8
    5ba6:	4798      	blx	r3
    5ba8:	2800      	cmp	r0, #0
    5baa:	d1f2      	bne.n	5b92 <tcp_input+0x46>
    5bac:	683b      	ldr	r3, [r7, #0]
    5bae:	f003 03f0 	and.w	r3, r3, #240	; 0xf0
    5bb2:	2be0      	cmp	r3, #224	; 0xe0
    5bb4:	d0ed      	beq.n	5b92 <tcp_input+0x46>
    5bb6:	f8df 824c 	ldr.w	r8, [pc, #588]	; 5e04 <tcp_input+0x2b8>
    5bba:	892b      	ldrh	r3, [r5, #8]
    5bbc:	9300      	str	r3, [sp, #0]
    5bbe:	463a      	mov	r2, r7
    5bc0:	2306      	movs	r3, #6
    5bc2:	4641      	mov	r1, r8
    5bc4:	4628      	mov	r0, r5
    5bc6:	f8df b274 	ldr.w	fp, [pc, #628]	; 5e3c <tcp_input+0x2f0>
    5bca:	47d8      	blx	fp
    5bcc:	b168      	cbz	r0, 5bea <tcp_input+0x9e>
    5bce:	892b      	ldrh	r3, [r5, #8]
    5bd0:	9300      	str	r3, [sp, #0]
    5bd2:	463a      	mov	r2, r7
    5bd4:	4641      	mov	r1, r8
    5bd6:	2306      	movs	r3, #6
    5bd8:	4628      	mov	r0, r5
    5bda:	47d8      	blx	fp
    5bdc:	4b81      	ldr	r3, [pc, #516]	; (5de4 <tcp_input+0x298>)
    5bde:	4601      	mov	r1, r0
    5be0:	4884      	ldr	r0, [pc, #528]	; (5df4 <tcp_input+0x2a8>)
    5be2:	4798      	blx	r3
    5be4:	68f0      	ldr	r0, [r6, #12]
    5be6:	47d0      	blx	sl
    5be8:	e7d3      	b.n	5b92 <tcp_input+0x46>
    5bea:	68f3      	ldr	r3, [r6, #12]
    5bec:	4e82      	ldr	r6, [pc, #520]	; (5df8 <tcp_input+0x2ac>)
    5bee:	8998      	ldrh	r0, [r3, #12]
    5bf0:	47b0      	blx	r6
    5bf2:	0b00      	lsrs	r0, r0, #12
    5bf4:	ebc0 3080 	rsb	r0, r0, r0, lsl #14
    5bf8:	0081      	lsls	r1, r0, #2
    5bfa:	b209      	sxth	r1, r1
    5bfc:	4628      	mov	r0, r5
    5bfe:	47c8      	blx	r9
    5c00:	46b0      	mov	r8, r6
    5c02:	4683      	mov	fp, r0
    5c04:	b118      	cbz	r0, 5c0e <tcp_input+0xc2>
    5c06:	487d      	ldr	r0, [pc, #500]	; (5dfc <tcp_input+0x2b0>)
    5c08:	4b7d      	ldr	r3, [pc, #500]	; (5e00 <tcp_input+0x2b4>)
    5c0a:	4798      	blx	r3
    5c0c:	e7c1      	b.n	5b92 <tcp_input+0x46>
    5c0e:	68e6      	ldr	r6, [r4, #12]
    5c10:	f8df a22c 	ldr.w	sl, [pc, #556]	; 5e40 <tcp_input+0x2f4>
    5c14:	8830      	ldrh	r0, [r6, #0]
    5c16:	47c0      	blx	r8
    5c18:	8030      	strh	r0, [r6, #0]
    5c1a:	68e6      	ldr	r6, [r4, #12]
    5c1c:	8870      	ldrh	r0, [r6, #2]
    5c1e:	47c0      	blx	r8
    5c20:	8070      	strh	r0, [r6, #2]
    5c22:	68e6      	ldr	r6, [r4, #12]
    5c24:	6870      	ldr	r0, [r6, #4]
    5c26:	47d0      	blx	sl
    5c28:	6070      	str	r0, [r6, #4]
    5c2a:	68e6      	ldr	r6, [r4, #12]
    5c2c:	6020      	str	r0, [r4, #0]
    5c2e:	68b0      	ldr	r0, [r6, #8]
    5c30:	47d0      	blx	sl
    5c32:	60b0      	str	r0, [r6, #8]
    5c34:	68e6      	ldr	r6, [r4, #12]
    5c36:	60a0      	str	r0, [r4, #8]
    5c38:	89f0      	ldrh	r0, [r6, #14]
    5c3a:	47c0      	blx	r8
    5c3c:	68e3      	ldr	r3, [r4, #12]
    5c3e:	81f0      	strh	r0, [r6, #14]
    5c40:	8998      	ldrh	r0, [r3, #12]
    5c42:	47c0      	blx	r8
    5c44:	496f      	ldr	r1, [pc, #444]	; (5e04 <tcp_input+0x2b8>)
    5c46:	4a70      	ldr	r2, [pc, #448]	; (5e08 <tcp_input+0x2bc>)
    5c48:	680f      	ldr	r7, [r1, #0]
    5c4a:	4968      	ldr	r1, [pc, #416]	; (5dec <tcp_input+0x2a0>)
    5c4c:	f8d2 e000 	ldr.w	lr, [r2]
    5c50:	6809      	ldr	r1, [r1, #0]
    5c52:	b2c0      	uxtb	r0, r0
    5c54:	f000 033f 	and.w	r3, r0, #63	; 0x3f
    5c58:	7123      	strb	r3, [r4, #4]
    5c5a:	f010 0003 	ands.w	r0, r0, #3
    5c5e:	892b      	ldrh	r3, [r5, #8]
    5c60:	bf18      	it	ne
    5c62:	2001      	movne	r0, #1
    5c64:	4418      	add	r0, r3
    5c66:	68e3      	ldr	r3, [r4, #12]
    5c68:	8220      	strh	r0, [r4, #16]
    5c6a:	4676      	mov	r6, lr
    5c6c:	4658      	mov	r0, fp
    5c6e:	4691      	mov	r9, r2
    5c70:	b916      	cbnz	r6, 5c78 <tcp_input+0x12c>
    5c72:	4a66      	ldr	r2, [pc, #408]	; (5e0c <tcp_input+0x2c0>)
    5c74:	6816      	ldr	r6, [r2, #0]
    5c76:	e095      	b.n	5da4 <tcp_input+0x258>
    5c78:	f8b6 c01c 	ldrh.w	ip, [r6, #28]
    5c7c:	881a      	ldrh	r2, [r3, #0]
    5c7e:	4594      	cmp	ip, r2
    5c80:	d150      	bne.n	5d24 <tcp_input+0x1d8>
    5c82:	f8b6 c01a 	ldrh.w	ip, [r6, #26]
    5c86:	885a      	ldrh	r2, [r3, #2]
    5c88:	4594      	cmp	ip, r2
    5c8a:	d14b      	bne.n	5d24 <tcp_input+0x1d8>
    5c8c:	6872      	ldr	r2, [r6, #4]
    5c8e:	42ba      	cmp	r2, r7
    5c90:	d148      	bne.n	5d24 <tcp_input+0x1d8>
    5c92:	6832      	ldr	r2, [r6, #0]
    5c94:	428a      	cmp	r2, r1
    5c96:	d145      	bne.n	5d24 <tcp_input+0x1d8>
    5c98:	b128      	cbz	r0, 5ca6 <tcp_input+0x15a>
    5c9a:	68f3      	ldr	r3, [r6, #12]
    5c9c:	60c3      	str	r3, [r0, #12]
    5c9e:	4b5a      	ldr	r3, [pc, #360]	; (5e08 <tcp_input+0x2bc>)
    5ca0:	f8c6 e00c 	str.w	lr, [r6, #12]
    5ca4:	601e      	str	r6, [r3, #0]
    5ca6:	485a      	ldr	r0, [pc, #360]	; (5e10 <tcp_input+0x2c4>)
    5ca8:	4f4e      	ldr	r7, [pc, #312]	; (5de4 <tcp_input+0x298>)
    5caa:	f8df 9154 	ldr.w	r9, [pc, #340]	; 5e00 <tcp_input+0x2b4>
    5cae:	47b8      	blx	r7
    5cb0:	68e3      	ldr	r3, [r4, #12]
    5cb2:	8998      	ldrh	r0, [r3, #12]
    5cb4:	47c0      	blx	r8
    5cb6:	4b57      	ldr	r3, [pc, #348]	; (5e14 <tcp_input+0x2c8>)
    5cb8:	f000 003f 	and.w	r0, r0, #63	; 0x3f
    5cbc:	4798      	blx	r3
    5cbe:	4856      	ldr	r0, [pc, #344]	; (5e18 <tcp_input+0x2cc>)
    5cc0:	47c8      	blx	r9
    5cc2:	2e00      	cmp	r6, #0
    5cc4:	f000 83ab 	beq.w	641e <tcp_input+0x8d2>
    5cc8:	7e30      	ldrb	r0, [r6, #24]
    5cca:	f8df 8178 	ldr.w	r8, [pc, #376]	; 5e44 <tcp_input+0x2f8>
    5cce:	47c0      	blx	r8
    5cd0:	2300      	movs	r3, #0
    5cd2:	892a      	ldrh	r2, [r5, #8]
    5cd4:	6163      	str	r3, [r4, #20]
    5cd6:	62a3      	str	r3, [r4, #40]	; 0x28
    5cd8:	f884 302c 	strb.w	r3, [r4, #44]	; 0x2c
    5cdc:	7923      	ldrb	r3, [r4, #4]
    5cde:	83a2      	strh	r2, [r4, #28]
    5ce0:	68e2      	ldr	r2, [r4, #12]
    5ce2:	6262      	str	r2, [r4, #36]	; 0x24
    5ce4:	0719      	lsls	r1, r3, #28
    5ce6:	bf48      	it	mi
    5ce8:	7b6b      	ldrbmi	r3, [r5, #13]
    5cea:	61a5      	str	r5, [r4, #24]
    5cec:	bf44      	itt	mi
    5cee:	f043 0301 	orrmi.w	r3, r3, #1
    5cf2:	736b      	strbmi	r3, [r5, #13]
    5cf4:	6fb3      	ldr	r3, [r6, #120]	; 0x78
    5cf6:	4d49      	ldr	r5, [pc, #292]	; (5e1c <tcp_input+0x2d0>)
    5cf8:	2b00      	cmp	r3, #0
    5cfa:	f040 80fd 	bne.w	5ef8 <tcp_input+0x3ac>
    5cfe:	7923      	ldrb	r3, [r4, #4]
    5d00:	602e      	str	r6, [r5, #0]
    5d02:	075a      	lsls	r2, r3, #29
    5d04:	f100 8110 	bmi.w	5f28 <tcp_input+0x3dc>
    5d08:	f013 0f02 	tst.w	r3, #2
    5d0c:	7fb3      	ldrb	r3, [r6, #30]
    5d0e:	f000 812f 	beq.w	5f70 <tcp_input+0x424>
    5d12:	7e32      	ldrb	r2, [r6, #24]
    5d14:	3a02      	subs	r2, #2
    5d16:	2a01      	cmp	r2, #1
    5d18:	f240 812a 	bls.w	5f70 <tcp_input+0x424>
    5d1c:	f043 0302 	orr.w	r3, r3, #2
    5d20:	77b3      	strb	r3, [r6, #30]
    5d22:	e1af      	b.n	6084 <tcp_input+0x538>
    5d24:	4630      	mov	r0, r6
    5d26:	68f6      	ldr	r6, [r6, #12]
    5d28:	e7a2      	b.n	5c70 <tcp_input+0x124>
    5d2a:	8bb0      	ldrh	r0, [r6, #28]
    5d2c:	881a      	ldrh	r2, [r3, #0]
    5d2e:	4290      	cmp	r0, r2
    5d30:	d137      	bne.n	5da2 <tcp_input+0x256>
    5d32:	8b70      	ldrh	r0, [r6, #26]
    5d34:	885a      	ldrh	r2, [r3, #2]
    5d36:	4290      	cmp	r0, r2
    5d38:	d133      	bne.n	5da2 <tcp_input+0x256>
    5d3a:	6872      	ldr	r2, [r6, #4]
    5d3c:	4297      	cmp	r7, r2
    5d3e:	d130      	bne.n	5da2 <tcp_input+0x256>
    5d40:	6832      	ldr	r2, [r6, #0]
    5d42:	4291      	cmp	r1, r2
    5d44:	d12d      	bne.n	5da2 <tcp_input+0x256>
    5d46:	4b2e      	ldr	r3, [pc, #184]	; (5e00 <tcp_input+0x2b4>)
    5d48:	4835      	ldr	r0, [pc, #212]	; (5e20 <tcp_input+0x2d4>)
    5d4a:	4798      	blx	r3
    5d4c:	7923      	ldrb	r3, [r4, #4]
    5d4e:	075f      	lsls	r7, r3, #29
    5d50:	f53f af1f 	bmi.w	5b92 <tcp_input+0x46>
    5d54:	0798      	lsls	r0, r3, #30
    5d56:	d514      	bpl.n	5d82 <tcp_input+0x236>
    5d58:	6821      	ldr	r1, [r4, #0]
    5d5a:	6ab3      	ldr	r3, [r6, #40]	; 0x28
    5d5c:	1acb      	subs	r3, r1, r3
    5d5e:	d415      	bmi.n	5d8c <tcp_input+0x240>
    5d60:	8db2      	ldrh	r2, [r6, #44]	; 0x2c
    5d62:	1a9b      	subs	r3, r3, r2
    5d64:	2b00      	cmp	r3, #0
    5d66:	dc11      	bgt.n	5d8c <tcp_input+0x240>
    5d68:	68e3      	ldr	r3, [r4, #12]
    5d6a:	8a20      	ldrh	r0, [r4, #16]
    5d6c:	881a      	ldrh	r2, [r3, #0]
    5d6e:	9201      	str	r2, [sp, #4]
    5d70:	885b      	ldrh	r3, [r3, #2]
    5d72:	9300      	str	r3, [sp, #0]
    5d74:	4401      	add	r1, r0
    5d76:	4b23      	ldr	r3, [pc, #140]	; (5e04 <tcp_input+0x2b8>)
    5d78:	68a0      	ldr	r0, [r4, #8]
    5d7a:	4a1c      	ldr	r2, [pc, #112]	; (5dec <tcp_input+0x2a0>)
    5d7c:	4c29      	ldr	r4, [pc, #164]	; (5e24 <tcp_input+0x2d8>)
    5d7e:	47a0      	blx	r4
    5d80:	e707      	b.n	5b92 <tcp_input+0x46>
    5d82:	07d9      	lsls	r1, r3, #31
    5d84:	bf42      	ittt	mi
    5d86:	4b28      	ldrmi	r3, [pc, #160]	; (5e28 <tcp_input+0x2dc>)
    5d88:	681b      	ldrmi	r3, [r3, #0]
    5d8a:	6273      	strmi	r3, [r6, #36]	; 0x24
    5d8c:	8a23      	ldrh	r3, [r4, #16]
    5d8e:	2b00      	cmp	r3, #0
    5d90:	f43f aeff 	beq.w	5b92 <tcp_input+0x46>
    5d94:	7fb3      	ldrb	r3, [r6, #30]
    5d96:	f043 0302 	orr.w	r3, r3, #2
    5d9a:	77b3      	strb	r3, [r6, #30]
    5d9c:	4630      	mov	r0, r6
    5d9e:	4b23      	ldr	r3, [pc, #140]	; (5e2c <tcp_input+0x2e0>)
    5da0:	e733      	b.n	5c0a <tcp_input+0xbe>
    5da2:	68f6      	ldr	r6, [r6, #12]
    5da4:	2e00      	cmp	r6, #0
    5da6:	d1c0      	bne.n	5d2a <tcp_input+0x1de>
    5da8:	4a21      	ldr	r2, [pc, #132]	; (5e30 <tcp_input+0x2e4>)
    5daa:	6810      	ldr	r0, [r2, #0]
    5dac:	4632      	mov	r2, r6
    5dae:	4607      	mov	r7, r0
    5db0:	2f00      	cmp	r7, #0
    5db2:	f43f af78 	beq.w	5ca6 <tcp_input+0x15a>
    5db6:	f8b7 c01a 	ldrh.w	ip, [r7, #26]
    5dba:	f8b3 e002 	ldrh.w	lr, [r3, #2]
    5dbe:	45f4      	cmp	ip, lr
    5dc0:	d108      	bne.n	5dd4 <tcp_input+0x288>
    5dc2:	f8d7 e000 	ldr.w	lr, [r7]
    5dc6:	4571      	cmp	r1, lr
    5dc8:	f000 8330 	beq.w	642c <tcp_input+0x8e0>
    5dcc:	f1be 0f00 	cmp.w	lr, #0
    5dd0:	f000 832c 	beq.w	642c <tcp_input+0x8e0>
    5dd4:	463a      	mov	r2, r7
    5dd6:	68ff      	ldr	r7, [r7, #12]
    5dd8:	e7ea      	b.n	5db0 <tcp_input+0x264>
    5dda:	bf00      	nop
    5ddc:	20007eac 	.word	0x20007eac
    5de0:	0000be50 	.word	0x0000be50
    5de4:	00008485 	.word	0x00008485
    5de8:	00003f99 	.word	0x00003f99
    5dec:	200080c0 	.word	0x200080c0
    5df0:	00003141 	.word	0x00003141
    5df4:	0000be7f 	.word	0x0000be7f
    5df8:	000011f3 	.word	0x000011f3
    5dfc:	0000bebc 	.word	0x0000bebc
    5e00:	00008595 	.word	0x00008595
    5e04:	200080b8 	.word	0x200080b8
    5e08:	2000908c 	.word	0x2000908c
    5e0c:	200090a0 	.word	0x200090a0
    5e10:	0000bf7c 	.word	0x0000bf7c
    5e14:	00004f71 	.word	0x00004f71
    5e18:	0000bfab 	.word	0x0000bfab
    5e1c:	200090a4 	.word	0x200090a4
    5e20:	0000bed4 	.word	0x0000bed4
    5e24:	00006a89 	.word	0x00006a89
    5e28:	20009090 	.word	0x20009090
    5e2c:	000067b9 	.word	0x000067b9
    5e30:	20009094 	.word	0x20009094
    5e34:	00004ff9 	.word	0x00004ff9
    5e38:	00003f01 	.word	0x00003f01
    5e3c:	00002ad5 	.word	0x00002ad5
    5e40:	000011fd 	.word	0x000011fd
    5e44:	00004d99 	.word	0x00004d99
    5e48:	0798      	lsls	r0, r3, #30
    5e4a:	f57f aea2 	bpl.w	5b92 <tcp_input+0x46>
    5e4e:	68e3      	ldr	r3, [r4, #12]
    5e50:	4896      	ldr	r0, [pc, #600]	; (60ac <tcp_input+0x560>)
    5e52:	885a      	ldrh	r2, [r3, #2]
    5e54:	8819      	ldrh	r1, [r3, #0]
    5e56:	4b96      	ldr	r3, [pc, #600]	; (60b0 <tcp_input+0x564>)
    5e58:	4798      	blx	r3
    5e5a:	7e78      	ldrb	r0, [r7, #25]
    5e5c:	4b95      	ldr	r3, [pc, #596]	; (60b4 <tcp_input+0x568>)
    5e5e:	4798      	blx	r3
    5e60:	4682      	mov	sl, r0
    5e62:	b910      	cbnz	r0, 5e6a <tcp_input+0x31e>
    5e64:	4894      	ldr	r0, [pc, #592]	; (60b8 <tcp_input+0x56c>)
    5e66:	47b0      	blx	r6
    5e68:	e693      	b.n	5b92 <tcp_input+0x46>
    5e6a:	4b94      	ldr	r3, [pc, #592]	; (60bc <tcp_input+0x570>)
    5e6c:	68e2      	ldr	r2, [r4, #12]
    5e6e:	681b      	ldr	r3, [r3, #0]
    5e70:	6003      	str	r3, [r0, #0]
    5e72:	8b7b      	ldrh	r3, [r7, #26]
    5e74:	8343      	strh	r3, [r0, #26]
    5e76:	4b92      	ldr	r3, [pc, #584]	; (60c0 <tcp_input+0x574>)
    5e78:	7851      	ldrb	r1, [r2, #1]
    5e7a:	681b      	ldr	r3, [r3, #0]
    5e7c:	6043      	str	r3, [r0, #4]
    5e7e:	7813      	ldrb	r3, [r2, #0]
    5e80:	ea43 2301 	orr.w	r3, r3, r1, lsl #8
    5e84:	8383      	strh	r3, [r0, #28]
    5e86:	2303      	movs	r3, #3
    5e88:	7603      	strb	r3, [r0, #24]
    5e8a:	6823      	ldr	r3, [r4, #0]
    5e8c:	1c59      	adds	r1, r3, #1
    5e8e:	6281      	str	r1, [r0, #40]	; 0x28
    5e90:	6301      	str	r1, [r0, #48]	; 0x30
    5e92:	3b01      	subs	r3, #1
    5e94:	89d2      	ldrh	r2, [r2, #14]
    5e96:	6543      	str	r3, [r0, #84]	; 0x54
    5e98:	693b      	ldr	r3, [r7, #16]
    5e9a:	6103      	str	r3, [r0, #16]
    5e9c:	697b      	ldr	r3, [r7, #20]
    5e9e:	f8a0 2060 	strh.w	r2, [r0, #96]	; 0x60
    5ea2:	f8a0 2062 	strh.w	r2, [r0, #98]	; 0x62
    5ea6:	f8a0 204e 	strh.w	r2, [r0, #78]	; 0x4e
    5eaa:	6143      	str	r3, [r0, #20]
    5eac:	7a3b      	ldrb	r3, [r7, #8]
    5eae:	f023 0373 	bic.w	r3, r3, #115	; 0x73
    5eb2:	7203      	strb	r3, [r0, #8]
    5eb4:	f8d9 3000 	ldr.w	r3, [r9]
    5eb8:	60c3      	str	r3, [r0, #12]
    5eba:	4b82      	ldr	r3, [pc, #520]	; (60c4 <tcp_input+0x578>)
    5ebc:	f8c9 0000 	str.w	r0, [r9]
    5ec0:	4798      	blx	r3
    5ec2:	4b81      	ldr	r3, [pc, #516]	; (60c8 <tcp_input+0x57c>)
    5ec4:	2201      	movs	r2, #1
    5ec6:	701a      	strb	r2, [r3, #0]
    5ec8:	f10a 0036 	add.w	r0, sl, #54	; 0x36
    5ecc:	4b7f      	ldr	r3, [pc, #508]	; (60cc <tcp_input+0x580>)
    5ece:	4798      	blx	r3
    5ed0:	f10a 0104 	add.w	r1, sl, #4
    5ed4:	4b7e      	ldr	r3, [pc, #504]	; (60d0 <tcp_input+0x584>)
    5ed6:	f8ba 0036 	ldrh.w	r0, [sl, #54]	; 0x36
    5eda:	4798      	blx	r3
    5edc:	2112      	movs	r1, #18
    5ede:	f8aa 0036 	strh.w	r0, [sl, #54]	; 0x36
    5ee2:	4b7c      	ldr	r3, [pc, #496]	; (60d4 <tcp_input+0x588>)
    5ee4:	4650      	mov	r0, sl
    5ee6:	4798      	blx	r3
    5ee8:	b120      	cbz	r0, 5ef4 <tcp_input+0x3a8>
    5eea:	4641      	mov	r1, r8
    5eec:	4650      	mov	r0, sl
    5eee:	4b7a      	ldr	r3, [pc, #488]	; (60d8 <tcp_input+0x58c>)
    5ef0:	4798      	blx	r3
    5ef2:	e64e      	b.n	5b92 <tcp_input+0x46>
    5ef4:	4650      	mov	r0, sl
    5ef6:	e752      	b.n	5d9e <tcp_input+0x252>
    5ef8:	4630      	mov	r0, r6
    5efa:	4b78      	ldr	r3, [pc, #480]	; (60dc <tcp_input+0x590>)
    5efc:	4798      	blx	r3
    5efe:	300a      	adds	r0, #10
    5f00:	d007      	beq.n	5f12 <tcp_input+0x3c6>
    5f02:	6fb3      	ldr	r3, [r6, #120]	; 0x78
    5f04:	2b00      	cmp	r3, #0
    5f06:	f43f aefa 	beq.w	5cfe <tcp_input+0x1b2>
    5f0a:	8a23      	ldrh	r3, [r4, #16]
    5f0c:	2b00      	cmp	r3, #0
    5f0e:	f43f aef6 	beq.w	5cfe <tcp_input+0x1b2>
    5f12:	69a0      	ldr	r0, [r4, #24]
    5f14:	2600      	movs	r6, #0
    5f16:	602e      	str	r6, [r5, #0]
    5f18:	62a6      	str	r6, [r4, #40]	; 0x28
    5f1a:	b110      	cbz	r0, 5f22 <tcp_input+0x3d6>
    5f1c:	4b70      	ldr	r3, [pc, #448]	; (60e0 <tcp_input+0x594>)
    5f1e:	4798      	blx	r3
    5f20:	61a6      	str	r6, [r4, #24]
    5f22:	b005      	add	sp, #20
    5f24:	e8bd 8ff0 	ldmia.w	sp!, {r4, r5, r6, r7, r8, r9, sl, fp, pc}
    5f28:	7e33      	ldrb	r3, [r6, #24]
    5f2a:	2b02      	cmp	r3, #2
    5f2c:	d10f      	bne.n	5f4e <tcp_input+0x402>
    5f2e:	6d32      	ldr	r2, [r6, #80]	; 0x50
    5f30:	68a3      	ldr	r3, [r4, #8]
    5f32:	429a      	cmp	r2, r3
    5f34:	d113      	bne.n	5f5e <tcp_input+0x412>
    5f36:	486b      	ldr	r0, [pc, #428]	; (60e4 <tcp_input+0x598>)
    5f38:	47c8      	blx	r9
    5f3a:	f894 302c 	ldrb.w	r3, [r4, #44]	; 0x2c
    5f3e:	f043 0308 	orr.w	r3, r3, #8
    5f42:	f884 302c 	strb.w	r3, [r4, #44]	; 0x2c
    5f46:	7fb3      	ldrb	r3, [r6, #30]
    5f48:	f023 0301 	bic.w	r3, r3, #1
    5f4c:	e6e8      	b.n	5d20 <tcp_input+0x1d4>
    5f4e:	6823      	ldr	r3, [r4, #0]
    5f50:	6ab2      	ldr	r2, [r6, #40]	; 0x28
    5f52:	1a9b      	subs	r3, r3, r2
    5f54:	d403      	bmi.n	5f5e <tcp_input+0x412>
    5f56:	8db2      	ldrh	r2, [r6, #44]	; 0x2c
    5f58:	1a9b      	subs	r3, r3, r2
    5f5a:	2b00      	cmp	r3, #0
    5f5c:	ddeb      	ble.n	5f36 <tcp_input+0x3ea>
    5f5e:	6ab2      	ldr	r2, [r6, #40]	; 0x28
    5f60:	6821      	ldr	r1, [r4, #0]
    5f62:	4861      	ldr	r0, [pc, #388]	; (60e8 <tcp_input+0x59c>)
    5f64:	47b8      	blx	r7
    5f66:	6ab2      	ldr	r2, [r6, #40]	; 0x28
    5f68:	6821      	ldr	r1, [r4, #0]
    5f6a:	485f      	ldr	r0, [pc, #380]	; (60e8 <tcp_input+0x59c>)
    5f6c:	47b8      	blx	r7
    5f6e:	e089      	b.n	6084 <tcp_input+0x538>
    5f70:	06db      	lsls	r3, r3, #27
    5f72:	bf5e      	ittt	pl
    5f74:	4b5d      	ldrpl	r3, [pc, #372]	; (60ec <tcp_input+0x5a0>)
    5f76:	681b      	ldrpl	r3, [r3, #0]
    5f78:	6273      	strpl	r3, [r6, #36]	; 0x24
    5f7a:	2300      	movs	r3, #0
    5f7c:	f886 3096 	strb.w	r3, [r6, #150]	; 0x96
    5f80:	f106 0036 	add.w	r0, r6, #54	; 0x36
    5f84:	4b51      	ldr	r3, [pc, #324]	; (60cc <tcp_input+0x580>)
    5f86:	4798      	blx	r3
    5f88:	7e33      	ldrb	r3, [r6, #24]
    5f8a:	3b02      	subs	r3, #2
    5f8c:	2b07      	cmp	r3, #7
    5f8e:	d879      	bhi.n	6084 <tcp_input+0x538>
    5f90:	e8df f013 	tbh	[pc, r3, lsl #1]
    5f94:	00b40008 	.word	0x00b40008
    5f98:	010e010a 	.word	0x010e010a
    5f9c:	010a015c 	.word	0x010a015c
    5fa0:	01a2017f 	.word	0x01a2017f
    5fa4:	6f33      	ldr	r3, [r6, #112]	; 0x70
    5fa6:	6d32      	ldr	r2, [r6, #80]	; 0x50
    5fa8:	691b      	ldr	r3, [r3, #16]
    5faa:	9203      	str	r2, [sp, #12]
    5fac:	6858      	ldr	r0, [r3, #4]
    5fae:	f8d4 b008 	ldr.w	fp, [r4, #8]
    5fb2:	47d0      	blx	sl
    5fb4:	9a03      	ldr	r2, [sp, #12]
    5fb6:	4603      	mov	r3, r0
    5fb8:	4659      	mov	r1, fp
    5fba:	484d      	ldr	r0, [pc, #308]	; (60f0 <tcp_input+0x5a4>)
    5fbc:	47b8      	blx	r7
    5fbe:	7923      	ldrb	r3, [r4, #4]
    5fc0:	f003 0312 	and.w	r3, r3, #18
    5fc4:	2b12      	cmp	r3, #18
    5fc6:	d14d      	bne.n	6064 <tcp_input+0x518>
    5fc8:	6f33      	ldr	r3, [r6, #112]	; 0x70
    5fca:	691b      	ldr	r3, [r3, #16]
    5fcc:	6858      	ldr	r0, [r3, #4]
    5fce:	47d0      	blx	sl
    5fd0:	68a3      	ldr	r3, [r4, #8]
    5fd2:	3001      	adds	r0, #1
    5fd4:	4298      	cmp	r0, r3
    5fd6:	d145      	bne.n	6064 <tcp_input+0x518>
    5fd8:	f8b6 3066 	ldrh.w	r3, [r6, #102]	; 0x66
    5fdc:	64b0      	str	r0, [r6, #72]	; 0x48
    5fde:	3301      	adds	r3, #1
    5fe0:	f8a6 3066 	strh.w	r3, [r6, #102]	; 0x66
    5fe4:	6823      	ldr	r3, [r4, #0]
    5fe6:	8ef0      	ldrh	r0, [r6, #54]	; 0x36
    5fe8:	1c5a      	adds	r2, r3, #1
    5fea:	62b2      	str	r2, [r6, #40]	; 0x28
    5fec:	6332      	str	r2, [r6, #48]	; 0x30
    5fee:	68e2      	ldr	r2, [r4, #12]
    5ff0:	3b01      	subs	r3, #1
    5ff2:	89d2      	ldrh	r2, [r2, #14]
    5ff4:	6573      	str	r3, [r6, #84]	; 0x54
    5ff6:	2304      	movs	r3, #4
    5ff8:	18f1      	adds	r1, r6, r3
    5ffa:	f8a6 2060 	strh.w	r2, [r6, #96]	; 0x60
    5ffe:	f8a6 2062 	strh.w	r2, [r6, #98]	; 0x62
    6002:	7633      	strb	r3, [r6, #24]
    6004:	4b32      	ldr	r3, [pc, #200]	; (60d0 <tcp_input+0x584>)
    6006:	4798      	blx	r3
    6008:	eb00 0380 	add.w	r3, r0, r0, lsl #2
    600c:	005b      	lsls	r3, r3, #1
    600e:	f8a6 304e 	strh.w	r3, [r6, #78]	; 0x4e
    6012:	f8b6 304c 	ldrh.w	r3, [r6, #76]	; 0x4c
    6016:	86f0      	strh	r0, [r6, #54]	; 0x36
    6018:	2b01      	cmp	r3, #1
    601a:	bf04      	itt	eq
    601c:	0040      	lsleq	r0, r0, #1
    601e:	b280      	uxtheq	r0, r0
    6020:	f8b6 3068 	ldrh.w	r3, [r6, #104]	; 0x68
    6024:	f8a6 004c 	strh.w	r0, [r6, #76]	; 0x4c
    6028:	6f30      	ldr	r0, [r6, #112]	; 0x70
    602a:	3b01      	subs	r3, #1
    602c:	f8a6 3068 	strh.w	r3, [r6, #104]	; 0x68
    6030:	6803      	ldr	r3, [r0, #0]
    6032:	6733      	str	r3, [r6, #112]	; 0x70
    6034:	4b2f      	ldr	r3, [pc, #188]	; (60f4 <tcp_input+0x5a8>)
    6036:	4798      	blx	r3
    6038:	6f33      	ldr	r3, [r6, #112]	; 0x70
    603a:	b93b      	cbnz	r3, 604c <tcp_input+0x500>
    603c:	f64f 73ff 	movw	r3, #65535	; 0xffff
    6040:	86b3      	strh	r3, [r6, #52]	; 0x34
    6042:	f8d6 3084 	ldr.w	r3, [r6, #132]	; 0x84
    6046:	b933      	cbnz	r3, 6056 <tcp_input+0x50a>
    6048:	7fb3      	ldrb	r3, [r6, #30]
    604a:	e667      	b.n	5d1c <tcp_input+0x1d0>
    604c:	2300      	movs	r3, #0
    604e:	86b3      	strh	r3, [r6, #52]	; 0x34
    6050:	f886 3046 	strb.w	r3, [r6, #70]	; 0x46
    6054:	e7f5      	b.n	6042 <tcp_input+0x4f6>
    6056:	2200      	movs	r2, #0
    6058:	4631      	mov	r1, r6
    605a:	6930      	ldr	r0, [r6, #16]
    605c:	4798      	blx	r3
    605e:	300a      	adds	r0, #10
    6060:	d1f2      	bne.n	6048 <tcp_input+0x4fc>
    6062:	e756      	b.n	5f12 <tcp_input+0x3c6>
    6064:	7923      	ldrb	r3, [r4, #4]
    6066:	06df      	lsls	r7, r3, #27
    6068:	d50c      	bpl.n	6084 <tcp_input+0x538>
    606a:	68e3      	ldr	r3, [r4, #12]
    606c:	8a20      	ldrh	r0, [r4, #16]
    606e:	881a      	ldrh	r2, [r3, #0]
    6070:	6821      	ldr	r1, [r4, #0]
    6072:	9201      	str	r2, [sp, #4]
    6074:	885b      	ldrh	r3, [r3, #2]
    6076:	9300      	str	r3, [sp, #0]
    6078:	4401      	add	r1, r0
    607a:	4b11      	ldr	r3, [pc, #68]	; (60c0 <tcp_input+0x574>)
    607c:	4a0f      	ldr	r2, [pc, #60]	; (60bc <tcp_input+0x570>)
    607e:	68a0      	ldr	r0, [r4, #8]
    6080:	4f1d      	ldr	r7, [pc, #116]	; (60f8 <tcp_input+0x5ac>)
    6082:	47b8      	blx	r7
    6084:	f894 302c 	ldrb.w	r3, [r4, #44]	; 0x2c
    6088:	071a      	lsls	r2, r3, #28
    608a:	f100 813d 	bmi.w	6308 <tcp_input+0x7bc>
    608e:	06db      	lsls	r3, r3, #27
    6090:	f140 814a 	bpl.w	6328 <tcp_input+0x7dc>
    6094:	7fb3      	ldrb	r3, [r6, #30]
    6096:	06df      	lsls	r7, r3, #27
    6098:	f100 813d 	bmi.w	6316 <tcp_input+0x7ca>
    609c:	f8d6 308c 	ldr.w	r3, [r6, #140]	; 0x8c
    60a0:	2b00      	cmp	r3, #0
    60a2:	f000 8138 	beq.w	6316 <tcp_input+0x7ca>
    60a6:	f06f 010b 	mvn.w	r1, #11
    60aa:	e132      	b.n	6312 <tcp_input+0x7c6>
    60ac:	0000bf2f 	.word	0x0000bf2f
    60b0:	00008485 	.word	0x00008485
    60b4:	00004c1d 	.word	0x00004c1d
    60b8:	0000bf53 	.word	0x0000bf53
    60bc:	200080c0 	.word	0x200080c0
    60c0:	200080b8 	.word	0x200080b8
    60c4:	00006e99 	.word	0x00006e99
    60c8:	20009088 	.word	0x20009088
    60cc:	00005a7d 	.word	0x00005a7d
    60d0:	00004d75 	.word	0x00004d75
    60d4:	000065c1 	.word	0x000065c1
    60d8:	00004b49 	.word	0x00004b49
    60dc:	00004e21 	.word	0x00004e21
    60e0:	00003f99 	.word	0x00003f99
    60e4:	0000c10d 	.word	0x0000c10d
    60e8:	0000c12b 	.word	0x0000c12b
    60ec:	20009090 	.word	0x20009090
    60f0:	0000bfc8 	.word	0x0000bfc8
    60f4:	00004521 	.word	0x00004521
    60f8:	00006a89 	.word	0x00006a89
    60fc:	7923      	ldrb	r3, [r4, #4]
    60fe:	06d8      	lsls	r0, r3, #27
    6100:	d545      	bpl.n	618e <tcp_input+0x642>
    6102:	6cb3      	ldr	r3, [r6, #72]	; 0x48
    6104:	68a0      	ldr	r0, [r4, #8]
    6106:	43db      	mvns	r3, r3
    6108:	42c3      	cmn	r3, r0
    610a:	d435      	bmi.n	6178 <tcp_input+0x62c>
    610c:	6d33      	ldr	r3, [r6, #80]	; 0x50
    610e:	1ac3      	subs	r3, r0, r3
    6110:	2b00      	cmp	r3, #0
    6112:	dc31      	bgt.n	6178 <tcp_input+0x62c>
    6114:	2304      	movs	r3, #4
    6116:	7633      	strb	r3, [r6, #24]
    6118:	6a63      	ldr	r3, [r4, #36]	; 0x24
    611a:	4898      	ldr	r0, [pc, #608]	; (637c <tcp_input+0x830>)
    611c:	885a      	ldrh	r2, [r3, #2]
    611e:	8819      	ldrh	r1, [r3, #0]
    6120:	47b8      	blx	r7
    6122:	6973      	ldr	r3, [r6, #20]
    6124:	b91b      	cbnz	r3, 612e <tcp_input+0x5e2>
    6126:	4630      	mov	r0, r6
    6128:	4b95      	ldr	r3, [pc, #596]	; (6380 <tcp_input+0x834>)
    612a:	4798      	blx	r3
    612c:	e6f1      	b.n	5f12 <tcp_input+0x3c6>
    612e:	2200      	movs	r2, #0
    6130:	4631      	mov	r1, r6
    6132:	6930      	ldr	r0, [r6, #16]
    6134:	4798      	blx	r3
    6136:	b110      	cbz	r0, 613e <tcp_input+0x5f2>
    6138:	300a      	adds	r0, #10
    613a:	d1f4      	bne.n	6126 <tcp_input+0x5da>
    613c:	e6e9      	b.n	5f12 <tcp_input+0x3c6>
    613e:	4b91      	ldr	r3, [pc, #580]	; (6384 <tcp_input+0x838>)
    6140:	f8b6 704c 	ldrh.w	r7, [r6, #76]	; 0x4c
    6144:	4630      	mov	r0, r6
    6146:	4798      	blx	r3
    6148:	f8b6 3064 	ldrh.w	r3, [r6, #100]	; 0x64
    614c:	b113      	cbz	r3, 6154 <tcp_input+0x608>
    614e:	3b01      	subs	r3, #1
    6150:	f8a6 3064 	strh.w	r3, [r6, #100]	; 0x64
    6154:	8ef3      	ldrh	r3, [r6, #54]	; 0x36
    6156:	2f01      	cmp	r7, #1
    6158:	bf04      	itt	eq
    615a:	005b      	lsleq	r3, r3, #1
    615c:	b29b      	uxtheq	r3, r3
    615e:	f8a6 304c 	strh.w	r3, [r6, #76]	; 0x4c
    6162:	f894 302c 	ldrb.w	r3, [r4, #44]	; 0x2c
    6166:	069a      	lsls	r2, r3, #26
    6168:	d58c      	bpl.n	6084 <tcp_input+0x538>
    616a:	7fb3      	ldrb	r3, [r6, #30]
    616c:	f043 0302 	orr.w	r3, r3, #2
    6170:	77b3      	strb	r3, [r6, #30]
    6172:	2307      	movs	r3, #7
    6174:	7633      	strb	r3, [r6, #24]
    6176:	e785      	b.n	6084 <tcp_input+0x538>
    6178:	68e3      	ldr	r3, [r4, #12]
    617a:	8a27      	ldrh	r7, [r4, #16]
    617c:	881a      	ldrh	r2, [r3, #0]
    617e:	6821      	ldr	r1, [r4, #0]
    6180:	9201      	str	r2, [sp, #4]
    6182:	885b      	ldrh	r3, [r3, #2]
    6184:	9300      	str	r3, [sp, #0]
    6186:	4a80      	ldr	r2, [pc, #512]	; (6388 <tcp_input+0x83c>)
    6188:	4b80      	ldr	r3, [pc, #512]	; (638c <tcp_input+0x840>)
    618a:	4439      	add	r1, r7
    618c:	e778      	b.n	6080 <tcp_input+0x534>
    618e:	0799      	lsls	r1, r3, #30
    6190:	f57f af78 	bpl.w	6084 <tcp_input+0x538>
    6194:	6ab3      	ldr	r3, [r6, #40]	; 0x28
    6196:	6822      	ldr	r2, [r4, #0]
    6198:	3b01      	subs	r3, #1
    619a:	4293      	cmp	r3, r2
    619c:	f47f af72 	bne.w	6084 <tcp_input+0x538>
    61a0:	4630      	mov	r0, r6
    61a2:	4b7b      	ldr	r3, [pc, #492]	; (6390 <tcp_input+0x844>)
    61a4:	4798      	blx	r3
    61a6:	e76d      	b.n	6084 <tcp_input+0x538>
    61a8:	4630      	mov	r0, r6
    61aa:	4b76      	ldr	r3, [pc, #472]	; (6384 <tcp_input+0x838>)
    61ac:	4798      	blx	r3
    61ae:	e7d8      	b.n	6162 <tcp_input+0x616>
    61b0:	4b74      	ldr	r3, [pc, #464]	; (6384 <tcp_input+0x838>)
    61b2:	4630      	mov	r0, r6
    61b4:	4798      	blx	r3
    61b6:	f894 302c 	ldrb.w	r3, [r4, #44]	; 0x2c
    61ba:	f013 0f20 	tst.w	r3, #32
    61be:	7923      	ldrb	r3, [r4, #4]
    61c0:	d03a      	beq.n	6238 <tcp_input+0x6ec>
    61c2:	06db      	lsls	r3, r3, #27
    61c4:	d532      	bpl.n	622c <tcp_input+0x6e0>
    61c6:	6d32      	ldr	r2, [r6, #80]	; 0x50
    61c8:	68a3      	ldr	r3, [r4, #8]
    61ca:	429a      	cmp	r2, r3
    61cc:	d12e      	bne.n	622c <tcp_input+0x6e0>
    61ce:	6a63      	ldr	r3, [r4, #36]	; 0x24
    61d0:	4870      	ldr	r0, [pc, #448]	; (6394 <tcp_input+0x848>)
    61d2:	885a      	ldrh	r2, [r3, #2]
    61d4:	8819      	ldrh	r1, [r3, #0]
    61d6:	47b8      	blx	r7
    61d8:	7fb3      	ldrb	r3, [r6, #30]
    61da:	f043 0302 	orr.w	r3, r3, #2
    61de:	77b3      	strb	r3, [r6, #30]
    61e0:	4630      	mov	r0, r6
    61e2:	4b6d      	ldr	r3, [pc, #436]	; (6398 <tcp_input+0x84c>)
    61e4:	4798      	blx	r3
    61e6:	4a6d      	ldr	r2, [pc, #436]	; (639c <tcp_input+0x850>)
    61e8:	6813      	ldr	r3, [r2, #0]
    61ea:	429e      	cmp	r6, r3
    61ec:	d102      	bne.n	61f4 <tcp_input+0x6a8>
    61ee:	68f3      	ldr	r3, [r6, #12]
    61f0:	6013      	str	r3, [r2, #0]
    61f2:	e00c      	b.n	620e <tcp_input+0x6c2>
    61f4:	4a6a      	ldr	r2, [pc, #424]	; (63a0 <tcp_input+0x854>)
    61f6:	2100      	movs	r1, #0
    61f8:	6013      	str	r3, [r2, #0]
    61fa:	b90b      	cbnz	r3, 6200 <tcp_input+0x6b4>
    61fc:	b139      	cbz	r1, 620e <tcp_input+0x6c2>
    61fe:	e7f7      	b.n	61f0 <tcp_input+0x6a4>
    6200:	68d8      	ldr	r0, [r3, #12]
    6202:	4286      	cmp	r6, r0
    6204:	d10f      	bne.n	6226 <tcp_input+0x6da>
    6206:	b101      	cbz	r1, 620a <tcp_input+0x6be>
    6208:	6013      	str	r3, [r2, #0]
    620a:	68f2      	ldr	r2, [r6, #12]
    620c:	60da      	str	r2, [r3, #12]
    620e:	4b65      	ldr	r3, [pc, #404]	; (63a4 <tcp_input+0x858>)
    6210:	2201      	movs	r2, #1
    6212:	701a      	strb	r2, [r3, #0]
    6214:	230a      	movs	r3, #10
    6216:	7633      	strb	r3, [r6, #24]
    6218:	4b63      	ldr	r3, [pc, #396]	; (63a8 <tcp_input+0x85c>)
    621a:	681a      	ldr	r2, [r3, #0]
    621c:	60f2      	str	r2, [r6, #12]
    621e:	601e      	str	r6, [r3, #0]
    6220:	4b62      	ldr	r3, [pc, #392]	; (63ac <tcp_input+0x860>)
    6222:	4798      	blx	r3
    6224:	e72e      	b.n	6084 <tcp_input+0x538>
    6226:	2101      	movs	r1, #1
    6228:	4603      	mov	r3, r0
    622a:	e7e6      	b.n	61fa <tcp_input+0x6ae>
    622c:	7fb3      	ldrb	r3, [r6, #30]
    622e:	f043 0302 	orr.w	r3, r3, #2
    6232:	77b3      	strb	r3, [r6, #30]
    6234:	2308      	movs	r3, #8
    6236:	e79d      	b.n	6174 <tcp_input+0x628>
    6238:	06df      	lsls	r7, r3, #27
    623a:	f57f af23 	bpl.w	6084 <tcp_input+0x538>
    623e:	6d32      	ldr	r2, [r6, #80]	; 0x50
    6240:	68a3      	ldr	r3, [r4, #8]
    6242:	429a      	cmp	r2, r3
    6244:	f47f af1e 	bne.w	6084 <tcp_input+0x538>
    6248:	2306      	movs	r3, #6
    624a:	e793      	b.n	6174 <tcp_input+0x628>
    624c:	4630      	mov	r0, r6
    624e:	4b4d      	ldr	r3, [pc, #308]	; (6384 <tcp_input+0x838>)
    6250:	4798      	blx	r3
    6252:	f894 302c 	ldrb.w	r3, [r4, #44]	; 0x2c
    6256:	0698      	lsls	r0, r3, #26
    6258:	f57f af14 	bpl.w	6084 <tcp_input+0x538>
    625c:	6a63      	ldr	r3, [r4, #36]	; 0x24
    625e:	4854      	ldr	r0, [pc, #336]	; (63b0 <tcp_input+0x864>)
    6260:	885a      	ldrh	r2, [r3, #2]
    6262:	8819      	ldrh	r1, [r3, #0]
    6264:	47b8      	blx	r7
    6266:	7fb3      	ldrb	r3, [r6, #30]
    6268:	f043 0302 	orr.w	r3, r3, #2
    626c:	77b3      	strb	r3, [r6, #30]
    626e:	4630      	mov	r0, r6
    6270:	4b49      	ldr	r3, [pc, #292]	; (6398 <tcp_input+0x84c>)
    6272:	4798      	blx	r3
    6274:	4a49      	ldr	r2, [pc, #292]	; (639c <tcp_input+0x850>)
    6276:	6813      	ldr	r3, [r2, #0]
    6278:	429e      	cmp	r6, r3
    627a:	d0b8      	beq.n	61ee <tcp_input+0x6a2>
    627c:	4a48      	ldr	r2, [pc, #288]	; (63a0 <tcp_input+0x854>)
    627e:	2100      	movs	r1, #0
    6280:	6013      	str	r3, [r2, #0]
    6282:	2b00      	cmp	r3, #0
    6284:	d0ba      	beq.n	61fc <tcp_input+0x6b0>
    6286:	68d8      	ldr	r0, [r3, #12]
    6288:	4286      	cmp	r6, r0
    628a:	d0bc      	beq.n	6206 <tcp_input+0x6ba>
    628c:	2101      	movs	r1, #1
    628e:	4603      	mov	r3, r0
    6290:	e7f7      	b.n	6282 <tcp_input+0x736>
    6292:	4b3c      	ldr	r3, [pc, #240]	; (6384 <tcp_input+0x838>)
    6294:	4630      	mov	r0, r6
    6296:	4798      	blx	r3
    6298:	7923      	ldrb	r3, [r4, #4]
    629a:	06d9      	lsls	r1, r3, #27
    629c:	f57f aef2 	bpl.w	6084 <tcp_input+0x538>
    62a0:	6d32      	ldr	r2, [r6, #80]	; 0x50
    62a2:	68a3      	ldr	r3, [r4, #8]
    62a4:	429a      	cmp	r2, r3
    62a6:	f47f aeed 	bne.w	6084 <tcp_input+0x538>
    62aa:	6a63      	ldr	r3, [r4, #36]	; 0x24
    62ac:	4841      	ldr	r0, [pc, #260]	; (63b4 <tcp_input+0x868>)
    62ae:	885a      	ldrh	r2, [r3, #2]
    62b0:	8819      	ldrh	r1, [r3, #0]
    62b2:	47b8      	blx	r7
    62b4:	4b38      	ldr	r3, [pc, #224]	; (6398 <tcp_input+0x84c>)
    62b6:	4630      	mov	r0, r6
    62b8:	4798      	blx	r3
    62ba:	4a38      	ldr	r2, [pc, #224]	; (639c <tcp_input+0x850>)
    62bc:	6813      	ldr	r3, [r2, #0]
    62be:	429e      	cmp	r6, r3
    62c0:	d095      	beq.n	61ee <tcp_input+0x6a2>
    62c2:	4a37      	ldr	r2, [pc, #220]	; (63a0 <tcp_input+0x854>)
    62c4:	2100      	movs	r1, #0
    62c6:	6013      	str	r3, [r2, #0]
    62c8:	2b00      	cmp	r3, #0
    62ca:	d097      	beq.n	61fc <tcp_input+0x6b0>
    62cc:	68d8      	ldr	r0, [r3, #12]
    62ce:	4286      	cmp	r6, r0
    62d0:	d099      	beq.n	6206 <tcp_input+0x6ba>
    62d2:	2101      	movs	r1, #1
    62d4:	4603      	mov	r3, r0
    62d6:	e7f7      	b.n	62c8 <tcp_input+0x77c>
    62d8:	4b2a      	ldr	r3, [pc, #168]	; (6384 <tcp_input+0x838>)
    62da:	4630      	mov	r0, r6
    62dc:	4798      	blx	r3
    62de:	7923      	ldrb	r3, [r4, #4]
    62e0:	06da      	lsls	r2, r3, #27
    62e2:	f57f aecf 	bpl.w	6084 <tcp_input+0x538>
    62e6:	6d32      	ldr	r2, [r6, #80]	; 0x50
    62e8:	68a3      	ldr	r3, [r4, #8]
    62ea:	429a      	cmp	r2, r3
    62ec:	f47f aeca 	bne.w	6084 <tcp_input+0x538>
    62f0:	6a63      	ldr	r3, [r4, #36]	; 0x24
    62f2:	4831      	ldr	r0, [pc, #196]	; (63b8 <tcp_input+0x86c>)
    62f4:	885a      	ldrh	r2, [r3, #2]
    62f6:	8819      	ldrh	r1, [r3, #0]
    62f8:	47b8      	blx	r7
    62fa:	f894 302c 	ldrb.w	r3, [r4, #44]	; 0x2c
    62fe:	f043 0310 	orr.w	r3, r3, #16
    6302:	f884 302c 	strb.w	r3, [r4, #44]	; 0x2c
    6306:	e6bd      	b.n	6084 <tcp_input+0x538>
    6308:	f8d6 308c 	ldr.w	r3, [r6, #140]	; 0x8c
    630c:	b11b      	cbz	r3, 6316 <tcp_input+0x7ca>
    630e:	f06f 010a 	mvn.w	r1, #10
    6312:	6930      	ldr	r0, [r6, #16]
    6314:	4798      	blx	r3
    6316:	4631      	mov	r1, r6
    6318:	4820      	ldr	r0, [pc, #128]	; (639c <tcp_input+0x850>)
    631a:	4b28      	ldr	r3, [pc, #160]	; (63bc <tcp_input+0x870>)
    631c:	4798      	blx	r3
    631e:	4631      	mov	r1, r6
    6320:	2002      	movs	r0, #2
    6322:	4b27      	ldr	r3, [pc, #156]	; (63c0 <tcp_input+0x874>)
    6324:	4798      	blx	r3
    6326:	e5f4      	b.n	5f12 <tcp_input+0x3c6>
    6328:	f8b6 2064 	ldrh.w	r2, [r6, #100]	; 0x64
    632c:	b9a2      	cbnz	r2, 6358 <tcp_input+0x80c>
    632e:	6aa2      	ldr	r2, [r4, #40]	; 0x28
    6330:	b9da      	cbnz	r2, 636a <tcp_input+0x81e>
    6332:	f894 302c 	ldrb.w	r3, [r4, #44]	; 0x2c
    6336:	0698      	lsls	r0, r3, #26
    6338:	d506      	bpl.n	6348 <tcp_input+0x7fc>
    633a:	6fb3      	ldr	r3, [r6, #120]	; 0x78
    633c:	2b00      	cmp	r3, #0
    633e:	d05b      	beq.n	63f8 <tcp_input+0x8ac>
    6340:	7b5a      	ldrb	r2, [r3, #13]
    6342:	f042 0220 	orr.w	r2, r2, #32
    6346:	735a      	strb	r2, [r3, #13]
    6348:	2300      	movs	r3, #0
    634a:	602b      	str	r3, [r5, #0]
    634c:	4630      	mov	r0, r6
    634e:	4b1d      	ldr	r3, [pc, #116]	; (63c4 <tcp_input+0x878>)
    6350:	4798      	blx	r3
    6352:	7e30      	ldrb	r0, [r6, #24]
    6354:	47c0      	blx	r8
    6356:	e5dc      	b.n	5f12 <tcp_input+0x3c6>
    6358:	6ff3      	ldr	r3, [r6, #124]	; 0x7c
    635a:	2b00      	cmp	r3, #0
    635c:	d0e7      	beq.n	632e <tcp_input+0x7e2>
    635e:	4631      	mov	r1, r6
    6360:	6930      	ldr	r0, [r6, #16]
    6362:	4798      	blx	r3
    6364:	300a      	adds	r0, #10
    6366:	d1e2      	bne.n	632e <tcp_input+0x7e2>
    6368:	e5d3      	b.n	5f12 <tcp_input+0x3c6>
    636a:	7fb3      	ldrb	r3, [r6, #30]
    636c:	f013 0310 	ands.w	r3, r3, #16
    6370:	d02c      	beq.n	63cc <tcp_input+0x880>
    6372:	4610      	mov	r0, r2
    6374:	4b14      	ldr	r3, [pc, #80]	; (63c8 <tcp_input+0x87c>)
    6376:	4798      	blx	r3
    6378:	e6d5      	b.n	6126 <tcp_input+0x5da>
    637a:	bf00      	nop
    637c:	0000bff7 	.word	0x0000bff7
    6380:	00004bf9 	.word	0x00004bf9
    6384:	000051ad 	.word	0x000051ad
    6388:	200080c0 	.word	0x200080c0
    638c:	200080b8 	.word	0x200080b8
    6390:	00006b79 	.word	0x00006b79
    6394:	0000c01f 	.word	0x0000c01f
    6398:	00004591 	.word	0x00004591
    639c:	2000908c 	.word	0x2000908c
    63a0:	20009098 	.word	0x20009098
    63a4:	20009088 	.word	0x20009088
    63a8:	200090a0 	.word	0x200090a0
    63ac:	00006e99 	.word	0x00006e99
    63b0:	0000c04e 	.word	0x0000c04e
    63b4:	0000c07d 	.word	0x0000c07d
    63b8:	0000c0a9 	.word	0x0000c0a9
    63bc:	0000496d 	.word	0x0000496d
    63c0:	00003b41 	.word	0x00003b41
    63c4:	000067b9 	.word	0x000067b9
    63c8:	00003f99 	.word	0x00003f99
    63cc:	f8d6 7080 	ldr.w	r7, [r6, #128]	; 0x80
    63d0:	b16f      	cbz	r7, 63ee <tcp_input+0x8a2>
    63d2:	6930      	ldr	r0, [r6, #16]
    63d4:	4631      	mov	r1, r6
    63d6:	47b8      	blx	r7
    63d8:	f110 0f0a 	cmn.w	r0, #10
    63dc:	f43f ad99 	beq.w	5f12 <tcp_input+0x3c6>
    63e0:	2800      	cmp	r0, #0
    63e2:	d0a6      	beq.n	6332 <tcp_input+0x7e6>
    63e4:	6aa3      	ldr	r3, [r4, #40]	; 0x28
    63e6:	67b3      	str	r3, [r6, #120]	; 0x78
    63e8:	481b      	ldr	r0, [pc, #108]	; (6458 <tcp_input+0x90c>)
    63ea:	47c8      	blx	r9
    63ec:	e7a1      	b.n	6332 <tcp_input+0x7e6>
    63ee:	463b      	mov	r3, r7
    63f0:	4638      	mov	r0, r7
    63f2:	4631      	mov	r1, r6
    63f4:	4f19      	ldr	r7, [pc, #100]	; (645c <tcp_input+0x910>)
    63f6:	e7ee      	b.n	63d6 <tcp_input+0x88a>
    63f8:	8db3      	ldrh	r3, [r6, #44]	; 0x2c
    63fa:	f8d6 7080 	ldr.w	r7, [r6, #128]	; 0x80
    63fe:	f241 62d0 	movw	r2, #5840	; 0x16d0
    6402:	4293      	cmp	r3, r2
    6404:	bf1c      	itt	ne
    6406:	3301      	addne	r3, #1
    6408:	85b3      	strhne	r3, [r6, #44]	; 0x2c
    640a:	2f00      	cmp	r7, #0
    640c:	d09c      	beq.n	6348 <tcp_input+0x7fc>
    640e:	2300      	movs	r3, #0
    6410:	461a      	mov	r2, r3
    6412:	4631      	mov	r1, r6
    6414:	6930      	ldr	r0, [r6, #16]
    6416:	47b8      	blx	r7
    6418:	300a      	adds	r0, #10
    641a:	d195      	bne.n	6348 <tcp_input+0x7fc>
    641c:	e579      	b.n	5f12 <tcp_input+0x3c6>
    641e:	68e3      	ldr	r3, [r4, #12]
    6420:	8998      	ldrh	r0, [r3, #12]
    6422:	47c0      	blx	r8
    6424:	0741      	lsls	r1, r0, #29
    6426:	f53f abb4 	bmi.w	5b92 <tcp_input+0x46>
    642a:	e010      	b.n	644e <tcp_input+0x902>
    642c:	b122      	cbz	r2, 6438 <tcp_input+0x8ec>
    642e:	68fb      	ldr	r3, [r7, #12]
    6430:	60d3      	str	r3, [r2, #12]
    6432:	4b0b      	ldr	r3, [pc, #44]	; (6460 <tcp_input+0x914>)
    6434:	60f8      	str	r0, [r7, #12]
    6436:	601f      	str	r7, [r3, #0]
    6438:	480a      	ldr	r0, [pc, #40]	; (6464 <tcp_input+0x918>)
    643a:	4e0b      	ldr	r6, [pc, #44]	; (6468 <tcp_input+0x91c>)
    643c:	47b0      	blx	r6
    643e:	7923      	ldrb	r3, [r4, #4]
    6440:	075a      	lsls	r2, r3, #29
    6442:	f53f aba6 	bmi.w	5b92 <tcp_input+0x46>
    6446:	f013 0810 	ands.w	r8, r3, #16
    644a:	f43f acfd 	beq.w	5e48 <tcp_input+0x2fc>
    644e:	68e3      	ldr	r3, [r4, #12]
    6450:	8a20      	ldrh	r0, [r4, #16]
    6452:	6821      	ldr	r1, [r4, #0]
    6454:	e48a      	b.n	5d6c <tcp_input+0x220>
    6456:	bf00      	nop
    6458:	0000c0d6 	.word	0x0000c0d6
    645c:	00004df1 	.word	0x00004df1
    6460:	20009094 	.word	0x20009094
    6464:	0000bf03 	.word	0x0000bf03
    6468:	00008595 	.word	0x00008595

0000646c <tcp_create_segment>:
    646c:	e92d 4ff8 	stmdb	sp!, {r3, r4, r5, r6, r7, r8, r9, sl, fp, lr}
    6470:	f89d 8028 	ldrb.w	r8, [sp, #40]	; 0x28
    6474:	f018 0f01 	tst.w	r8, #1
    6478:	bf14      	ite	ne
    647a:	2504      	movne	r5, #4
    647c:	2500      	moveq	r5, #0
    647e:	f018 0f02 	tst.w	r8, #2
    6482:	469a      	mov	sl, r3
    6484:	bf14      	ite	ne
    6486:	230c      	movne	r3, #12
    6488:	2300      	moveq	r3, #0
    648a:	4681      	mov	r9, r0
    648c:	441d      	add	r5, r3
    648e:	2004      	movs	r0, #4
    6490:	4b28      	ldr	r3, [pc, #160]	; (6534 <tcp_create_segment+0xc8>)
    6492:	460f      	mov	r7, r1
    6494:	4616      	mov	r6, r2
    6496:	4798      	blx	r3
    6498:	4604      	mov	r4, r0
    649a:	b940      	cbnz	r0, 64ae <tcp_create_segment+0x42>
    649c:	4b26      	ldr	r3, [pc, #152]	; (6538 <tcp_create_segment+0xcc>)
    649e:	4827      	ldr	r0, [pc, #156]	; (653c <tcp_create_segment+0xd0>)
    64a0:	4798      	blx	r3
    64a2:	4638      	mov	r0, r7
    64a4:	4b26      	ldr	r3, [pc, #152]	; (6540 <tcp_create_segment+0xd4>)
    64a6:	4798      	blx	r3
    64a8:	4620      	mov	r0, r4
    64aa:	e8bd 8ff8 	ldmia.w	sp!, {r3, r4, r5, r6, r7, r8, r9, sl, fp, pc}
    64ae:	f880 800c 	strb.w	r8, [r0, #12]
    64b2:	893b      	ldrh	r3, [r7, #8]
    64b4:	6047      	str	r7, [r0, #4]
    64b6:	f04f 0800 	mov.w	r8, #0
    64ba:	1b5b      	subs	r3, r3, r5
    64bc:	8103      	strh	r3, [r0, #8]
    64be:	f8c0 8000 	str.w	r8, [r0]
    64c2:	f8a0 800a 	strh.w	r8, [r0, #10]
    64c6:	2114      	movs	r1, #20
    64c8:	4638      	mov	r0, r7
    64ca:	4b1e      	ldr	r3, [pc, #120]	; (6544 <tcp_create_segment+0xd8>)
    64cc:	4798      	blx	r3
    64ce:	4607      	mov	r7, r0
    64d0:	b138      	cbz	r0, 64e2 <tcp_create_segment+0x76>
    64d2:	4b19      	ldr	r3, [pc, #100]	; (6538 <tcp_create_segment+0xcc>)
    64d4:	481c      	ldr	r0, [pc, #112]	; (6548 <tcp_create_segment+0xdc>)
    64d6:	4798      	blx	r3
    64d8:	4620      	mov	r0, r4
    64da:	4b1c      	ldr	r3, [pc, #112]	; (654c <tcp_create_segment+0xe0>)
    64dc:	4798      	blx	r3
    64de:	4644      	mov	r4, r8
    64e0:	e7e2      	b.n	64a8 <tcp_create_segment+0x3c>
    64e2:	6863      	ldr	r3, [r4, #4]
    64e4:	f8df 806c 	ldr.w	r8, [pc, #108]	; 6554 <tcp_create_segment+0xe8>
    64e8:	f8d3 b004 	ldr.w	fp, [r3, #4]
    64ec:	f8c4 b010 	str.w	fp, [r4, #16]
    64f0:	f8b9 001a 	ldrh.w	r0, [r9, #26]
    64f4:	47c0      	blx	r8
    64f6:	f8ab 0000 	strh.w	r0, [fp]
    64fa:	f8b9 001c 	ldrh.w	r0, [r9, #28]
    64fe:	f8d4 b010 	ldr.w	fp, [r4, #16]
    6502:	47c0      	blx	r8
    6504:	4b12      	ldr	r3, [pc, #72]	; (6550 <tcp_create_segment+0xe4>)
    6506:	f8ab 0002 	strh.w	r0, [fp, #2]
    650a:	4650      	mov	r0, sl
    650c:	f8d4 9010 	ldr.w	r9, [r4, #16]
    6510:	f3c5 0587 	ubfx	r5, r5, #2, #8
    6514:	4798      	blx	r3
    6516:	3505      	adds	r5, #5
    6518:	ea46 3505 	orr.w	r5, r6, r5, lsl #12
    651c:	f8c9 0004 	str.w	r0, [r9, #4]
    6520:	b2a8      	uxth	r0, r5
    6522:	f8d4 9010 	ldr.w	r9, [r4, #16]
    6526:	47c0      	blx	r8
    6528:	6923      	ldr	r3, [r4, #16]
    652a:	f8a9 000c 	strh.w	r0, [r9, #12]
    652e:	749f      	strb	r7, [r3, #18]
    6530:	74df      	strb	r7, [r3, #19]
    6532:	e7b9      	b.n	64a8 <tcp_create_segment+0x3c>
    6534:	00003ae9 	.word	0x00003ae9
    6538:	00008595 	.word	0x00008595
    653c:	0000c160 	.word	0x0000c160
    6540:	00003f99 	.word	0x00003f99
    6544:	00003f01 	.word	0x00003f01
    6548:	0000c17f 	.word	0x0000c17f
    654c:	00004521 	.word	0x00004521
    6550:	000011f9 	.word	0x000011f9
    6554:	000011ed 	.word	0x000011ed

00006558 <tcp_output_alloc_header.constprop.0>:
    6558:	3114      	adds	r1, #20
    655a:	e92d 41f0 	stmdb	sp!, {r4, r5, r6, r7, r8, lr}
    655e:	b289      	uxth	r1, r1
    6560:	4605      	mov	r5, r0
    6562:	4690      	mov	r8, r2
    6564:	2001      	movs	r0, #1
    6566:	2200      	movs	r2, #0
    6568:	4b12      	ldr	r3, [pc, #72]	; (65b4 <tcp_output_alloc_header.constprop.0+0x5c>)
    656a:	4798      	blx	r3
    656c:	4607      	mov	r7, r0
    656e:	b1e8      	cbz	r0, 65ac <tcp_output_alloc_header.constprop.0+0x54>
    6570:	6844      	ldr	r4, [r0, #4]
    6572:	4e11      	ldr	r6, [pc, #68]	; (65b8 <tcp_output_alloc_header.constprop.0+0x60>)
    6574:	8b68      	ldrh	r0, [r5, #26]
    6576:	47b0      	blx	r6
    6578:	8020      	strh	r0, [r4, #0]
    657a:	8ba8      	ldrh	r0, [r5, #28]
    657c:	47b0      	blx	r6
    657e:	4b0f      	ldr	r3, [pc, #60]	; (65bc <tcp_output_alloc_header.constprop.0+0x64>)
    6580:	8060      	strh	r0, [r4, #2]
    6582:	f8c4 8004 	str.w	r8, [r4, #4]
    6586:	6aa8      	ldr	r0, [r5, #40]	; 0x28
    6588:	4798      	blx	r3
    658a:	60a0      	str	r0, [r4, #8]
    658c:	f245 0010 	movw	r0, #20496	; 0x5010
    6590:	47b0      	blx	r6
    6592:	81a0      	strh	r0, [r4, #12]
    6594:	8de8      	ldrh	r0, [r5, #46]	; 0x2e
    6596:	47b0      	blx	r6
    6598:	2300      	movs	r3, #0
    659a:	7423      	strb	r3, [r4, #16]
    659c:	7463      	strb	r3, [r4, #17]
    659e:	74a3      	strb	r3, [r4, #18]
    65a0:	74e3      	strb	r3, [r4, #19]
    65a2:	8dea      	ldrh	r2, [r5, #46]	; 0x2e
    65a4:	6aab      	ldr	r3, [r5, #40]	; 0x28
    65a6:	81e0      	strh	r0, [r4, #14]
    65a8:	4413      	add	r3, r2
    65aa:	632b      	str	r3, [r5, #48]	; 0x30
    65ac:	4638      	mov	r0, r7
    65ae:	e8bd 81f0 	ldmia.w	sp!, {r4, r5, r6, r7, r8, pc}
    65b2:	bf00      	nop
    65b4:	00004039 	.word	0x00004039
    65b8:	000011ed 	.word	0x000011ed
    65bc:	000011f9 	.word	0x000011f9

000065c0 <tcp_enqueue_flags>:
    65c0:	e92d 43f7 	stmdb	sp!, {r0, r1, r2, r4, r5, r6, r7, r8, r9, lr}
    65c4:	460e      	mov	r6, r1
    65c6:	f8b0 1068 	ldrh.w	r1, [r0, #104]	; 0x68
    65ca:	2907      	cmp	r1, #7
    65cc:	4604      	mov	r4, r0
    65ce:	d908      	bls.n	65e2 <tcp_enqueue_flags+0x22>
    65d0:	2208      	movs	r2, #8
    65d2:	4835      	ldr	r0, [pc, #212]	; (66a8 <tcp_enqueue_flags+0xe8>)
    65d4:	4b35      	ldr	r3, [pc, #212]	; (66ac <tcp_enqueue_flags+0xec>)
    65d6:	4798      	blx	r3
    65d8:	7fa3      	ldrb	r3, [r4, #30]
    65da:	f063 037f 	orn	r3, r3, #127	; 0x7f
    65de:	77a3      	strb	r3, [r4, #30]
    65e0:	e00d      	b.n	65fe <tcp_enqueue_flags+0x3e>
    65e2:	f006 0302 	and.w	r3, r6, #2
    65e6:	2b00      	cmp	r3, #0
    65e8:	f8b0 3066 	ldrh.w	r3, [r0, #102]	; 0x66
    65ec:	bf15      	itete	ne
    65ee:	2501      	movne	r5, #1
    65f0:	2500      	moveq	r5, #0
    65f2:	2104      	movne	r1, #4
    65f4:	2100      	moveq	r1, #0
    65f6:	b93b      	cbnz	r3, 6608 <tcp_enqueue_flags+0x48>
    65f8:	482d      	ldr	r0, [pc, #180]	; (66b0 <tcp_enqueue_flags+0xf0>)
    65fa:	4b2e      	ldr	r3, [pc, #184]	; (66b4 <tcp_enqueue_flags+0xf4>)
    65fc:	4798      	blx	r3
    65fe:	f04f 30ff 	mov.w	r0, #4294967295
    6602:	b003      	add	sp, #12
    6604:	e8bd 83f0 	ldmia.w	sp!, {r4, r5, r6, r7, r8, r9, pc}
    6608:	2200      	movs	r2, #0
    660a:	4610      	mov	r0, r2
    660c:	4b2a      	ldr	r3, [pc, #168]	; (66b8 <tcp_enqueue_flags+0xf8>)
    660e:	4798      	blx	r3
    6610:	4601      	mov	r1, r0
    6612:	2800      	cmp	r0, #0
    6614:	d0e0      	beq.n	65d8 <tcp_enqueue_flags+0x18>
    6616:	9500      	str	r5, [sp, #0]
    6618:	6de3      	ldr	r3, [r4, #92]	; 0x5c
    661a:	4d28      	ldr	r5, [pc, #160]	; (66bc <tcp_enqueue_flags+0xfc>)
    661c:	4632      	mov	r2, r6
    661e:	4620      	mov	r0, r4
    6620:	47a8      	blx	r5
    6622:	4605      	mov	r5, r0
    6624:	2800      	cmp	r0, #0
    6626:	d0d7      	beq.n	65d8 <tcp_enqueue_flags+0x18>
    6628:	6903      	ldr	r3, [r0, #16]
    662a:	4f25      	ldr	r7, [pc, #148]	; (66c0 <tcp_enqueue_flags+0x100>)
    662c:	6858      	ldr	r0, [r3, #4]
    662e:	47b8      	blx	r7
    6630:	692b      	ldr	r3, [r5, #16]
    6632:	4680      	mov	r8, r0
    6634:	6858      	ldr	r0, [r3, #4]
    6636:	47b8      	blx	r7
    6638:	692b      	ldr	r3, [r5, #16]
    663a:	f8b5 9008 	ldrh.w	r9, [r5, #8]
    663e:	4607      	mov	r7, r0
    6640:	8998      	ldrh	r0, [r3, #12]
    6642:	4b20      	ldr	r3, [pc, #128]	; (66c4 <tcp_enqueue_flags+0x104>)
    6644:	4798      	blx	r3
    6646:	f010 0003 	ands.w	r0, r0, #3
    664a:	bf18      	it	ne
    664c:	2001      	movne	r0, #1
    664e:	4448      	add	r0, r9
    6650:	19c2      	adds	r2, r0, r7
    6652:	4633      	mov	r3, r6
    6654:	4641      	mov	r1, r8
    6656:	481c      	ldr	r0, [pc, #112]	; (66c8 <tcp_enqueue_flags+0x108>)
    6658:	4f14      	ldr	r7, [pc, #80]	; (66ac <tcp_enqueue_flags+0xec>)
    665a:	47b8      	blx	r7
    665c:	6ee3      	ldr	r3, [r4, #108]	; 0x6c
    665e:	b9f3      	cbnz	r3, 669e <tcp_enqueue_flags+0xde>
    6660:	66e5      	str	r5, [r4, #108]	; 0x6c
    6662:	2300      	movs	r3, #0
    6664:	07b2      	lsls	r2, r6, #30
    6666:	f8a4 306a 	strh.w	r3, [r4, #106]	; 0x6a
    666a:	d007      	beq.n	667c <tcp_enqueue_flags+0xbc>
    666c:	6de3      	ldr	r3, [r4, #92]	; 0x5c
    666e:	3301      	adds	r3, #1
    6670:	65e3      	str	r3, [r4, #92]	; 0x5c
    6672:	f8b4 3066 	ldrh.w	r3, [r4, #102]	; 0x66
    6676:	3b01      	subs	r3, #1
    6678:	f8a4 3066 	strh.w	r3, [r4, #102]	; 0x66
    667c:	07f3      	lsls	r3, r6, #31
    667e:	bf42      	ittt	mi
    6680:	7fa3      	ldrbmi	r3, [r4, #30]
    6682:	f043 0320 	orrmi.w	r3, r3, #32
    6686:	77a3      	strbmi	r3, [r4, #30]
    6688:	6868      	ldr	r0, [r5, #4]
    668a:	4b10      	ldr	r3, [pc, #64]	; (66cc <tcp_enqueue_flags+0x10c>)
    668c:	4798      	blx	r3
    668e:	f8b4 3068 	ldrh.w	r3, [r4, #104]	; 0x68
    6692:	4418      	add	r0, r3
    6694:	f8a4 0068 	strh.w	r0, [r4, #104]	; 0x68
    6698:	2000      	movs	r0, #0
    669a:	e7b2      	b.n	6602 <tcp_enqueue_flags+0x42>
    669c:	4613      	mov	r3, r2
    669e:	681a      	ldr	r2, [r3, #0]
    66a0:	2a00      	cmp	r2, #0
    66a2:	d1fb      	bne.n	669c <tcp_enqueue_flags+0xdc>
    66a4:	601d      	str	r5, [r3, #0]
    66a6:	e7dc      	b.n	6662 <tcp_enqueue_flags+0xa2>
    66a8:	0000c3a7 	.word	0x0000c3a7
    66ac:	00008485 	.word	0x00008485
    66b0:	0000c3d8 	.word	0x0000c3d8
    66b4:	00008595 	.word	0x00008595
    66b8:	00004039 	.word	0x00004039
    66bc:	0000646d 	.word	0x0000646d
    66c0:	000011fd 	.word	0x000011fd
    66c4:	000011f3 	.word	0x000011f3
    66c8:	0000c404 	.word	0x0000c404
    66cc:	00004205 	.word	0x00004205

000066d0 <tcp_send_fin>:
    66d0:	e92d 41f0 	stmdb	sp!, {r4, r5, r6, r7, r8, lr}
    66d4:	6ec4      	ldr	r4, [r0, #108]	; 0x6c
    66d6:	4605      	mov	r5, r0
    66d8:	b934      	cbnz	r4, 66e8 <tcp_send_fin+0x18>
    66da:	4628      	mov	r0, r5
    66dc:	2101      	movs	r1, #1
    66de:	4b0e      	ldr	r3, [pc, #56]	; (6718 <tcp_send_fin+0x48>)
    66e0:	e8bd 41f0 	ldmia.w	sp!, {r4, r5, r6, r7, r8, lr}
    66e4:	4718      	bx	r3
    66e6:	461c      	mov	r4, r3
    66e8:	6823      	ldr	r3, [r4, #0]
    66ea:	2b00      	cmp	r3, #0
    66ec:	d1fb      	bne.n	66e6 <tcp_send_fin+0x16>
    66ee:	6923      	ldr	r3, [r4, #16]
    66f0:	8998      	ldrh	r0, [r3, #12]
    66f2:	4b0a      	ldr	r3, [pc, #40]	; (671c <tcp_send_fin+0x4c>)
    66f4:	4798      	blx	r3
    66f6:	f010 0707 	ands.w	r7, r0, #7
    66fa:	d1ee      	bne.n	66da <tcp_send_fin+0xa>
    66fc:	6926      	ldr	r6, [r4, #16]
    66fe:	4b08      	ldr	r3, [pc, #32]	; (6720 <tcp_send_fin+0x50>)
    6700:	89b4      	ldrh	r4, [r6, #12]
    6702:	2001      	movs	r0, #1
    6704:	4798      	blx	r3
    6706:	4320      	orrs	r0, r4
    6708:	81b0      	strh	r0, [r6, #12]
    670a:	7fab      	ldrb	r3, [r5, #30]
    670c:	f043 0320 	orr.w	r3, r3, #32
    6710:	77ab      	strb	r3, [r5, #30]
    6712:	4638      	mov	r0, r7
    6714:	e8bd 81f0 	ldmia.w	sp!, {r4, r5, r6, r7, r8, pc}
    6718:	000065c1 	.word	0x000065c1
    671c:	000011f3 	.word	0x000011f3
    6720:	000011ed 	.word	0x000011ed

00006724 <tcp_send_empty_ack>:
    6724:	e92d 41f3 	stmdb	sp!, {r0, r1, r4, r5, r6, r7, r8, lr}
    6728:	4b1a      	ldr	r3, [pc, #104]	; (6794 <tcp_send_empty_ack+0x70>)
    672a:	4604      	mov	r4, r0
    672c:	6d00      	ldr	r0, [r0, #80]	; 0x50
    672e:	4798      	blx	r3
    6730:	2100      	movs	r1, #0
    6732:	4602      	mov	r2, r0
    6734:	4b18      	ldr	r3, [pc, #96]	; (6798 <tcp_send_empty_ack+0x74>)
    6736:	4620      	mov	r0, r4
    6738:	4798      	blx	r3
    673a:	4605      	mov	r5, r0
    673c:	b938      	cbnz	r0, 674e <tcp_send_empty_ack+0x2a>
    673e:	4817      	ldr	r0, [pc, #92]	; (679c <tcp_send_empty_ack+0x78>)
    6740:	4b17      	ldr	r3, [pc, #92]	; (67a0 <tcp_send_empty_ack+0x7c>)
    6742:	4798      	blx	r3
    6744:	f06f 0001 	mvn.w	r0, #1
    6748:	b002      	add	sp, #8
    674a:	e8bd 81f0 	ldmia.w	sp!, {r4, r5, r6, r7, r8, pc}
    674e:	6847      	ldr	r7, [r0, #4]
    6750:	6aa1      	ldr	r1, [r4, #40]	; 0x28
    6752:	4b14      	ldr	r3, [pc, #80]	; (67a4 <tcp_send_empty_ack+0x80>)
    6754:	4814      	ldr	r0, [pc, #80]	; (67a8 <tcp_send_empty_ack+0x84>)
    6756:	f8df 805c 	ldr.w	r8, [pc, #92]	; 67b4 <tcp_send_empty_ack+0x90>
    675a:	4798      	blx	r3
    675c:	7fa3      	ldrb	r3, [r4, #30]
    675e:	f023 0303 	bic.w	r3, r3, #3
    6762:	77a3      	strb	r3, [r4, #30]
    6764:	1d26      	adds	r6, r4, #4
    6766:	892b      	ldrh	r3, [r5, #8]
    6768:	9300      	str	r3, [sp, #0]
    676a:	4621      	mov	r1, r4
    676c:	2306      	movs	r3, #6
    676e:	4632      	mov	r2, r6
    6770:	4628      	mov	r0, r5
    6772:	47c0      	blx	r8
    6774:	2206      	movs	r2, #6
    6776:	8238      	strh	r0, [r7, #16]
    6778:	7aa3      	ldrb	r3, [r4, #10]
    677a:	9201      	str	r2, [sp, #4]
    677c:	7a62      	ldrb	r2, [r4, #9]
    677e:	9200      	str	r2, [sp, #0]
    6780:	4621      	mov	r1, r4
    6782:	4632      	mov	r2, r6
    6784:	4628      	mov	r0, r5
    6786:	4c09      	ldr	r4, [pc, #36]	; (67ac <tcp_send_empty_ack+0x88>)
    6788:	47a0      	blx	r4
    678a:	4628      	mov	r0, r5
    678c:	4b08      	ldr	r3, [pc, #32]	; (67b0 <tcp_send_empty_ack+0x8c>)
    678e:	4798      	blx	r3
    6790:	2000      	movs	r0, #0
    6792:	e7d9      	b.n	6748 <tcp_send_empty_ack+0x24>
    6794:	000011f9 	.word	0x000011f9
    6798:	00006559 	.word	0x00006559
    679c:	0000c42f 	.word	0x0000c42f
    67a0:	00008595 	.word	0x00008595
    67a4:	00008485 	.word	0x00008485
    67a8:	0000c459 	.word	0x0000c459
    67ac:	000030e9 	.word	0x000030e9
    67b0:	00003f99 	.word	0x00003f99
    67b4:	00002ad5 	.word	0x00002ad5

000067b8 <tcp_output>:
    67b8:	4ba3      	ldr	r3, [pc, #652]	; (6a48 <tcp_output+0x290>)
    67ba:	681b      	ldr	r3, [r3, #0]
    67bc:	4283      	cmp	r3, r0
    67be:	e92d 4ff7 	stmdb	sp!, {r0, r1, r2, r4, r5, r6, r7, r8, r9, sl, fp, lr}
    67c2:	4604      	mov	r4, r0
    67c4:	d02a      	beq.n	681c <tcp_output+0x64>
    67c6:	f8b0 2060 	ldrh.w	r2, [r0, #96]	; 0x60
    67ca:	f8b0 304c 	ldrh.w	r3, [r0, #76]	; 0x4c
    67ce:	6ec5      	ldr	r5, [r0, #108]	; 0x6c
    67d0:	429a      	cmp	r2, r3
    67d2:	bf28      	it	cs
    67d4:	461a      	movcs	r2, r3
    67d6:	7f83      	ldrb	r3, [r0, #30]
    67d8:	079b      	lsls	r3, r3, #30
    67da:	4692      	mov	sl, r2
    67dc:	d510      	bpl.n	6800 <tcp_output+0x48>
    67de:	b92d      	cbnz	r5, 67ec <tcp_output+0x34>
    67e0:	4b9a      	ldr	r3, [pc, #616]	; (6a4c <tcp_output+0x294>)
    67e2:	4620      	mov	r0, r4
    67e4:	b003      	add	sp, #12
    67e6:	e8bd 4ff0 	ldmia.w	sp!, {r4, r5, r6, r7, r8, r9, sl, fp, lr}
    67ea:	4718      	bx	r3
    67ec:	692b      	ldr	r3, [r5, #16]
    67ee:	6858      	ldr	r0, [r3, #4]
    67f0:	4b97      	ldr	r3, [pc, #604]	; (6a50 <tcp_output+0x298>)
    67f2:	4798      	blx	r3
    67f4:	892b      	ldrh	r3, [r5, #8]
    67f6:	6ca2      	ldr	r2, [r4, #72]	; 0x48
    67f8:	1a9b      	subs	r3, r3, r2
    67fa:	4418      	add	r0, r3
    67fc:	4582      	cmp	sl, r0
    67fe:	d3ef      	bcc.n	67e0 <tcp_output+0x28>
    6800:	6f26      	ldr	r6, [r4, #112]	; 0x70
    6802:	b986      	cbnz	r6, 6826 <tcp_output+0x6e>
    6804:	2d00      	cmp	r5, #0
    6806:	d141      	bne.n	688c <tcp_output+0xd4>
    6808:	6ee1      	ldr	r1, [r4, #108]	; 0x6c
    680a:	4892      	ldr	r0, [pc, #584]	; (6a54 <tcp_output+0x29c>)
    680c:	4b92      	ldr	r3, [pc, #584]	; (6a58 <tcp_output+0x2a0>)
    680e:	4798      	blx	r3
    6810:	6ee3      	ldr	r3, [r4, #108]	; 0x6c
    6812:	b31b      	cbz	r3, 685c <tcp_output+0xa4>
    6814:	7fa3      	ldrb	r3, [r4, #30]
    6816:	f003 037f 	and.w	r3, r3, #127	; 0x7f
    681a:	77a3      	strb	r3, [r4, #30]
    681c:	2000      	movs	r0, #0
    681e:	b003      	add	sp, #12
    6820:	e8bd 8ff0 	ldmia.w	sp!, {r4, r5, r6, r7, r8, r9, sl, fp, pc}
    6824:	461e      	mov	r6, r3
    6826:	6833      	ldr	r3, [r6, #0]
    6828:	2b00      	cmp	r3, #0
    682a:	d1fb      	bne.n	6824 <tcp_output+0x6c>
    682c:	e7ea      	b.n	6804 <tcp_output+0x4c>
    682e:	692b      	ldr	r3, [r5, #16]
    6830:	6858      	ldr	r0, [r3, #4]
    6832:	47b8      	blx	r7
    6834:	6933      	ldr	r3, [r6, #16]
    6836:	4680      	mov	r8, r0
    6838:	6858      	ldr	r0, [r3, #4]
    683a:	47b8      	blx	r7
    683c:	eba8 0000 	sub.w	r0, r8, r0
    6840:	2800      	cmp	r0, #0
    6842:	da1d      	bge.n	6880 <tcp_output+0xc8>
    6844:	f104 0870 	add.w	r8, r4, #112	; 0x70
    6848:	f8d8 3000 	ldr.w	r3, [r8]
    684c:	b953      	cbnz	r3, 6864 <tcp_output+0xac>
    684e:	f8d8 3000 	ldr.w	r3, [r8]
    6852:	602b      	str	r3, [r5, #0]
    6854:	f8c8 5000 	str.w	r5, [r8]
    6858:	6ee5      	ldr	r5, [r4, #108]	; 0x6c
    685a:	b9c5      	cbnz	r5, 688e <tcp_output+0xd6>
    685c:	2300      	movs	r3, #0
    685e:	f8a4 306a 	strh.w	r3, [r4, #106]	; 0x6a
    6862:	e7d7      	b.n	6814 <tcp_output+0x5c>
    6864:	691b      	ldr	r3, [r3, #16]
    6866:	6858      	ldr	r0, [r3, #4]
    6868:	47b8      	blx	r7
    686a:	692b      	ldr	r3, [r5, #16]
    686c:	4681      	mov	r9, r0
    686e:	6858      	ldr	r0, [r3, #4]
    6870:	47b8      	blx	r7
    6872:	eba9 0000 	sub.w	r0, r9, r0
    6876:	2800      	cmp	r0, #0
    6878:	dae9      	bge.n	684e <tcp_output+0x96>
    687a:	f8d8 8000 	ldr.w	r8, [r8]
    687e:	e7e3      	b.n	6848 <tcp_output+0x90>
    6880:	6035      	str	r5, [r6, #0]
    6882:	e0da      	b.n	6a3a <tcp_output+0x282>
    6884:	4628      	mov	r0, r5
    6886:	4b75      	ldr	r3, [pc, #468]	; (6a5c <tcp_output+0x2a4>)
    6888:	4798      	blx	r3
    688a:	e7e5      	b.n	6858 <tcp_output+0xa0>
    688c:	4f70      	ldr	r7, [pc, #448]	; (6a50 <tcp_output+0x298>)
    688e:	692b      	ldr	r3, [r5, #16]
    6890:	6858      	ldr	r0, [r3, #4]
    6892:	4b6f      	ldr	r3, [pc, #444]	; (6a50 <tcp_output+0x298>)
    6894:	4798      	blx	r3
    6896:	6ca3      	ldr	r3, [r4, #72]	; 0x48
    6898:	1ac0      	subs	r0, r0, r3
    689a:	892b      	ldrh	r3, [r5, #8]
    689c:	4418      	add	r0, r3
    689e:	4582      	cmp	sl, r0
    68a0:	d3b6      	bcc.n	6810 <tcp_output+0x58>
    68a2:	6f23      	ldr	r3, [r4, #112]	; 0x70
    68a4:	b19b      	cbz	r3, 68ce <tcp_output+0x116>
    68a6:	7fa2      	ldrb	r2, [r4, #30]
    68a8:	f012 0f44 	tst.w	r2, #68	; 0x44
    68ac:	d10f      	bne.n	68ce <tcp_output+0x116>
    68ae:	6ee3      	ldr	r3, [r4, #108]	; 0x6c
    68b0:	b12b      	cbz	r3, 68be <tcp_output+0x106>
    68b2:	6819      	ldr	r1, [r3, #0]
    68b4:	b959      	cbnz	r1, 68ce <tcp_output+0x116>
    68b6:	8919      	ldrh	r1, [r3, #8]
    68b8:	8ee3      	ldrh	r3, [r4, #54]	; 0x36
    68ba:	4299      	cmp	r1, r3
    68bc:	d207      	bcs.n	68ce <tcp_output+0x116>
    68be:	f8b4 3066 	ldrh.w	r3, [r4, #102]	; 0x66
    68c2:	b123      	cbz	r3, 68ce <tcp_output+0x116>
    68c4:	f8b4 3068 	ldrh.w	r3, [r4, #104]	; 0x68
    68c8:	2b07      	cmp	r3, #7
    68ca:	f240 80b8 	bls.w	6a3e <tcp_output+0x286>
    68ce:	682b      	ldr	r3, [r5, #0]
    68d0:	66e3      	str	r3, [r4, #108]	; 0x6c
    68d2:	7e23      	ldrb	r3, [r4, #24]
    68d4:	2b02      	cmp	r3, #2
    68d6:	d00e      	beq.n	68f6 <tcp_output+0x13e>
    68d8:	f8d5 9010 	ldr.w	r9, [r5, #16]
    68dc:	4b60      	ldr	r3, [pc, #384]	; (6a60 <tcp_output+0x2a8>)
    68de:	f8b9 800c 	ldrh.w	r8, [r9, #12]
    68e2:	2010      	movs	r0, #16
    68e4:	4798      	blx	r3
    68e6:	ea48 0000 	orr.w	r0, r8, r0
    68ea:	f8a9 000c 	strh.w	r0, [r9, #12]
    68ee:	7fa3      	ldrb	r3, [r4, #30]
    68f0:	f023 0303 	bic.w	r3, r3, #3
    68f4:	77a3      	strb	r3, [r4, #30]
    68f6:	6aa0      	ldr	r0, [r4, #40]	; 0x28
    68f8:	f8df 817c 	ldr.w	r8, [pc, #380]	; 6a78 <tcp_output+0x2c0>
    68fc:	f8d5 9010 	ldr.w	r9, [r5, #16]
    6900:	47c0      	blx	r8
    6902:	4b57      	ldr	r3, [pc, #348]	; (6a60 <tcp_output+0x2a8>)
    6904:	f8c9 0008 	str.w	r0, [r9, #8]
    6908:	8de0      	ldrh	r0, [r4, #46]	; 0x2e
    690a:	f8d5 9010 	ldr.w	r9, [r5, #16]
    690e:	4798      	blx	r3
    6910:	8de2      	ldrh	r2, [r4, #46]	; 0x2e
    6912:	6aa3      	ldr	r3, [r4, #40]	; 0x28
    6914:	f8a9 000e 	strh.w	r0, [r9, #14]
    6918:	4413      	add	r3, r2
    691a:	6323      	str	r3, [r4, #48]	; 0x30
    691c:	7b2b      	ldrb	r3, [r5, #12]
    691e:	f013 0f01 	tst.w	r3, #1
    6922:	f104 0904 	add.w	r9, r4, #4
    6926:	d00b      	beq.n	6940 <tcp_output+0x188>
    6928:	4649      	mov	r1, r9
    692a:	4b4e      	ldr	r3, [pc, #312]	; (6a64 <tcp_output+0x2ac>)
    692c:	f8d5 b010 	ldr.w	fp, [r5, #16]
    6930:	f240 50b4 	movw	r0, #1460	; 0x5b4
    6934:	4798      	blx	r3
    6936:	f040 7001 	orr.w	r0, r0, #33816576	; 0x2040000
    693a:	47c0      	blx	r8
    693c:	f8cb 0014 	str.w	r0, [fp, #20]
    6940:	f9b4 3034 	ldrsh.w	r3, [r4, #52]	; 0x34
    6944:	3301      	adds	r3, #1
    6946:	bf04      	itt	eq
    6948:	2300      	moveq	r3, #0
    694a:	86a3      	strheq	r3, [r4, #52]	; 0x34
    694c:	6823      	ldr	r3, [r4, #0]
    694e:	b933      	cbnz	r3, 695e <tcp_output+0x1a6>
    6950:	4648      	mov	r0, r9
    6952:	4b45      	ldr	r3, [pc, #276]	; (6a68 <tcp_output+0x2b0>)
    6954:	4798      	blx	r3
    6956:	2800      	cmp	r0, #0
    6958:	d044      	beq.n	69e4 <tcp_output+0x22c>
    695a:	6843      	ldr	r3, [r0, #4]
    695c:	6023      	str	r3, [r4, #0]
    695e:	6ba3      	ldr	r3, [r4, #56]	; 0x38
    6960:	b953      	cbnz	r3, 6978 <tcp_output+0x1c0>
    6962:	4b42      	ldr	r3, [pc, #264]	; (6a6c <tcp_output+0x2b4>)
    6964:	681b      	ldr	r3, [r3, #0]
    6966:	63a3      	str	r3, [r4, #56]	; 0x38
    6968:	692b      	ldr	r3, [r5, #16]
    696a:	6858      	ldr	r0, [r3, #4]
    696c:	47b8      	blx	r7
    696e:	4b3a      	ldr	r3, [pc, #232]	; (6a58 <tcp_output+0x2a0>)
    6970:	63e0      	str	r0, [r4, #60]	; 0x3c
    6972:	4601      	mov	r1, r0
    6974:	483e      	ldr	r0, [pc, #248]	; (6a70 <tcp_output+0x2b8>)
    6976:	4798      	blx	r3
    6978:	692b      	ldr	r3, [r5, #16]
    697a:	6858      	ldr	r0, [r3, #4]
    697c:	47c0      	blx	r8
    697e:	692b      	ldr	r3, [r5, #16]
    6980:	4683      	mov	fp, r0
    6982:	6858      	ldr	r0, [r3, #4]
    6984:	47c0      	blx	r8
    6986:	892a      	ldrh	r2, [r5, #8]
    6988:	4b33      	ldr	r3, [pc, #204]	; (6a58 <tcp_output+0x2a0>)
    698a:	4402      	add	r2, r0
    698c:	4659      	mov	r1, fp
    698e:	4839      	ldr	r0, [pc, #228]	; (6a74 <tcp_output+0x2bc>)
    6990:	f8df b0e8 	ldr.w	fp, [pc, #232]	; 6a7c <tcp_output+0x2c4>
    6994:	4798      	blx	r3
    6996:	6868      	ldr	r0, [r5, #4]
    6998:	f8d5 8010 	ldr.w	r8, [r5, #16]
    699c:	6843      	ldr	r3, [r0, #4]
    699e:	f8c0 8004 	str.w	r8, [r0, #4]
    69a2:	eba8 0303 	sub.w	r3, r8, r3
    69a6:	b29a      	uxth	r2, r3
    69a8:	8943      	ldrh	r3, [r0, #10]
    69aa:	1a9b      	subs	r3, r3, r2
    69ac:	8143      	strh	r3, [r0, #10]
    69ae:	8903      	ldrh	r3, [r0, #8]
    69b0:	1a9b      	subs	r3, r3, r2
    69b2:	b29b      	uxth	r3, r3
    69b4:	2200      	movs	r2, #0
    69b6:	8103      	strh	r3, [r0, #8]
    69b8:	4621      	mov	r1, r4
    69ba:	f888 2010 	strb.w	r2, [r8, #16]
    69be:	f888 2011 	strb.w	r2, [r8, #17]
    69c2:	9300      	str	r3, [sp, #0]
    69c4:	464a      	mov	r2, r9
    69c6:	2306      	movs	r3, #6
    69c8:	47d8      	blx	fp
    69ca:	2206      	movs	r2, #6
    69cc:	f8a8 0010 	strh.w	r0, [r8, #16]
    69d0:	9201      	str	r2, [sp, #4]
    69d2:	7a62      	ldrb	r2, [r4, #9]
    69d4:	9200      	str	r2, [sp, #0]
    69d6:	7aa3      	ldrb	r3, [r4, #10]
    69d8:	6868      	ldr	r0, [r5, #4]
    69da:	f8df 80a4 	ldr.w	r8, [pc, #164]	; 6a80 <tcp_output+0x2c8>
    69de:	464a      	mov	r2, r9
    69e0:	4621      	mov	r1, r4
    69e2:	47c0      	blx	r8
    69e4:	692b      	ldr	r3, [r5, #16]
    69e6:	f8df 809c 	ldr.w	r8, [pc, #156]	; 6a84 <tcp_output+0x2cc>
    69ea:	6858      	ldr	r0, [r3, #4]
    69ec:	47b8      	blx	r7
    69ee:	692b      	ldr	r3, [r5, #16]
    69f0:	f8b5 b008 	ldrh.w	fp, [r5, #8]
    69f4:	4681      	mov	r9, r0
    69f6:	8998      	ldrh	r0, [r3, #12]
    69f8:	47c0      	blx	r8
    69fa:	f010 0003 	ands.w	r0, r0, #3
    69fe:	bf18      	it	ne
    6a00:	2001      	movne	r0, #1
    6a02:	6d23      	ldr	r3, [r4, #80]	; 0x50
    6a04:	692a      	ldr	r2, [r5, #16]
    6a06:	4458      	add	r0, fp
    6a08:	4448      	add	r0, r9
    6a0a:	1a1b      	subs	r3, r3, r0
    6a0c:	2b00      	cmp	r3, #0
    6a0e:	bfb8      	it	lt
    6a10:	6520      	strlt	r0, [r4, #80]	; 0x50
    6a12:	4643      	mov	r3, r8
    6a14:	8990      	ldrh	r0, [r2, #12]
    6a16:	f8b5 8008 	ldrh.w	r8, [r5, #8]
    6a1a:	4798      	blx	r3
    6a1c:	f010 0003 	ands.w	r0, r0, #3
    6a20:	bf18      	it	ne
    6a22:	2001      	movne	r0, #1
    6a24:	eb10 0f08 	cmn.w	r0, r8
    6a28:	f43f af2c 	beq.w	6884 <tcp_output+0xcc>
    6a2c:	2300      	movs	r3, #0
    6a2e:	602b      	str	r3, [r5, #0]
    6a30:	6f23      	ldr	r3, [r4, #112]	; 0x70
    6a32:	2b00      	cmp	r3, #0
    6a34:	f47f aefb 	bne.w	682e <tcp_output+0x76>
    6a38:	6725      	str	r5, [r4, #112]	; 0x70
    6a3a:	462e      	mov	r6, r5
    6a3c:	e70c      	b.n	6858 <tcp_output+0xa0>
    6a3e:	f012 0fa0 	tst.w	r2, #160	; 0xa0
    6a42:	f47f af44 	bne.w	68ce <tcp_output+0x116>
    6a46:	e6e3      	b.n	6810 <tcp_output+0x58>
    6a48:	200090a4 	.word	0x200090a4
    6a4c:	00006725 	.word	0x00006725
    6a50:	000011fd 	.word	0x000011fd
    6a54:	0000c479 	.word	0x0000c479
    6a58:	00008485 	.word	0x00008485
    6a5c:	00004521 	.word	0x00004521
    6a60:	000011ed 	.word	0x000011ed
    6a64:	00004d75 	.word	0x00004d75
    6a68:	00002be5 	.word	0x00002be5
    6a6c:	20009090 	.word	0x20009090
    6a70:	0000c49b 	.word	0x0000c49b
    6a74:	0000c4b9 	.word	0x0000c4b9
    6a78:	000011f9 	.word	0x000011f9
    6a7c:	00002ad5 	.word	0x00002ad5
    6a80:	000030e9 	.word	0x000030e9
    6a84:	000011f3 	.word	0x000011f3

00006a88 <tcp_rst>:
    6a88:	e92d 4ff7 	stmdb	sp!, {r0, r1, r2, r4, r5, r6, r7, r8, r9, sl, fp, lr}
    6a8c:	4681      	mov	r9, r0
    6a8e:	468a      	mov	sl, r1
    6a90:	4617      	mov	r7, r2
    6a92:	4698      	mov	r8, r3
    6a94:	2200      	movs	r2, #0
    6a96:	2114      	movs	r1, #20
    6a98:	2001      	movs	r0, #1
    6a9a:	4b21      	ldr	r3, [pc, #132]	; (6b20 <tcp_rst+0x98>)
    6a9c:	f8bd 6030 	ldrh.w	r6, [sp, #48]	; 0x30
    6aa0:	f8bd b034 	ldrh.w	fp, [sp, #52]	; 0x34
    6aa4:	4798      	blx	r3
    6aa6:	4605      	mov	r5, r0
    6aa8:	b928      	cbnz	r0, 6ab6 <tcp_rst+0x2e>
    6aaa:	481e      	ldr	r0, [pc, #120]	; (6b24 <tcp_rst+0x9c>)
    6aac:	4b1e      	ldr	r3, [pc, #120]	; (6b28 <tcp_rst+0xa0>)
    6aae:	b003      	add	sp, #12
    6ab0:	e8bd 4ff0 	ldmia.w	sp!, {r4, r5, r6, r7, r8, r9, sl, fp, lr}
    6ab4:	4718      	bx	r3
    6ab6:	6844      	ldr	r4, [r0, #4]
    6ab8:	4630      	mov	r0, r6
    6aba:	4e1c      	ldr	r6, [pc, #112]	; (6b2c <tcp_rst+0xa4>)
    6abc:	47b0      	blx	r6
    6abe:	8020      	strh	r0, [r4, #0]
    6ac0:	4658      	mov	r0, fp
    6ac2:	47b0      	blx	r6
    6ac4:	8060      	strh	r0, [r4, #2]
    6ac6:	4648      	mov	r0, r9
    6ac8:	f8df 906c 	ldr.w	r9, [pc, #108]	; 6b38 <tcp_rst+0xb0>
    6acc:	47c8      	blx	r9
    6ace:	6060      	str	r0, [r4, #4]
    6ad0:	4650      	mov	r0, sl
    6ad2:	47c8      	blx	r9
    6ad4:	60a0      	str	r0, [r4, #8]
    6ad6:	f245 0014 	movw	r0, #20500	; 0x5014
    6ada:	47b0      	blx	r6
    6adc:	2316      	movs	r3, #22
    6ade:	73a3      	strb	r3, [r4, #14]
    6ae0:	f06f 032f 	mvn.w	r3, #47	; 0x2f
    6ae4:	2600      	movs	r6, #0
    6ae6:	73e3      	strb	r3, [r4, #15]
    6ae8:	892b      	ldrh	r3, [r5, #8]
    6aea:	81a0      	strh	r0, [r4, #12]
    6aec:	7426      	strb	r6, [r4, #16]
    6aee:	7466      	strb	r6, [r4, #17]
    6af0:	74a6      	strb	r6, [r4, #18]
    6af2:	74e6      	strb	r6, [r4, #19]
    6af4:	4642      	mov	r2, r8
    6af6:	9300      	str	r3, [sp, #0]
    6af8:	4639      	mov	r1, r7
    6afa:	2306      	movs	r3, #6
    6afc:	4628      	mov	r0, r5
    6afe:	f8df 903c 	ldr.w	r9, [pc, #60]	; 6b3c <tcp_rst+0xb4>
    6b02:	47c8      	blx	r9
    6b04:	2306      	movs	r3, #6
    6b06:	8220      	strh	r0, [r4, #16]
    6b08:	4642      	mov	r2, r8
    6b0a:	9301      	str	r3, [sp, #4]
    6b0c:	9600      	str	r6, [sp, #0]
    6b0e:	23ff      	movs	r3, #255	; 0xff
    6b10:	4639      	mov	r1, r7
    6b12:	4628      	mov	r0, r5
    6b14:	4c06      	ldr	r4, [pc, #24]	; (6b30 <tcp_rst+0xa8>)
    6b16:	47a0      	blx	r4
    6b18:	4628      	mov	r0, r5
    6b1a:	4b06      	ldr	r3, [pc, #24]	; (6b34 <tcp_rst+0xac>)
    6b1c:	e7c7      	b.n	6aae <tcp_rst+0x26>
    6b1e:	bf00      	nop
    6b20:	00004039 	.word	0x00004039
    6b24:	0000c4d4 	.word	0x0000c4d4
    6b28:	00008595 	.word	0x00008595
    6b2c:	000011ed 	.word	0x000011ed
    6b30:	000030e9 	.word	0x000030e9
    6b34:	00003f99 	.word	0x00003f99
    6b38:	000011f9 	.word	0x000011f9
    6b3c:	00002ad5 	.word	0x00002ad5

00006b40 <tcp_rexmit_rto>:
    6b40:	6f02      	ldr	r2, [r0, #112]	; 0x70
    6b42:	b410      	push	{r4}
    6b44:	b192      	cbz	r2, 6b6c <tcp_rexmit_rto+0x2c>
    6b46:	4611      	mov	r1, r2
    6b48:	680b      	ldr	r3, [r1, #0]
    6b4a:	b96b      	cbnz	r3, 6b68 <tcp_rexmit_rto+0x28>
    6b4c:	6ec4      	ldr	r4, [r0, #108]	; 0x6c
    6b4e:	600c      	str	r4, [r1, #0]
    6b50:	66c2      	str	r2, [r0, #108]	; 0x6c
    6b52:	f890 2046 	ldrb.w	r2, [r0, #70]	; 0x46
    6b56:	6703      	str	r3, [r0, #112]	; 0x70
    6b58:	3201      	adds	r2, #1
    6b5a:	f880 2046 	strb.w	r2, [r0, #70]	; 0x46
    6b5e:	6383      	str	r3, [r0, #56]	; 0x38
    6b60:	f85d 4b04 	ldr.w	r4, [sp], #4
    6b64:	4b03      	ldr	r3, [pc, #12]	; (6b74 <tcp_rexmit_rto+0x34>)
    6b66:	4718      	bx	r3
    6b68:	4619      	mov	r1, r3
    6b6a:	e7ed      	b.n	6b48 <tcp_rexmit_rto+0x8>
    6b6c:	f85d 4b04 	ldr.w	r4, [sp], #4
    6b70:	4770      	bx	lr
    6b72:	bf00      	nop
    6b74:	000067b9 	.word	0x000067b9

00006b78 <tcp_rexmit>:
    6b78:	e92d 41f0 	stmdb	sp!, {r4, r5, r6, r7, r8, lr}
    6b7c:	6f05      	ldr	r5, [r0, #112]	; 0x70
    6b7e:	4604      	mov	r4, r0
    6b80:	b1ad      	cbz	r5, 6bae <tcp_rexmit+0x36>
    6b82:	682b      	ldr	r3, [r5, #0]
    6b84:	f8df 8044 	ldr.w	r8, [pc, #68]	; 6bcc <tcp_rexmit+0x54>
    6b88:	6703      	str	r3, [r0, #112]	; 0x70
    6b8a:	f100 066c 	add.w	r6, r0, #108	; 0x6c
    6b8e:	6833      	ldr	r3, [r6, #0]
    6b90:	b97b      	cbnz	r3, 6bb2 <tcp_rexmit+0x3a>
    6b92:	6833      	ldr	r3, [r6, #0]
    6b94:	602b      	str	r3, [r5, #0]
    6b96:	6035      	str	r5, [r6, #0]
    6b98:	682b      	ldr	r3, [r5, #0]
    6b9a:	b90b      	cbnz	r3, 6ba0 <tcp_rexmit+0x28>
    6b9c:	f8a4 306a 	strh.w	r3, [r4, #106]	; 0x6a
    6ba0:	f894 3046 	ldrb.w	r3, [r4, #70]	; 0x46
    6ba4:	3301      	adds	r3, #1
    6ba6:	f884 3046 	strb.w	r3, [r4, #70]	; 0x46
    6baa:	2300      	movs	r3, #0
    6bac:	63a3      	str	r3, [r4, #56]	; 0x38
    6bae:	e8bd 81f0 	ldmia.w	sp!, {r4, r5, r6, r7, r8, pc}
    6bb2:	691b      	ldr	r3, [r3, #16]
    6bb4:	6858      	ldr	r0, [r3, #4]
    6bb6:	47c0      	blx	r8
    6bb8:	692b      	ldr	r3, [r5, #16]
    6bba:	4607      	mov	r7, r0
    6bbc:	6858      	ldr	r0, [r3, #4]
    6bbe:	47c0      	blx	r8
    6bc0:	1a38      	subs	r0, r7, r0
    6bc2:	2800      	cmp	r0, #0
    6bc4:	dae5      	bge.n	6b92 <tcp_rexmit+0x1a>
    6bc6:	6836      	ldr	r6, [r6, #0]
    6bc8:	e7e1      	b.n	6b8e <tcp_rexmit+0x16>
    6bca:	bf00      	nop
    6bcc:	000011fd 	.word	0x000011fd

00006bd0 <tcp_rexmit_fast>:
    6bd0:	6f03      	ldr	r3, [r0, #112]	; 0x70
    6bd2:	b570      	push	{r4, r5, r6, lr}
    6bd4:	4604      	mov	r4, r0
    6bd6:	2b00      	cmp	r3, #0
    6bd8:	d036      	beq.n	6c48 <tcp_rexmit_fast+0x78>
    6bda:	7f82      	ldrb	r2, [r0, #30]
    6bdc:	0752      	lsls	r2, r2, #29
    6bde:	d433      	bmi.n	6c48 <tcp_rexmit_fast+0x78>
    6be0:	691b      	ldr	r3, [r3, #16]
    6be2:	f890 5047 	ldrb.w	r5, [r0, #71]	; 0x47
    6be6:	6c86      	ldr	r6, [r0, #72]	; 0x48
    6be8:	6858      	ldr	r0, [r3, #4]
    6bea:	4b18      	ldr	r3, [pc, #96]	; (6c4c <tcp_rexmit_fast+0x7c>)
    6bec:	4798      	blx	r3
    6bee:	4629      	mov	r1, r5
    6bf0:	4603      	mov	r3, r0
    6bf2:	4632      	mov	r2, r6
    6bf4:	4816      	ldr	r0, [pc, #88]	; (6c50 <tcp_rexmit_fast+0x80>)
    6bf6:	4d17      	ldr	r5, [pc, #92]	; (6c54 <tcp_rexmit_fast+0x84>)
    6bf8:	47a8      	blx	r5
    6bfa:	4b17      	ldr	r3, [pc, #92]	; (6c58 <tcp_rexmit_fast+0x88>)
    6bfc:	4620      	mov	r0, r4
    6bfe:	4798      	blx	r3
    6c00:	f8b4 2060 	ldrh.w	r2, [r4, #96]	; 0x60
    6c04:	f8b4 304c 	ldrh.w	r3, [r4, #76]	; 0x4c
    6c08:	4293      	cmp	r3, r2
    6c0a:	bf8b      	itete	hi
    6c0c:	0852      	lsrhi	r2, r2, #1
    6c0e:	085b      	lsrls	r3, r3, #1
    6c10:	f8a4 204e 	strhhi.w	r2, [r4, #78]	; 0x4e
    6c14:	f8a4 304e 	strhls.w	r3, [r4, #78]	; 0x4e
    6c18:	8ee2      	ldrh	r2, [r4, #54]	; 0x36
    6c1a:	f8b4 104e 	ldrh.w	r1, [r4, #78]	; 0x4e
    6c1e:	0052      	lsls	r2, r2, #1
    6c20:	4291      	cmp	r1, r2
    6c22:	da05      	bge.n	6c30 <tcp_rexmit_fast+0x60>
    6c24:	480d      	ldr	r0, [pc, #52]	; (6c5c <tcp_rexmit_fast+0x8c>)
    6c26:	47a8      	blx	r5
    6c28:	8ee3      	ldrh	r3, [r4, #54]	; 0x36
    6c2a:	005b      	lsls	r3, r3, #1
    6c2c:	f8a4 304e 	strh.w	r3, [r4, #78]	; 0x4e
    6c30:	8ee3      	ldrh	r3, [r4, #54]	; 0x36
    6c32:	f8b4 204e 	ldrh.w	r2, [r4, #78]	; 0x4e
    6c36:	eb03 0343 	add.w	r3, r3, r3, lsl #1
    6c3a:	4413      	add	r3, r2
    6c3c:	f8a4 304c 	strh.w	r3, [r4, #76]	; 0x4c
    6c40:	7fa3      	ldrb	r3, [r4, #30]
    6c42:	f043 0304 	orr.w	r3, r3, #4
    6c46:	77a3      	strb	r3, [r4, #30]
    6c48:	bd70      	pop	{r4, r5, r6, pc}
    6c4a:	bf00      	nop
    6c4c:	000011fd 	.word	0x000011fd
    6c50:	0000c500 	.word	0x0000c500
    6c54:	00008485 	.word	0x00008485
    6c58:	00006b79 	.word	0x00006b79
    6c5c:	0000c533 	.word	0x0000c533

00006c60 <tcp_keepalive>:
    6c60:	e92d 43f7 	stmdb	sp!, {r0, r1, r2, r4, r5, r6, r7, r8, r9, lr}
    6c64:	4604      	mov	r4, r0
    6c66:	7983      	ldrb	r3, [r0, #6]
    6c68:	7942      	ldrb	r2, [r0, #5]
    6c6a:	7901      	ldrb	r1, [r0, #4]
    6c6c:	79c0      	ldrb	r0, [r0, #7]
    6c6e:	9000      	str	r0, [sp, #0]
    6c70:	4e1e      	ldr	r6, [pc, #120]	; (6cec <tcp_keepalive+0x8c>)
    6c72:	481f      	ldr	r0, [pc, #124]	; (6cf0 <tcp_keepalive+0x90>)
    6c74:	47b0      	blx	r6
    6c76:	491f      	ldr	r1, [pc, #124]	; (6cf4 <tcp_keepalive+0x94>)
    6c78:	6a62      	ldr	r2, [r4, #36]	; 0x24
    6c7a:	6809      	ldr	r1, [r1, #0]
    6c7c:	f894 3096 	ldrb.w	r3, [r4, #150]	; 0x96
    6c80:	481d      	ldr	r0, [pc, #116]	; (6cf8 <tcp_keepalive+0x98>)
    6c82:	47b0      	blx	r6
    6c84:	6d20      	ldr	r0, [r4, #80]	; 0x50
    6c86:	4b1d      	ldr	r3, [pc, #116]	; (6cfc <tcp_keepalive+0x9c>)
    6c88:	3801      	subs	r0, #1
    6c8a:	4798      	blx	r3
    6c8c:	2100      	movs	r1, #0
    6c8e:	4602      	mov	r2, r0
    6c90:	4b1b      	ldr	r3, [pc, #108]	; (6d00 <tcp_keepalive+0xa0>)
    6c92:	4620      	mov	r0, r4
    6c94:	4798      	blx	r3
    6c96:	4605      	mov	r5, r0
    6c98:	b928      	cbnz	r0, 6ca6 <tcp_keepalive+0x46>
    6c9a:	481a      	ldr	r0, [pc, #104]	; (6d04 <tcp_keepalive+0xa4>)
    6c9c:	4b1a      	ldr	r3, [pc, #104]	; (6d08 <tcp_keepalive+0xa8>)
    6c9e:	b003      	add	sp, #12
    6ca0:	e8bd 43f0 	ldmia.w	sp!, {r4, r5, r6, r7, r8, r9, lr}
    6ca4:	4718      	bx	r3
    6ca6:	1d27      	adds	r7, r4, #4
    6ca8:	8903      	ldrh	r3, [r0, #8]
    6caa:	f8d0 8004 	ldr.w	r8, [r0, #4]
    6cae:	f8df 9068 	ldr.w	r9, [pc, #104]	; 6d18 <tcp_keepalive+0xb8>
    6cb2:	9300      	str	r3, [sp, #0]
    6cb4:	463a      	mov	r2, r7
    6cb6:	4621      	mov	r1, r4
    6cb8:	2306      	movs	r3, #6
    6cba:	47c8      	blx	r9
    6cbc:	2100      	movs	r1, #0
    6cbe:	f8a8 0010 	strh.w	r0, [r8, #16]
    6cc2:	2206      	movs	r2, #6
    6cc4:	e88d 0006 	stmia.w	sp, {r1, r2}
    6cc8:	7aa3      	ldrb	r3, [r4, #10]
    6cca:	463a      	mov	r2, r7
    6ccc:	4621      	mov	r1, r4
    6cce:	4628      	mov	r0, r5
    6cd0:	4f0e      	ldr	r7, [pc, #56]	; (6d0c <tcp_keepalive+0xac>)
    6cd2:	47b8      	blx	r7
    6cd4:	4628      	mov	r0, r5
    6cd6:	4b0e      	ldr	r3, [pc, #56]	; (6d10 <tcp_keepalive+0xb0>)
    6cd8:	4798      	blx	r3
    6cda:	6d21      	ldr	r1, [r4, #80]	; 0x50
    6cdc:	6aa2      	ldr	r2, [r4, #40]	; 0x28
    6cde:	480d      	ldr	r0, [pc, #52]	; (6d14 <tcp_keepalive+0xb4>)
    6ce0:	3901      	subs	r1, #1
    6ce2:	4633      	mov	r3, r6
    6ce4:	b003      	add	sp, #12
    6ce6:	e8bd 43f0 	ldmia.w	sp!, {r4, r5, r6, r7, r8, r9, lr}
    6cea:	4718      	bx	r3
    6cec:	00008485 	.word	0x00008485
    6cf0:	0000c57f 	.word	0x0000c57f
    6cf4:	20009090 	.word	0x20009090
    6cf8:	0000c5ba 	.word	0x0000c5ba
    6cfc:	000011f9 	.word	0x000011f9
    6d00:	00006559 	.word	0x00006559
    6d04:	0000c5fc 	.word	0x0000c5fc
    6d08:	00008595 	.word	0x00008595
    6d0c:	000030e9 	.word	0x000030e9
    6d10:	00003f99 	.word	0x00003f99
    6d14:	0000c62e 	.word	0x0000c62e
    6d18:	00002ad5 	.word	0x00002ad5

00006d1c <tcp_zero_window_probe>:
    6d1c:	e92d 43f7 	stmdb	sp!, {r0, r1, r2, r4, r5, r6, r7, r8, r9, lr}
    6d20:	4604      	mov	r4, r0
    6d22:	7983      	ldrb	r3, [r0, #6]
    6d24:	7942      	ldrb	r2, [r0, #5]
    6d26:	7901      	ldrb	r1, [r0, #4]
    6d28:	79c0      	ldrb	r0, [r0, #7]
    6d2a:	4d34      	ldr	r5, [pc, #208]	; (6dfc <tcp_zero_window_probe+0xe0>)
    6d2c:	9000      	str	r0, [sp, #0]
    6d2e:	4834      	ldr	r0, [pc, #208]	; (6e00 <tcp_zero_window_probe+0xe4>)
    6d30:	47a8      	blx	r5
    6d32:	4934      	ldr	r1, [pc, #208]	; (6e04 <tcp_zero_window_probe+0xe8>)
    6d34:	f894 3096 	ldrb.w	r3, [r4, #150]	; 0x96
    6d38:	6a62      	ldr	r2, [r4, #36]	; 0x24
    6d3a:	6809      	ldr	r1, [r1, #0]
    6d3c:	4832      	ldr	r0, [pc, #200]	; (6e08 <tcp_zero_window_probe+0xec>)
    6d3e:	47a8      	blx	r5
    6d40:	6f26      	ldr	r6, [r4, #112]	; 0x70
    6d42:	46a8      	mov	r8, r5
    6d44:	b916      	cbnz	r6, 6d4c <tcp_zero_window_probe+0x30>
    6d46:	6ee6      	ldr	r6, [r4, #108]	; 0x6c
    6d48:	2e00      	cmp	r6, #0
    6d4a:	d053      	beq.n	6df4 <tcp_zero_window_probe+0xd8>
    6d4c:	6933      	ldr	r3, [r6, #16]
    6d4e:	8998      	ldrh	r0, [r3, #12]
    6d50:	4b2e      	ldr	r3, [pc, #184]	; (6e0c <tcp_zero_window_probe+0xf0>)
    6d52:	4798      	blx	r3
    6d54:	f010 0501 	ands.w	r5, r0, #1
    6d58:	bf18      	it	ne
    6d5a:	8935      	ldrhne	r5, [r6, #8]
    6d5c:	6933      	ldr	r3, [r6, #16]
    6d5e:	bf1c      	itt	ne
    6d60:	fab5 f585 	clzne	r5, r5
    6d64:	096d      	lsrne	r5, r5, #5
    6d66:	685a      	ldr	r2, [r3, #4]
    6d68:	4b29      	ldr	r3, [pc, #164]	; (6e10 <tcp_zero_window_probe+0xf4>)
    6d6a:	f085 0101 	eor.w	r1, r5, #1
    6d6e:	4620      	mov	r0, r4
    6d70:	4798      	blx	r3
    6d72:	4607      	mov	r7, r0
    6d74:	b928      	cbnz	r0, 6d82 <tcp_zero_window_probe+0x66>
    6d76:	4827      	ldr	r0, [pc, #156]	; (6e14 <tcp_zero_window_probe+0xf8>)
    6d78:	4b27      	ldr	r3, [pc, #156]	; (6e18 <tcp_zero_window_probe+0xfc>)
    6d7a:	b003      	add	sp, #12
    6d7c:	e8bd 43f0 	ldmia.w	sp!, {r4, r5, r6, r7, r8, r9, lr}
    6d80:	4718      	bx	r3
    6d82:	f8d0 9004 	ldr.w	r9, [r0, #4]
    6d86:	b355      	cbz	r5, 6dde <tcp_zero_window_probe+0xc2>
    6d88:	2011      	movs	r0, #17
    6d8a:	4b24      	ldr	r3, [pc, #144]	; (6e1c <tcp_zero_window_probe+0x100>)
    6d8c:	f9b9 500c 	ldrsh.w	r5, [r9, #12]
    6d90:	4798      	blx	r3
    6d92:	f425 557c 	bic.w	r5, r5, #16128	; 0x3f00
    6d96:	4328      	orrs	r0, r5
    6d98:	f8a9 000c 	strh.w	r0, [r9, #12]
    6d9c:	1d25      	adds	r5, r4, #4
    6d9e:	893b      	ldrh	r3, [r7, #8]
    6da0:	9300      	str	r3, [sp, #0]
    6da2:	462a      	mov	r2, r5
    6da4:	4621      	mov	r1, r4
    6da6:	2306      	movs	r3, #6
    6da8:	4638      	mov	r0, r7
    6daa:	4e1d      	ldr	r6, [pc, #116]	; (6e20 <tcp_zero_window_probe+0x104>)
    6dac:	47b0      	blx	r6
    6dae:	2100      	movs	r1, #0
    6db0:	f8a9 0010 	strh.w	r0, [r9, #16]
    6db4:	2206      	movs	r2, #6
    6db6:	e88d 0006 	stmia.w	sp, {r1, r2}
    6dba:	7aa3      	ldrb	r3, [r4, #10]
    6dbc:	462a      	mov	r2, r5
    6dbe:	4621      	mov	r1, r4
    6dc0:	4638      	mov	r0, r7
    6dc2:	4d18      	ldr	r5, [pc, #96]	; (6e24 <tcp_zero_window_probe+0x108>)
    6dc4:	47a8      	blx	r5
    6dc6:	4638      	mov	r0, r7
    6dc8:	4b17      	ldr	r3, [pc, #92]	; (6e28 <tcp_zero_window_probe+0x10c>)
    6dca:	4798      	blx	r3
    6dcc:	6d21      	ldr	r1, [r4, #80]	; 0x50
    6dce:	6aa2      	ldr	r2, [r4, #40]	; 0x28
    6dd0:	4816      	ldr	r0, [pc, #88]	; (6e2c <tcp_zero_window_probe+0x110>)
    6dd2:	3901      	subs	r1, #1
    6dd4:	4643      	mov	r3, r8
    6dd6:	b003      	add	sp, #12
    6dd8:	e8bd 43f0 	ldmia.w	sp!, {r4, r5, r6, r7, r8, r9, lr}
    6ddc:	4718      	bx	r3
    6dde:	6870      	ldr	r0, [r6, #4]
    6de0:	8932      	ldrh	r2, [r6, #8]
    6de2:	8903      	ldrh	r3, [r0, #8]
    6de4:	4d12      	ldr	r5, [pc, #72]	; (6e30 <tcp_zero_window_probe+0x114>)
    6de6:	1a9b      	subs	r3, r3, r2
    6de8:	b29b      	uxth	r3, r3
    6dea:	2201      	movs	r2, #1
    6dec:	f109 0114 	add.w	r1, r9, #20
    6df0:	47a8      	blx	r5
    6df2:	e7d3      	b.n	6d9c <tcp_zero_window_probe+0x80>
    6df4:	b003      	add	sp, #12
    6df6:	e8bd 83f0 	ldmia.w	sp!, {r4, r5, r6, r7, r8, r9, pc}
    6dfa:	bf00      	nop
    6dfc:	00008485 	.word	0x00008485
    6e00:	0000c651 	.word	0x0000c651
    6e04:	20009090 	.word	0x20009090
    6e08:	0000c696 	.word	0x0000c696
    6e0c:	000011f3 	.word	0x000011f3
    6e10:	00006559 	.word	0x00006559
    6e14:	0000c6e0 	.word	0x0000c6e0
    6e18:	00008595 	.word	0x00008595
    6e1c:	000011ed 	.word	0x000011ed
    6e20:	00002ad5 	.word	0x00002ad5
    6e24:	000030e9 	.word	0x000030e9
    6e28:	00003f99 	.word	0x00003f99
    6e2c:	0000c70a 	.word	0x0000c70a
    6e30:	00004389 	.word	0x00004389

00006e34 <sys_timeout_debug>:
    6e34:	b5f8      	push	{r3, r4, r5, r6, r7, lr}
    6e36:	4604      	mov	r4, r0
    6e38:	461d      	mov	r5, r3
    6e3a:	2007      	movs	r0, #7
    6e3c:	4b14      	ldr	r3, [pc, #80]	; (6e90 <sys_timeout_debug+0x5c>)
    6e3e:	460f      	mov	r7, r1
    6e40:	4616      	mov	r6, r2
    6e42:	4798      	blx	r3
    6e44:	b310      	cbz	r0, 6e8c <sys_timeout_debug+0x58>
    6e46:	4913      	ldr	r1, [pc, #76]	; (6e94 <sys_timeout_debug+0x60>)
    6e48:	6087      	str	r7, [r0, #8]
    6e4a:	2300      	movs	r3, #0
    6e4c:	6003      	str	r3, [r0, #0]
    6e4e:	680b      	ldr	r3, [r1, #0]
    6e50:	60c6      	str	r6, [r0, #12]
    6e52:	6044      	str	r4, [r0, #4]
    6e54:	6105      	str	r5, [r0, #16]
    6e56:	b90b      	cbnz	r3, 6e5c <sys_timeout_debug+0x28>
    6e58:	6008      	str	r0, [r1, #0]
    6e5a:	bdf8      	pop	{r3, r4, r5, r6, r7, pc}
    6e5c:	685a      	ldr	r2, [r3, #4]
    6e5e:	4294      	cmp	r4, r2
    6e60:	d207      	bcs.n	6e72 <sys_timeout_debug+0x3e>
    6e62:	1b12      	subs	r2, r2, r4
    6e64:	605a      	str	r2, [r3, #4]
    6e66:	6003      	str	r3, [r0, #0]
    6e68:	e7f6      	b.n	6e58 <sys_timeout_debug+0x24>
    6e6a:	6854      	ldr	r4, [r2, #4]
    6e6c:	42a1      	cmp	r1, r4
    6e6e:	d30a      	bcc.n	6e86 <sys_timeout_debug+0x52>
    6e70:	4613      	mov	r3, r2
    6e72:	685a      	ldr	r2, [r3, #4]
    6e74:	6841      	ldr	r1, [r0, #4]
    6e76:	1a89      	subs	r1, r1, r2
    6e78:	681a      	ldr	r2, [r3, #0]
    6e7a:	6041      	str	r1, [r0, #4]
    6e7c:	2a00      	cmp	r2, #0
    6e7e:	d1f4      	bne.n	6e6a <sys_timeout_debug+0x36>
    6e80:	6002      	str	r2, [r0, #0]
    6e82:	6018      	str	r0, [r3, #0]
    6e84:	bdf8      	pop	{r3, r4, r5, r6, r7, pc}
    6e86:	1a61      	subs	r1, r4, r1
    6e88:	6051      	str	r1, [r2, #4]
    6e8a:	e7f9      	b.n	6e80 <sys_timeout_debug+0x4c>
    6e8c:	bdf8      	pop	{r3, r4, r5, r6, r7, pc}
    6e8e:	bf00      	nop
    6e90:	00003ae9 	.word	0x00003ae9
    6e94:	20007ee0 	.word	0x20007ee0

00006e98 <tcp_timer_needed>:
    6e98:	4b0b      	ldr	r3, [pc, #44]	; (6ec8 <tcp_timer_needed+0x30>)
    6e9a:	685a      	ldr	r2, [r3, #4]
    6e9c:	b410      	push	{r4}
    6e9e:	b982      	cbnz	r2, 6ec2 <tcp_timer_needed+0x2a>
    6ea0:	4a0a      	ldr	r2, [pc, #40]	; (6ecc <tcp_timer_needed+0x34>)
    6ea2:	6812      	ldr	r2, [r2, #0]
    6ea4:	b912      	cbnz	r2, 6eac <tcp_timer_needed+0x14>
    6ea6:	4a0a      	ldr	r2, [pc, #40]	; (6ed0 <tcp_timer_needed+0x38>)
    6ea8:	6812      	ldr	r2, [r2, #0]
    6eaa:	b152      	cbz	r2, 6ec2 <tcp_timer_needed+0x2a>
    6eac:	4c09      	ldr	r4, [pc, #36]	; (6ed4 <tcp_timer_needed+0x3c>)
    6eae:	490a      	ldr	r1, [pc, #40]	; (6ed8 <tcp_timer_needed+0x40>)
    6eb0:	2201      	movs	r2, #1
    6eb2:	605a      	str	r2, [r3, #4]
    6eb4:	46a4      	mov	ip, r4
    6eb6:	4b09      	ldr	r3, [pc, #36]	; (6edc <tcp_timer_needed+0x44>)
    6eb8:	f85d 4b04 	ldr.w	r4, [sp], #4
    6ebc:	2200      	movs	r2, #0
    6ebe:	20fa      	movs	r0, #250	; 0xfa
    6ec0:	4760      	bx	ip
    6ec2:	f85d 4b04 	ldr.w	r4, [sp], #4
    6ec6:	4770      	bx	lr
    6ec8:	20007ee0 	.word	0x20007ee0
    6ecc:	2000908c 	.word	0x2000908c
    6ed0:	200090a0 	.word	0x200090a0
    6ed4:	00006e35 	.word	0x00006e35
    6ed8:	00006ee1 	.word	0x00006ee1
    6edc:	0000c735 	.word	0x0000c735

00006ee0 <tcpip_tcp_timer>:
    6ee0:	4b0a      	ldr	r3, [pc, #40]	; (6f0c <tcpip_tcp_timer+0x2c>)
    6ee2:	b510      	push	{r4, lr}
    6ee4:	4798      	blx	r3
    6ee6:	4b0a      	ldr	r3, [pc, #40]	; (6f10 <tcpip_tcp_timer+0x30>)
    6ee8:	681b      	ldr	r3, [r3, #0]
    6eea:	b913      	cbnz	r3, 6ef2 <tcpip_tcp_timer+0x12>
    6eec:	4b09      	ldr	r3, [pc, #36]	; (6f14 <tcpip_tcp_timer+0x34>)
    6eee:	681b      	ldr	r3, [r3, #0]
    6ef0:	b143      	cbz	r3, 6f04 <tcpip_tcp_timer+0x24>
    6ef2:	4c09      	ldr	r4, [pc, #36]	; (6f18 <tcpip_tcp_timer+0x38>)
    6ef4:	4b09      	ldr	r3, [pc, #36]	; (6f1c <tcpip_tcp_timer+0x3c>)
    6ef6:	490a      	ldr	r1, [pc, #40]	; (6f20 <tcpip_tcp_timer+0x40>)
    6ef8:	46a4      	mov	ip, r4
    6efa:	2200      	movs	r2, #0
    6efc:	20fa      	movs	r0, #250	; 0xfa
    6efe:	e8bd 4010 	ldmia.w	sp!, {r4, lr}
    6f02:	4760      	bx	ip
    6f04:	4a07      	ldr	r2, [pc, #28]	; (6f24 <tcpip_tcp_timer+0x44>)
    6f06:	6053      	str	r3, [r2, #4]
    6f08:	bd10      	pop	{r4, pc}
    6f0a:	bf00      	nop
    6f0c:	00004f45 	.word	0x00004f45
    6f10:	2000908c 	.word	0x2000908c
    6f14:	200090a0 	.word	0x200090a0
    6f18:	00006e35 	.word	0x00006e35
    6f1c:	0000c735 	.word	0x0000c735
    6f20:	00006ee1 	.word	0x00006ee1
    6f24:	20007ee0 	.word	0x20007ee0

00006f28 <sys_timeouts_init>:
    6f28:	b510      	push	{r4, lr}
    6f2a:	4b0f      	ldr	r3, [pc, #60]	; (6f68 <sys_timeouts_init+0x40>)
    6f2c:	4c0f      	ldr	r4, [pc, #60]	; (6f6c <sys_timeouts_init+0x44>)
    6f2e:	4910      	ldr	r1, [pc, #64]	; (6f70 <sys_timeouts_init+0x48>)
    6f30:	2200      	movs	r2, #0
    6f32:	f44f 707a 	mov.w	r0, #1000	; 0x3e8
    6f36:	47a0      	blx	r4
    6f38:	4b0e      	ldr	r3, [pc, #56]	; (6f74 <sys_timeouts_init+0x4c>)
    6f3a:	490f      	ldr	r1, [pc, #60]	; (6f78 <sys_timeouts_init+0x50>)
    6f3c:	2200      	movs	r2, #0
    6f3e:	f241 3088 	movw	r0, #5000	; 0x1388
    6f42:	47a0      	blx	r4
    6f44:	4b0d      	ldr	r3, [pc, #52]	; (6f7c <sys_timeouts_init+0x54>)
    6f46:	490e      	ldr	r1, [pc, #56]	; (6f80 <sys_timeouts_init+0x58>)
    6f48:	2200      	movs	r2, #0
    6f4a:	f64e 2060 	movw	r0, #60000	; 0xea60
    6f4e:	47a0      	blx	r4
    6f50:	4b0c      	ldr	r3, [pc, #48]	; (6f84 <sys_timeouts_init+0x5c>)
    6f52:	490d      	ldr	r1, [pc, #52]	; (6f88 <sys_timeouts_init+0x60>)
    6f54:	2200      	movs	r2, #0
    6f56:	f44f 70fa 	mov.w	r0, #500	; 0x1f4
    6f5a:	47a0      	blx	r4
    6f5c:	4b0b      	ldr	r3, [pc, #44]	; (6f8c <sys_timeouts_init+0x64>)
    6f5e:	4798      	blx	r3
    6f60:	4b0b      	ldr	r3, [pc, #44]	; (6f90 <sys_timeouts_init+0x68>)
    6f62:	6098      	str	r0, [r3, #8]
    6f64:	bd10      	pop	{r4, pc}
    6f66:	bf00      	nop
    6f68:	0000c745 	.word	0x0000c745
    6f6c:	00006e35 	.word	0x00006e35
    6f70:	00007019 	.word	0x00007019
    6f74:	0000cde4 	.word	0x0000cde4
    6f78:	00006fed 	.word	0x00006fed
    6f7c:	0000c754 	.word	0x0000c754
    6f80:	00006fc1 	.word	0x00006fc1
    6f84:	0000c766 	.word	0x0000c766
    6f88:	00006f95 	.word	0x00006f95
    6f8c:	000080a1 	.word	0x000080a1
    6f90:	20007ee0 	.word	0x20007ee0

00006f94 <dhcp_timer_fine>:
    6f94:	b510      	push	{r4, lr}
    6f96:	4c06      	ldr	r4, [pc, #24]	; (6fb0 <dhcp_timer_fine+0x1c>)
    6f98:	4b06      	ldr	r3, [pc, #24]	; (6fb4 <dhcp_timer_fine+0x20>)
    6f9a:	4798      	blx	r3
    6f9c:	46a4      	mov	ip, r4
    6f9e:	4b06      	ldr	r3, [pc, #24]	; (6fb8 <dhcp_timer_fine+0x24>)
    6fa0:	4906      	ldr	r1, [pc, #24]	; (6fbc <dhcp_timer_fine+0x28>)
    6fa2:	2200      	movs	r2, #0
    6fa4:	f44f 70fa 	mov.w	r0, #500	; 0x1f4
    6fa8:	e8bd 4010 	ldmia.w	sp!, {r4, lr}
    6fac:	4760      	bx	ip
    6fae:	bf00      	nop
    6fb0:	00006e35 	.word	0x00006e35
    6fb4:	000024d9 	.word	0x000024d9
    6fb8:	0000c766 	.word	0x0000c766
    6fbc:	00006f95 	.word	0x00006f95

00006fc0 <dhcp_timer_coarse>:
    6fc0:	b510      	push	{r4, lr}
    6fc2:	4c06      	ldr	r4, [pc, #24]	; (6fdc <dhcp_timer_coarse+0x1c>)
    6fc4:	4b06      	ldr	r3, [pc, #24]	; (6fe0 <dhcp_timer_coarse+0x20>)
    6fc6:	4798      	blx	r3
    6fc8:	46a4      	mov	ip, r4
    6fca:	4b06      	ldr	r3, [pc, #24]	; (6fe4 <dhcp_timer_coarse+0x24>)
    6fcc:	4906      	ldr	r1, [pc, #24]	; (6fe8 <dhcp_timer_coarse+0x28>)
    6fce:	2200      	movs	r2, #0
    6fd0:	f64e 2060 	movw	r0, #60000	; 0xea60
    6fd4:	e8bd 4010 	ldmia.w	sp!, {r4, lr}
    6fd8:	4760      	bx	ip
    6fda:	bf00      	nop
    6fdc:	00006e35 	.word	0x00006e35
    6fe0:	00002325 	.word	0x00002325
    6fe4:	0000c754 	.word	0x0000c754
    6fe8:	00006fc1 	.word	0x00006fc1

00006fec <arp_timer>:
    6fec:	b510      	push	{r4, lr}
    6fee:	4c06      	ldr	r4, [pc, #24]	; (7008 <arp_timer+0x1c>)
    6ff0:	4b06      	ldr	r3, [pc, #24]	; (700c <arp_timer+0x20>)
    6ff2:	4798      	blx	r3
    6ff4:	46a4      	mov	ip, r4
    6ff6:	4b06      	ldr	r3, [pc, #24]	; (7010 <arp_timer+0x24>)
    6ff8:	4906      	ldr	r1, [pc, #24]	; (7014 <arp_timer+0x28>)
    6ffa:	2200      	movs	r2, #0
    6ffc:	f241 3088 	movw	r0, #5000	; 0x1388
    7000:	e8bd 4010 	ldmia.w	sp!, {r4, lr}
    7004:	4760      	bx	ip
    7006:	bf00      	nop
    7008:	00006e35 	.word	0x00006e35
    700c:	000078c5 	.word	0x000078c5
    7010:	0000cde4 	.word	0x0000cde4
    7014:	00006fed 	.word	0x00006fed

00007018 <ip_reass_timer>:
    7018:	b510      	push	{r4, lr}
    701a:	4c06      	ldr	r4, [pc, #24]	; (7034 <ip_reass_timer+0x1c>)
    701c:	4b06      	ldr	r3, [pc, #24]	; (7038 <ip_reass_timer+0x20>)
    701e:	4798      	blx	r3
    7020:	46a4      	mov	ip, r4
    7022:	4b06      	ldr	r3, [pc, #24]	; (703c <ip_reass_timer+0x24>)
    7024:	4906      	ldr	r1, [pc, #24]	; (7040 <ip_reass_timer+0x28>)
    7026:	2200      	movs	r2, #0
    7028:	f44f 707a 	mov.w	r0, #1000	; 0x3e8
    702c:	e8bd 4010 	ldmia.w	sp!, {r4, lr}
    7030:	4760      	bx	ip
    7032:	bf00      	nop
    7034:	00006e35 	.word	0x00006e35
    7038:	00003339 	.word	0x00003339
    703c:	0000c745 	.word	0x0000c745
    7040:	00007019 	.word	0x00007019

00007044 <sys_check_timeouts>:
    7044:	e92d 4ff8 	stmdb	sp!, {r3, r4, r5, r6, r7, r8, r9, sl, fp, lr}
    7048:	4c13      	ldr	r4, [pc, #76]	; (7098 <sys_check_timeouts+0x54>)
    704a:	6823      	ldr	r3, [r4, #0]
    704c:	b30b      	cbz	r3, 7092 <sys_check_timeouts+0x4e>
    704e:	4b13      	ldr	r3, [pc, #76]	; (709c <sys_check_timeouts+0x58>)
    7050:	f8df 804c 	ldr.w	r8, [pc, #76]	; 70a0 <sys_check_timeouts+0x5c>
    7054:	f8df 904c 	ldr.w	r9, [pc, #76]	; 70a4 <sys_check_timeouts+0x60>
    7058:	f8df a04c 	ldr.w	sl, [pc, #76]	; 70a8 <sys_check_timeouts+0x64>
    705c:	4798      	blx	r3
    705e:	68a5      	ldr	r5, [r4, #8]
    7060:	4607      	mov	r7, r0
    7062:	1b45      	subs	r5, r0, r5
    7064:	f898 3000 	ldrb.w	r3, [r8]
    7068:	b103      	cbz	r3, 706c <sys_check_timeouts+0x28>
    706a:	47c8      	blx	r9
    706c:	6821      	ldr	r1, [r4, #0]
    706e:	b181      	cbz	r1, 7092 <sys_check_timeouts+0x4e>
    7070:	684b      	ldr	r3, [r1, #4]
    7072:	429d      	cmp	r5, r3
    7074:	d30d      	bcc.n	7092 <sys_check_timeouts+0x4e>
    7076:	688e      	ldr	r6, [r1, #8]
    7078:	60a7      	str	r7, [r4, #8]
    707a:	1aed      	subs	r5, r5, r3
    707c:	2007      	movs	r0, #7
    707e:	680b      	ldr	r3, [r1, #0]
    7080:	6023      	str	r3, [r4, #0]
    7082:	f8d1 b00c 	ldr.w	fp, [r1, #12]
    7086:	47d0      	blx	sl
    7088:	2e00      	cmp	r6, #0
    708a:	d0eb      	beq.n	7064 <sys_check_timeouts+0x20>
    708c:	4658      	mov	r0, fp
    708e:	47b0      	blx	r6
    7090:	e7e8      	b.n	7064 <sys_check_timeouts+0x20>
    7092:	e8bd 8ff8 	ldmia.w	sp!, {r3, r4, r5, r6, r7, r8, r9, sl, fp, pc}
    7096:	bf00      	nop
    7098:	20007ee0 	.word	0x20007ee0
    709c:	000080a1 	.word	0x000080a1
    70a0:	20009084 	.word	0x20009084
    70a4:	00003e3d 	.word	0x00003e3d
    70a8:	00003b41 	.word	0x00003b41

000070ac <udp_init>:
    70ac:	4770      	bx	lr
	...

000070b0 <udp_bind>:
    70b0:	e92d 41f3 	stmdb	sp!, {r0, r1, r4, r5, r6, r7, r8, lr}
    70b4:	4606      	mov	r6, r0
    70b6:	460c      	mov	r4, r1
    70b8:	4833      	ldr	r0, [pc, #204]	; (7188 <udp_bind+0xd8>)
    70ba:	4f34      	ldr	r7, [pc, #208]	; (718c <udp_bind+0xdc>)
    70bc:	4615      	mov	r5, r2
    70be:	47b8      	blx	r7
    70c0:	2c00      	cmp	r4, #0
    70c2:	d035      	beq.n	7130 <udp_bind+0x80>
    70c4:	7821      	ldrb	r1, [r4, #0]
    70c6:	7862      	ldrb	r2, [r4, #1]
    70c8:	78a3      	ldrb	r3, [r4, #2]
    70ca:	78e0      	ldrb	r0, [r4, #3]
    70cc:	9000      	str	r0, [sp, #0]
    70ce:	4830      	ldr	r0, [pc, #192]	; (7190 <udp_bind+0xe0>)
    70d0:	47b8      	blx	r7
    70d2:	4629      	mov	r1, r5
    70d4:	482f      	ldr	r0, [pc, #188]	; (7194 <udp_bind+0xe4>)
    70d6:	47b8      	blx	r7
    70d8:	482f      	ldr	r0, [pc, #188]	; (7198 <udp_bind+0xe8>)
    70da:	f8d0 e000 	ldr.w	lr, [r0]
    70de:	f04f 0c00 	mov.w	ip, #0
    70e2:	4673      	mov	r3, lr
    70e4:	bb4b      	cbnz	r3, 713a <udp_bind+0x8a>
    70e6:	b104      	cbz	r4, 70ea <udp_bind+0x3a>
    70e8:	6824      	ldr	r4, [r4, #0]
    70ea:	6034      	str	r4, [r6, #0]
    70ec:	b97d      	cbnz	r5, 710e <udp_bind+0x5e>
    70ee:	4a2b      	ldr	r2, [pc, #172]	; (719c <udp_bind+0xec>)
    70f0:	8813      	ldrh	r3, [r2, #0]
    70f2:	f44f 4180 	mov.w	r1, #16384	; 0x4000
    70f6:	f64f 78ff 	movw	r8, #65535	; 0xffff
    70fa:	4543      	cmp	r3, r8
    70fc:	bf1a      	itte	ne
    70fe:	1c5d      	addne	r5, r3, #1
    7100:	b2ad      	uxthne	r5, r5
    7102:	f44f 4540 	moveq.w	r5, #49152	; 0xc000
    7106:	4674      	mov	r4, lr
    7108:	2c00      	cmp	r4, #0
    710a:	d12f      	bne.n	716c <udp_bind+0xbc>
    710c:	8015      	strh	r5, [r2, #0]
    710e:	8275      	strh	r5, [r6, #18]
    7110:	f1bc 0f00 	cmp.w	ip, #0
    7114:	d102      	bne.n	711c <udp_bind+0x6c>
    7116:	f8c6 e00c 	str.w	lr, [r6, #12]
    711a:	6006      	str	r6, [r0, #0]
    711c:	78f0      	ldrb	r0, [r6, #3]
    711e:	9000      	str	r0, [sp, #0]
    7120:	78b3      	ldrb	r3, [r6, #2]
    7122:	7872      	ldrb	r2, [r6, #1]
    7124:	7831      	ldrb	r1, [r6, #0]
    7126:	9501      	str	r5, [sp, #4]
    7128:	481d      	ldr	r0, [pc, #116]	; (71a0 <udp_bind+0xf0>)
    712a:	47b8      	blx	r7
    712c:	2000      	movs	r0, #0
    712e:	e016      	b.n	715e <udp_bind+0xae>
    7130:	4623      	mov	r3, r4
    7132:	4622      	mov	r2, r4
    7134:	4621      	mov	r1, r4
    7136:	4620      	mov	r0, r4
    7138:	e7c8      	b.n	70cc <udp_bind+0x1c>
    713a:	42b3      	cmp	r3, r6
    713c:	d012      	beq.n	7164 <udp_bind+0xb4>
    713e:	8a5a      	ldrh	r2, [r3, #18]
    7140:	42aa      	cmp	r2, r5
    7142:	d111      	bne.n	7168 <udp_bind+0xb8>
    7144:	b133      	cbz	r3, 7154 <udp_bind+0xa4>
    7146:	6819      	ldr	r1, [r3, #0]
    7148:	b121      	cbz	r1, 7154 <udp_bind+0xa4>
    714a:	b11c      	cbz	r4, 7154 <udp_bind+0xa4>
    714c:	6822      	ldr	r2, [r4, #0]
    714e:	b10a      	cbz	r2, 7154 <udp_bind+0xa4>
    7150:	4291      	cmp	r1, r2
    7152:	d109      	bne.n	7168 <udp_bind+0xb8>
    7154:	4629      	mov	r1, r5
    7156:	4813      	ldr	r0, [pc, #76]	; (71a4 <udp_bind+0xf4>)
    7158:	47b8      	blx	r7
    715a:	f06f 0007 	mvn.w	r0, #7
    715e:	b002      	add	sp, #8
    7160:	e8bd 81f0 	ldmia.w	sp!, {r4, r5, r6, r7, r8, pc}
    7164:	f04f 0c01 	mov.w	ip, #1
    7168:	68db      	ldr	r3, [r3, #12]
    716a:	e7bb      	b.n	70e4 <udp_bind+0x34>
    716c:	8a63      	ldrh	r3, [r4, #18]
    716e:	42ab      	cmp	r3, r5
    7170:	d108      	bne.n	7184 <udp_bind+0xd4>
    7172:	3901      	subs	r1, #1
    7174:	b289      	uxth	r1, r1
    7176:	2900      	cmp	r1, #0
    7178:	d1bf      	bne.n	70fa <udp_bind+0x4a>
    717a:	4b0b      	ldr	r3, [pc, #44]	; (71a8 <udp_bind+0xf8>)
    717c:	480b      	ldr	r0, [pc, #44]	; (71ac <udp_bind+0xfc>)
    717e:	8015      	strh	r5, [r2, #0]
    7180:	4798      	blx	r3
    7182:	e7ea      	b.n	715a <udp_bind+0xaa>
    7184:	68e4      	ldr	r4, [r4, #12]
    7186:	e7bf      	b.n	7108 <udp_bind+0x58>
    7188:	0000c776 	.word	0x0000c776
    718c:	00008485 	.word	0x00008485
    7190:	0000a60d 	.word	0x0000a60d
    7194:	0000c789 	.word	0x0000c789
    7198:	200090a8 	.word	0x200090a8
    719c:	2000000c 	.word	0x2000000c
    71a0:	0000c7ef 	.word	0x0000c7ef
    71a4:	0000c798 	.word	0x0000c798
    71a8:	00008595 	.word	0x00008595
    71ac:	0000c7cf 	.word	0x0000c7cf

000071b0 <udp_sendto_if>:
    71b0:	e92d 4ff0 	stmdb	sp!, {r4, r5, r6, r7, r8, r9, sl, fp, lr}
    71b4:	4698      	mov	r8, r3
    71b6:	b087      	sub	sp, #28
    71b8:	8a43      	ldrh	r3, [r0, #18]
    71ba:	f8dd 9040 	ldr.w	r9, [sp, #64]	; 0x40
    71be:	4605      	mov	r5, r0
    71c0:	460e      	mov	r6, r1
    71c2:	4692      	mov	sl, r2
    71c4:	b97b      	cbnz	r3, 71e6 <udp_sendto_if+0x36>
    71c6:	4848      	ldr	r0, [pc, #288]	; (72e8 <udp_sendto_if+0x138>)
    71c8:	4c48      	ldr	r4, [pc, #288]	; (72ec <udp_sendto_if+0x13c>)
    71ca:	47a0      	blx	r4
    71cc:	8a6a      	ldrh	r2, [r5, #18]
    71ce:	4b48      	ldr	r3, [pc, #288]	; (72f0 <udp_sendto_if+0x140>)
    71d0:	4629      	mov	r1, r5
    71d2:	4628      	mov	r0, r5
    71d4:	4798      	blx	r3
    71d6:	4607      	mov	r7, r0
    71d8:	b128      	cbz	r0, 71e6 <udp_sendto_if+0x36>
    71da:	4846      	ldr	r0, [pc, #280]	; (72f4 <udp_sendto_if+0x144>)
    71dc:	47a0      	blx	r4
    71de:	4638      	mov	r0, r7
    71e0:	b007      	add	sp, #28
    71e2:	e8bd 8ff0 	ldmia.w	sp!, {r4, r5, r6, r7, r8, r9, sl, fp, pc}
    71e6:	2108      	movs	r1, #8
    71e8:	4630      	mov	r0, r6
    71ea:	4b43      	ldr	r3, [pc, #268]	; (72f8 <udp_sendto_if+0x148>)
    71ec:	4798      	blx	r3
    71ee:	2800      	cmp	r0, #0
    71f0:	d066      	beq.n	72c0 <udp_sendto_if+0x110>
    71f2:	2200      	movs	r2, #0
    71f4:	2108      	movs	r1, #8
    71f6:	2001      	movs	r0, #1
    71f8:	4b40      	ldr	r3, [pc, #256]	; (72fc <udp_sendto_if+0x14c>)
    71fa:	4798      	blx	r3
    71fc:	4604      	mov	r4, r0
    71fe:	b928      	cbnz	r0, 720c <udp_sendto_if+0x5c>
    7200:	483f      	ldr	r0, [pc, #252]	; (7300 <udp_sendto_if+0x150>)
    7202:	4b3a      	ldr	r3, [pc, #232]	; (72ec <udp_sendto_if+0x13c>)
    7204:	4798      	blx	r3
    7206:	f04f 37ff 	mov.w	r7, #4294967295
    720a:	e7e8      	b.n	71de <udp_sendto_if+0x2e>
    720c:	8933      	ldrh	r3, [r6, #8]
    720e:	b113      	cbz	r3, 7216 <udp_sendto_if+0x66>
    7210:	4631      	mov	r1, r6
    7212:	4b3c      	ldr	r3, [pc, #240]	; (7304 <udp_sendto_if+0x154>)
    7214:	4798      	blx	r3
    7216:	4632      	mov	r2, r6
    7218:	4621      	mov	r1, r4
    721a:	483b      	ldr	r0, [pc, #236]	; (7308 <udp_sendto_if+0x158>)
    721c:	4b3b      	ldr	r3, [pc, #236]	; (730c <udp_sendto_if+0x15c>)
    721e:	4798      	blx	r3
    7220:	6863      	ldr	r3, [r4, #4]
    7222:	f8df b10c 	ldr.w	fp, [pc, #268]	; 7330 <udp_sendto_if+0x180>
    7226:	8a68      	ldrh	r0, [r5, #18]
    7228:	9304      	str	r3, [sp, #16]
    722a:	47d8      	blx	fp
    722c:	9b04      	ldr	r3, [sp, #16]
    722e:	8018      	strh	r0, [r3, #0]
    7230:	4640      	mov	r0, r8
    7232:	47d8      	blx	fp
    7234:	9b04      	ldr	r3, [sp, #16]
    7236:	9a04      	ldr	r2, [sp, #16]
    7238:	8058      	strh	r0, [r3, #2]
    723a:	2300      	movs	r3, #0
    723c:	7193      	strb	r3, [r2, #6]
    723e:	71d3      	strb	r3, [r2, #7]
    7240:	682a      	ldr	r2, [r5, #0]
    7242:	465b      	mov	r3, fp
    7244:	2a00      	cmp	r2, #0
    7246:	d141      	bne.n	72cc <udp_sendto_if+0x11c>
    7248:	f109 0804 	add.w	r8, r9, #4
    724c:	8921      	ldrh	r1, [r4, #8]
    724e:	f8df b0bc 	ldr.w	fp, [pc, #188]	; 730c <udp_sendto_if+0x15c>
    7252:	482f      	ldr	r0, [pc, #188]	; (7310 <udp_sendto_if+0x160>)
    7254:	9305      	str	r3, [sp, #20]
    7256:	47d8      	blx	fp
    7258:	8921      	ldrh	r1, [r4, #8]
    725a:	482e      	ldr	r0, [pc, #184]	; (7314 <udp_sendto_if+0x164>)
    725c:	47d8      	blx	fp
    725e:	9b05      	ldr	r3, [sp, #20]
    7260:	8920      	ldrh	r0, [r4, #8]
    7262:	4798      	blx	r3
    7264:	9b04      	ldr	r3, [sp, #16]
    7266:	8098      	strh	r0, [r3, #4]
    7268:	7c2b      	ldrb	r3, [r5, #16]
    726a:	07db      	lsls	r3, r3, #31
    726c:	d40e      	bmi.n	728c <udp_sendto_if+0xdc>
    726e:	8923      	ldrh	r3, [r4, #8]
    7270:	9300      	str	r3, [sp, #0]
    7272:	4652      	mov	r2, sl
    7274:	2311      	movs	r3, #17
    7276:	4641      	mov	r1, r8
    7278:	4620      	mov	r0, r4
    727a:	4f27      	ldr	r7, [pc, #156]	; (7318 <udp_sendto_if+0x168>)
    727c:	47b8      	blx	r7
    727e:	f64f 73ff 	movw	r3, #65535	; 0xffff
    7282:	2800      	cmp	r0, #0
    7284:	bf08      	it	eq
    7286:	4618      	moveq	r0, r3
    7288:	9b04      	ldr	r3, [sp, #16]
    728a:	80d8      	strh	r0, [r3, #6]
    728c:	9b04      	ldr	r3, [sp, #16]
    728e:	4823      	ldr	r0, [pc, #140]	; (731c <udp_sendto_if+0x16c>)
    7290:	88d9      	ldrh	r1, [r3, #6]
    7292:	47d8      	blx	fp
    7294:	4b15      	ldr	r3, [pc, #84]	; (72ec <udp_sendto_if+0x13c>)
    7296:	4822      	ldr	r0, [pc, #136]	; (7320 <udp_sendto_if+0x170>)
    7298:	4798      	blx	r3
    729a:	2211      	movs	r2, #17
    729c:	7aab      	ldrb	r3, [r5, #10]
    729e:	f8cd 9008 	str.w	r9, [sp, #8]
    72a2:	9201      	str	r2, [sp, #4]
    72a4:	7a6a      	ldrb	r2, [r5, #9]
    72a6:	9200      	str	r2, [sp, #0]
    72a8:	4641      	mov	r1, r8
    72aa:	4652      	mov	r2, sl
    72ac:	4620      	mov	r0, r4
    72ae:	4d1d      	ldr	r5, [pc, #116]	; (7324 <udp_sendto_if+0x174>)
    72b0:	47a8      	blx	r5
    72b2:	42b4      	cmp	r4, r6
    72b4:	4607      	mov	r7, r0
    72b6:	d092      	beq.n	71de <udp_sendto_if+0x2e>
    72b8:	4620      	mov	r0, r4
    72ba:	4b1b      	ldr	r3, [pc, #108]	; (7328 <udp_sendto_if+0x178>)
    72bc:	4798      	blx	r3
    72be:	e78e      	b.n	71de <udp_sendto_if+0x2e>
    72c0:	4631      	mov	r1, r6
    72c2:	481a      	ldr	r0, [pc, #104]	; (732c <udp_sendto_if+0x17c>)
    72c4:	4b11      	ldr	r3, [pc, #68]	; (730c <udp_sendto_if+0x15c>)
    72c6:	4798      	blx	r3
    72c8:	4634      	mov	r4, r6
    72ca:	e7a9      	b.n	7220 <udp_sendto_if+0x70>
    72cc:	f8d9 1004 	ldr.w	r1, [r9, #4]
    72d0:	428a      	cmp	r2, r1
    72d2:	d007      	beq.n	72e4 <udp_sendto_if+0x134>
    72d4:	42b4      	cmp	r4, r6
    72d6:	d002      	beq.n	72de <udp_sendto_if+0x12e>
    72d8:	4620      	mov	r0, r4
    72da:	4b13      	ldr	r3, [pc, #76]	; (7328 <udp_sendto_if+0x178>)
    72dc:	4798      	blx	r3
    72de:	f06f 0705 	mvn.w	r7, #5
    72e2:	e77c      	b.n	71de <udp_sendto_if+0x2e>
    72e4:	46a8      	mov	r8, r5
    72e6:	e7b1      	b.n	724c <udp_sendto_if+0x9c>
    72e8:	0000c81d 	.word	0x0000c81d
    72ec:	00008595 	.word	0x00008595
    72f0:	000070b1 	.word	0x000070b1
    72f4:	0000c84c 	.word	0x0000c84c
    72f8:	00003f01 	.word	0x00003f01
    72fc:	00004039 	.word	0x00004039
    7300:	0000c86e 	.word	0x0000c86e
    7304:	0000425d 	.word	0x0000425d
    7308:	0000c892 	.word	0x0000c892
    730c:	00008485 	.word	0x00008485
    7310:	0000c8f0 	.word	0x0000c8f0
    7314:	0000c91a 	.word	0x0000c91a
    7318:	00002ad5 	.word	0x00002ad5
    731c:	0000c93b 	.word	0x0000c93b
    7320:	0000c95b 	.word	0x0000c95b
    7324:	00002fb9 	.word	0x00002fb9
    7328:	00003f99 	.word	0x00003f99
    732c:	0000c8c7 	.word	0x0000c8c7
    7330:	000011ed 	.word	0x000011ed

00007334 <udp_connect>:
    7334:	b573      	push	{r0, r1, r4, r5, r6, lr}
    7336:	4616      	mov	r6, r2
    7338:	8a42      	ldrh	r2, [r0, #18]
    733a:	4604      	mov	r4, r0
    733c:	460d      	mov	r5, r1
    733e:	b1ba      	cbz	r2, 7370 <udp_connect+0x3c>
    7340:	b9ed      	cbnz	r5, 737e <udp_connect+0x4a>
    7342:	7c23      	ldrb	r3, [r4, #16]
    7344:	8a60      	ldrh	r0, [r4, #18]
    7346:	9001      	str	r0, [sp, #4]
    7348:	f043 0304 	orr.w	r3, r3, #4
    734c:	78e0      	ldrb	r0, [r4, #3]
    734e:	6065      	str	r5, [r4, #4]
    7350:	7423      	strb	r3, [r4, #16]
    7352:	7862      	ldrb	r2, [r4, #1]
    7354:	78a3      	ldrb	r3, [r4, #2]
    7356:	9000      	str	r0, [sp, #0]
    7358:	82a6      	strh	r6, [r4, #20]
    735a:	7821      	ldrb	r1, [r4, #0]
    735c:	480c      	ldr	r0, [pc, #48]	; (7390 <udp_connect+0x5c>)
    735e:	4d0d      	ldr	r5, [pc, #52]	; (7394 <udp_connect+0x60>)
    7360:	47a8      	blx	r5
    7362:	4b0d      	ldr	r3, [pc, #52]	; (7398 <udp_connect+0x64>)
    7364:	681a      	ldr	r2, [r3, #0]
    7366:	4610      	mov	r0, r2
    7368:	b958      	cbnz	r0, 7382 <udp_connect+0x4e>
    736a:	60e2      	str	r2, [r4, #12]
    736c:	601c      	str	r4, [r3, #0]
    736e:	e004      	b.n	737a <udp_connect+0x46>
    7370:	4601      	mov	r1, r0
    7372:	4b0a      	ldr	r3, [pc, #40]	; (739c <udp_connect+0x68>)
    7374:	4798      	blx	r3
    7376:	2800      	cmp	r0, #0
    7378:	d0e2      	beq.n	7340 <udp_connect+0xc>
    737a:	b002      	add	sp, #8
    737c:	bd70      	pop	{r4, r5, r6, pc}
    737e:	682d      	ldr	r5, [r5, #0]
    7380:	e7df      	b.n	7342 <udp_connect+0xe>
    7382:	42a0      	cmp	r0, r4
    7384:	d001      	beq.n	738a <udp_connect+0x56>
    7386:	68c0      	ldr	r0, [r0, #12]
    7388:	e7ee      	b.n	7368 <udp_connect+0x34>
    738a:	2000      	movs	r0, #0
    738c:	e7f5      	b.n	737a <udp_connect+0x46>
    738e:	bf00      	nop
    7390:	0000c9b6 	.word	0x0000c9b6
    7394:	00008485 	.word	0x00008485
    7398:	200090a8 	.word	0x200090a8
    739c:	000070b1 	.word	0x000070b1

000073a0 <udp_recv>:
    73a0:	6181      	str	r1, [r0, #24]
    73a2:	61c2      	str	r2, [r0, #28]
    73a4:	4770      	bx	lr
	...

000073a8 <udp_remove>:
    73a8:	4a09      	ldr	r2, [pc, #36]	; (73d0 <udp_remove+0x28>)
    73aa:	6813      	ldr	r3, [r2, #0]
    73ac:	4283      	cmp	r3, r0
    73ae:	4601      	mov	r1, r0
    73b0:	d10b      	bne.n	73ca <udp_remove+0x22>
    73b2:	68c3      	ldr	r3, [r0, #12]
    73b4:	6013      	str	r3, [r2, #0]
    73b6:	2001      	movs	r0, #1
    73b8:	4b06      	ldr	r3, [pc, #24]	; (73d4 <udp_remove+0x2c>)
    73ba:	4718      	bx	r3
    73bc:	68da      	ldr	r2, [r3, #12]
    73be:	b11a      	cbz	r2, 73c8 <udp_remove+0x20>
    73c0:	4291      	cmp	r1, r2
    73c2:	bf04      	itt	eq
    73c4:	68ca      	ldreq	r2, [r1, #12]
    73c6:	60da      	streq	r2, [r3, #12]
    73c8:	68db      	ldr	r3, [r3, #12]
    73ca:	2b00      	cmp	r3, #0
    73cc:	d1f6      	bne.n	73bc <udp_remove+0x14>
    73ce:	e7f2      	b.n	73b6 <udp_remove+0xe>
    73d0:	200090a8 	.word	0x200090a8
    73d4:	00003b41 	.word	0x00003b41

000073d8 <udp_new>:
    73d8:	b510      	push	{r4, lr}
    73da:	2001      	movs	r0, #1
    73dc:	4b05      	ldr	r3, [pc, #20]	; (73f4 <udp_new+0x1c>)
    73de:	4798      	blx	r3
    73e0:	4604      	mov	r4, r0
    73e2:	b128      	cbz	r0, 73f0 <udp_new+0x18>
    73e4:	4b04      	ldr	r3, [pc, #16]	; (73f8 <udp_new+0x20>)
    73e6:	2220      	movs	r2, #32
    73e8:	2100      	movs	r1, #0
    73ea:	4798      	blx	r3
    73ec:	23ff      	movs	r3, #255	; 0xff
    73ee:	72a3      	strb	r3, [r4, #10]
    73f0:	4620      	mov	r0, r4
    73f2:	bd10      	pop	{r4, pc}
    73f4:	00003ae9 	.word	0x00003ae9
    73f8:	00008475 	.word	0x00008475

000073fc <udp_debug_print>:
    73fc:	e92d 47f0 	stmdb	sp!, {r4, r5, r6, r7, r8, r9, sl, lr}
    7400:	4f11      	ldr	r7, [pc, #68]	; (7448 <udp_debug_print+0x4c>)
    7402:	4c12      	ldr	r4, [pc, #72]	; (744c <udp_debug_print+0x50>)
    7404:	4d12      	ldr	r5, [pc, #72]	; (7450 <udp_debug_print+0x54>)
    7406:	4606      	mov	r6, r0
    7408:	4812      	ldr	r0, [pc, #72]	; (7454 <udp_debug_print+0x58>)
    740a:	47a0      	blx	r4
    740c:	4638      	mov	r0, r7
    740e:	47a0      	blx	r4
    7410:	8830      	ldrh	r0, [r6, #0]
    7412:	47a8      	blx	r5
    7414:	4680      	mov	r8, r0
    7416:	8870      	ldrh	r0, [r6, #2]
    7418:	47a8      	blx	r5
    741a:	4641      	mov	r1, r8
    741c:	4602      	mov	r2, r0
    741e:	f8df 8040 	ldr.w	r8, [pc, #64]	; 7460 <udp_debug_print+0x64>
    7422:	480d      	ldr	r0, [pc, #52]	; (7458 <udp_debug_print+0x5c>)
    7424:	47c0      	blx	r8
    7426:	4638      	mov	r0, r7
    7428:	47a0      	blx	r4
    742a:	88b0      	ldrh	r0, [r6, #4]
    742c:	47a8      	blx	r5
    742e:	4681      	mov	r9, r0
    7430:	88f0      	ldrh	r0, [r6, #6]
    7432:	47a8      	blx	r5
    7434:	4649      	mov	r1, r9
    7436:	4602      	mov	r2, r0
    7438:	4808      	ldr	r0, [pc, #32]	; (745c <udp_debug_print+0x60>)
    743a:	47c0      	blx	r8
    743c:	4638      	mov	r0, r7
    743e:	4623      	mov	r3, r4
    7440:	e8bd 47f0 	ldmia.w	sp!, {r4, r5, r6, r7, r8, r9, sl, lr}
    7444:	4718      	bx	r3
    7446:	bf00      	nop
    7448:	0000a819 	.word	0x0000a819
    744c:	00008595 	.word	0x00008595
    7450:	000011f3 	.word	0x000011f3
    7454:	0000c9ea 	.word	0x0000c9ea
    7458:	0000c9f6 	.word	0x0000c9f6
    745c:	0000ca2d 	.word	0x0000ca2d
    7460:	00008485 	.word	0x00008485

00007464 <udp_input>:
    7464:	e92d 4ff0 	stmdb	sp!, {r4, r5, r6, r7, r8, r9, sl, fp, lr}
    7468:	f8d0 b004 	ldr.w	fp, [r0, #4]
    746c:	8903      	ldrh	r3, [r0, #8]
    746e:	4689      	mov	r9, r1
    7470:	f89b 1000 	ldrb.w	r1, [fp]
    7474:	f001 010f 	and.w	r1, r1, #15
    7478:	1c8a      	adds	r2, r1, #2
    747a:	ebb3 0f82 	cmp.w	r3, r2, lsl #2
    747e:	b095      	sub	sp, #84	; 0x54
    7480:	4604      	mov	r4, r0
    7482:	da09      	bge.n	7498 <udp_input+0x34>
    7484:	8921      	ldrh	r1, [r4, #8]
    7486:	4885      	ldr	r0, [pc, #532]	; (769c <udp_input+0x238>)
    7488:	4b85      	ldr	r3, [pc, #532]	; (76a0 <udp_input+0x23c>)
    748a:	4798      	blx	r3
    748c:	4b85      	ldr	r3, [pc, #532]	; (76a4 <udp_input+0x240>)
    748e:	4620      	mov	r0, r4
    7490:	b015      	add	sp, #84	; 0x54
    7492:	e8bd 4ff0 	ldmia.w	sp!, {r4, r5, r6, r7, r8, r9, sl, fp, lr}
    7496:	4718      	bx	r3
    7498:	0089      	lsls	r1, r1, #2
    749a:	4249      	negs	r1, r1
    749c:	4b82      	ldr	r3, [pc, #520]	; (76a8 <udp_input+0x244>)
    749e:	4798      	blx	r3
    74a0:	4607      	mov	r7, r0
    74a2:	2800      	cmp	r0, #0
    74a4:	d1ee      	bne.n	7484 <udp_input+0x20>
    74a6:	4b81      	ldr	r3, [pc, #516]	; (76ac <udp_input+0x248>)
    74a8:	f8d4 a004 	ldr.w	sl, [r4, #4]
    74ac:	6818      	ldr	r0, [r3, #0]
    74ae:	4b80      	ldr	r3, [pc, #512]	; (76b0 <udp_input+0x24c>)
    74b0:	4e7b      	ldr	r6, [pc, #492]	; (76a0 <udp_input+0x23c>)
    74b2:	4d80      	ldr	r5, [pc, #512]	; (76b4 <udp_input+0x250>)
    74b4:	4649      	mov	r1, r9
    74b6:	4798      	blx	r3
    74b8:	8921      	ldrh	r1, [r4, #8]
    74ba:	9009      	str	r0, [sp, #36]	; 0x24
    74bc:	487e      	ldr	r0, [pc, #504]	; (76b8 <udp_input+0x254>)
    74be:	47b0      	blx	r6
    74c0:	f8ba 0000 	ldrh.w	r0, [sl]
    74c4:	47a8      	blx	r5
    74c6:	900a      	str	r0, [sp, #40]	; 0x28
    74c8:	f8ba 0002 	ldrh.w	r0, [sl, #2]
    74cc:	47a8      	blx	r5
    74ce:	4b7b      	ldr	r3, [pc, #492]	; (76bc <udp_input+0x258>)
    74d0:	900b      	str	r0, [sp, #44]	; 0x2c
    74d2:	4650      	mov	r0, sl
    74d4:	4798      	blx	r3
    74d6:	f89b 3012 	ldrb.w	r3, [fp, #18]
    74da:	f89b 1010 	ldrb.w	r1, [fp, #16]
    74de:	9312      	str	r3, [sp, #72]	; 0x48
    74e0:	f89b 3013 	ldrb.w	r3, [fp, #19]
    74e4:	9113      	str	r1, [sp, #76]	; 0x4c
    74e6:	930c      	str	r3, [sp, #48]	; 0x30
    74e8:	f8ba 0002 	ldrh.w	r0, [sl, #2]
    74ec:	f89b 8011 	ldrb.w	r8, [fp, #17]
    74f0:	47a8      	blx	r5
    74f2:	f89b 300c 	ldrb.w	r3, [fp, #12]
    74f6:	930d      	str	r3, [sp, #52]	; 0x34
    74f8:	f89b 300d 	ldrb.w	r3, [fp, #13]
    74fc:	f89b 200e 	ldrb.w	r2, [fp, #14]
    7500:	9010      	str	r0, [sp, #64]	; 0x40
    7502:	930e      	str	r3, [sp, #56]	; 0x38
    7504:	f8ba 0000 	ldrh.w	r0, [sl]
    7508:	f89b 300f 	ldrb.w	r3, [fp, #15]
    750c:	9211      	str	r2, [sp, #68]	; 0x44
    750e:	930f      	str	r3, [sp, #60]	; 0x3c
    7510:	47a8      	blx	r5
    7512:	9b0f      	ldr	r3, [sp, #60]	; 0x3c
    7514:	9305      	str	r3, [sp, #20]
    7516:	9b0e      	ldr	r3, [sp, #56]	; 0x38
    7518:	9303      	str	r3, [sp, #12]
    751a:	9b0d      	ldr	r3, [sp, #52]	; 0x34
    751c:	9302      	str	r3, [sp, #8]
    751e:	9b10      	ldr	r3, [sp, #64]	; 0x40
    7520:	9a11      	ldr	r2, [sp, #68]	; 0x44
    7522:	9301      	str	r3, [sp, #4]
    7524:	9b0c      	ldr	r3, [sp, #48]	; 0x30
    7526:	9006      	str	r0, [sp, #24]
    7528:	9204      	str	r2, [sp, #16]
    752a:	9300      	str	r3, [sp, #0]
    752c:	4642      	mov	r2, r8
    752e:	9b12      	ldr	r3, [sp, #72]	; 0x48
    7530:	9913      	ldr	r1, [sp, #76]	; 0x4c
    7532:	4863      	ldr	r0, [pc, #396]	; (76c0 <udp_input+0x25c>)
    7534:	47b0      	blx	r6
    7536:	9b0b      	ldr	r3, [sp, #44]	; 0x2c
    7538:	2b44      	cmp	r3, #68	; 0x44
    753a:	d125      	bne.n	7588 <udp_input+0x124>
    753c:	9b0a      	ldr	r3, [sp, #40]	; 0x28
    753e:	2b43      	cmp	r3, #67	; 0x43
    7540:	d171      	bne.n	7626 <udp_input+0x1c2>
    7542:	f8d9 3028 	ldr.w	r3, [r9, #40]	; 0x28
    7546:	2b00      	cmp	r3, #0
    7548:	d06d      	beq.n	7626 <udp_input+0x1c2>
    754a:	685d      	ldr	r5, [r3, #4]
    754c:	2d00      	cmp	r5, #0
    754e:	d06a      	beq.n	7626 <udp_input+0x1c2>
    7550:	686b      	ldr	r3, [r5, #4]
    7552:	b11b      	cbz	r3, 755c <udp_input+0xf8>
    7554:	4a5b      	ldr	r2, [pc, #364]	; (76c4 <udp_input+0x260>)
    7556:	6812      	ldr	r2, [r2, #0]
    7558:	4293      	cmp	r3, r2
    755a:	d164      	bne.n	7626 <udp_input+0x1c2>
    755c:	4e5a      	ldr	r6, [pc, #360]	; (76c8 <udp_input+0x264>)
    755e:	485b      	ldr	r0, [pc, #364]	; (76cc <udp_input+0x268>)
    7560:	47b0      	blx	r6
    7562:	f8ba 3006 	ldrh.w	r3, [sl, #6]
    7566:	4637      	mov	r7, r6
    7568:	2b00      	cmp	r3, #0
    756a:	d065      	beq.n	7638 <udp_input+0x1d4>
    756c:	8923      	ldrh	r3, [r4, #8]
    756e:	9300      	str	r3, [sp, #0]
    7570:	4a4e      	ldr	r2, [pc, #312]	; (76ac <udp_input+0x248>)
    7572:	4954      	ldr	r1, [pc, #336]	; (76c4 <udp_input+0x260>)
    7574:	f8df 816c 	ldr.w	r8, [pc, #364]	; 76e4 <udp_input+0x280>
    7578:	2311      	movs	r3, #17
    757a:	4620      	mov	r0, r4
    757c:	47c0      	blx	r8
    757e:	2800      	cmp	r0, #0
    7580:	d05a      	beq.n	7638 <udp_input+0x1d4>
    7582:	4853      	ldr	r0, [pc, #332]	; (76d0 <udp_input+0x26c>)
    7584:	47b0      	blx	r6
    7586:	e781      	b.n	748c <udp_input+0x28>
    7588:	4b52      	ldr	r3, [pc, #328]	; (76d4 <udp_input+0x270>)
    758a:	960c      	str	r6, [sp, #48]	; 0x30
    758c:	681d      	ldr	r5, [r3, #0]
    758e:	46b8      	mov	r8, r7
    7590:	b91d      	cbnz	r5, 759a <udp_input+0x136>
    7592:	2f00      	cmp	r7, #0
    7594:	d047      	beq.n	7626 <udp_input+0x1c2>
    7596:	463d      	mov	r5, r7
    7598:	e7e0      	b.n	755c <udp_input+0xf8>
    759a:	8aa8      	ldrh	r0, [r5, #20]
    759c:	78ab      	ldrb	r3, [r5, #2]
    759e:	786a      	ldrb	r2, [r5, #1]
    75a0:	7829      	ldrb	r1, [r5, #0]
    75a2:	9006      	str	r0, [sp, #24]
    75a4:	79e8      	ldrb	r0, [r5, #7]
    75a6:	9005      	str	r0, [sp, #20]
    75a8:	79a8      	ldrb	r0, [r5, #6]
    75aa:	9004      	str	r0, [sp, #16]
    75ac:	7968      	ldrb	r0, [r5, #5]
    75ae:	9003      	str	r0, [sp, #12]
    75b0:	7928      	ldrb	r0, [r5, #4]
    75b2:	9002      	str	r0, [sp, #8]
    75b4:	8a68      	ldrh	r0, [r5, #18]
    75b6:	9001      	str	r0, [sp, #4]
    75b8:	78e8      	ldrb	r0, [r5, #3]
    75ba:	9000      	str	r0, [sp, #0]
    75bc:	9e0c      	ldr	r6, [sp, #48]	; 0x30
    75be:	4846      	ldr	r0, [pc, #280]	; (76d8 <udp_input+0x274>)
    75c0:	47b0      	blx	r6
    75c2:	8a6b      	ldrh	r3, [r5, #18]
    75c4:	9a0b      	ldr	r2, [sp, #44]	; 0x2c
    75c6:	4293      	cmp	r3, r2
    75c8:	d12a      	bne.n	7620 <udp_input+0x1bc>
    75ca:	9a09      	ldr	r2, [sp, #36]	; 0x24
    75cc:	682b      	ldr	r3, [r5, #0]
    75ce:	b902      	cbnz	r2, 75d2 <udp_input+0x16e>
    75d0:	b15b      	cbz	r3, 75ea <udp_input+0x186>
    75d2:	4a36      	ldr	r2, [pc, #216]	; (76ac <udp_input+0x248>)
    75d4:	6812      	ldr	r2, [r2, #0]
    75d6:	4293      	cmp	r3, r2
    75d8:	d007      	beq.n	75ea <udp_input+0x186>
    75da:	9909      	ldr	r1, [sp, #36]	; 0x24
    75dc:	b301      	cbz	r1, 7620 <udp_input+0x1bc>
    75de:	b123      	cbz	r3, 75ea <udp_input+0x186>
    75e0:	4053      	eors	r3, r2
    75e2:	f8d9 2008 	ldr.w	r2, [r9, #8]
    75e6:	4213      	tst	r3, r2
    75e8:	d11a      	bne.n	7620 <udp_input+0x1bc>
    75ea:	b927      	cbnz	r7, 75f6 <udp_input+0x192>
    75ec:	7c2b      	ldrb	r3, [r5, #16]
    75ee:	f013 0f04 	tst.w	r3, #4
    75f2:	bf08      	it	eq
    75f4:	462f      	moveq	r7, r5
    75f6:	8aab      	ldrh	r3, [r5, #20]
    75f8:	9a0a      	ldr	r2, [sp, #40]	; 0x28
    75fa:	4293      	cmp	r3, r2
    75fc:	d110      	bne.n	7620 <udp_input+0x1bc>
    75fe:	686b      	ldr	r3, [r5, #4]
    7600:	b953      	cbnz	r3, 7618 <udp_input+0x1b4>
    7602:	f1b8 0f00 	cmp.w	r8, #0
    7606:	d0a9      	beq.n	755c <udp_input+0xf8>
    7608:	68eb      	ldr	r3, [r5, #12]
    760a:	f8c8 300c 	str.w	r3, [r8, #12]
    760e:	4b31      	ldr	r3, [pc, #196]	; (76d4 <udp_input+0x270>)
    7610:	681a      	ldr	r2, [r3, #0]
    7612:	60ea      	str	r2, [r5, #12]
    7614:	601d      	str	r5, [r3, #0]
    7616:	e7a1      	b.n	755c <udp_input+0xf8>
    7618:	4a2a      	ldr	r2, [pc, #168]	; (76c4 <udp_input+0x260>)
    761a:	6812      	ldr	r2, [r2, #0]
    761c:	4293      	cmp	r3, r2
    761e:	d0f0      	beq.n	7602 <udp_input+0x19e>
    7620:	46a8      	mov	r8, r5
    7622:	68ed      	ldr	r5, [r5, #12]
    7624:	e7b4      	b.n	7590 <udp_input+0x12c>
    7626:	4b21      	ldr	r3, [pc, #132]	; (76ac <udp_input+0x248>)
    7628:	f8d9 2004 	ldr.w	r2, [r9, #4]
    762c:	681b      	ldr	r3, [r3, #0]
    762e:	429a      	cmp	r2, r3
    7630:	f47f af2c 	bne.w	748c <udp_input+0x28>
    7634:	2500      	movs	r5, #0
    7636:	e791      	b.n	755c <udp_input+0xf8>
    7638:	f06f 0107 	mvn.w	r1, #7
    763c:	4620      	mov	r0, r4
    763e:	4e1a      	ldr	r6, [pc, #104]	; (76a8 <udp_input+0x244>)
    7640:	47b0      	blx	r6
    7642:	2800      	cmp	r0, #0
    7644:	f47f af22 	bne.w	748c <udp_input+0x28>
    7648:	b16d      	cbz	r5, 7666 <udp_input+0x202>
    764a:	69ae      	ldr	r6, [r5, #24]
    764c:	2e00      	cmp	r6, #0
    764e:	f43f af1d 	beq.w	748c <udp_input+0x28>
    7652:	9b0a      	ldr	r3, [sp, #40]	; 0x28
    7654:	9300      	str	r3, [sp, #0]
    7656:	4622      	mov	r2, r4
    7658:	4b1a      	ldr	r3, [pc, #104]	; (76c4 <udp_input+0x260>)
    765a:	69e8      	ldr	r0, [r5, #28]
    765c:	4629      	mov	r1, r5
    765e:	47b0      	blx	r6
    7660:	b015      	add	sp, #84	; 0x54
    7662:	e8bd 8ff0 	ldmia.w	sp!, {r4, r5, r6, r7, r8, r9, sl, fp, pc}
    7666:	481d      	ldr	r0, [pc, #116]	; (76dc <udp_input+0x278>)
    7668:	47b8      	blx	r7
    766a:	9b09      	ldr	r3, [sp, #36]	; 0x24
    766c:	2b00      	cmp	r3, #0
    766e:	f47f af0d 	bne.w	748c <udp_input+0x28>
    7672:	4b0e      	ldr	r3, [pc, #56]	; (76ac <udp_input+0x248>)
    7674:	681b      	ldr	r3, [r3, #0]
    7676:	f003 03f0 	and.w	r3, r3, #240	; 0xf0
    767a:	2be0      	cmp	r3, #224	; 0xe0
    767c:	f43f af06 	beq.w	748c <udp_input+0x28>
    7680:	f89b 1000 	ldrb.w	r1, [fp]
    7684:	f001 010f 	and.w	r1, r1, #15
    7688:	3102      	adds	r1, #2
    768a:	0089      	lsls	r1, r1, #2
    768c:	4620      	mov	r0, r4
    768e:	47b0      	blx	r6
    7690:	2103      	movs	r1, #3
    7692:	4620      	mov	r0, r4
    7694:	4b12      	ldr	r3, [pc, #72]	; (76e0 <udp_input+0x27c>)
    7696:	4798      	blx	r3
    7698:	e6f8      	b.n	748c <udp_input+0x28>
    769a:	bf00      	nop
    769c:	0000ca5e 	.word	0x0000ca5e
    76a0:	00008485 	.word	0x00008485
    76a4:	00003f99 	.word	0x00003f99
    76a8:	00003f01 	.word	0x00003f01
    76ac:	200080c0 	.word	0x200080c0
    76b0:	00003141 	.word	0x00003141
    76b4:	000011f3 	.word	0x000011f3
    76b8:	0000ca93 	.word	0x0000ca93
    76bc:	000073fd 	.word	0x000073fd
    76c0:	0000cabf 	.word	0x0000cabf
    76c4:	200080b8 	.word	0x200080b8
    76c8:	00008595 	.word	0x00008595
    76cc:	0000cb2d 	.word	0x0000cb2d
    76d0:	0000cb4d 	.word	0x0000cb4d
    76d4:	200090a8 	.word	0x200090a8
    76d8:	0000caf6 	.word	0x0000caf6
    76dc:	0000cb87 	.word	0x0000cb87
    76e0:	00002a55 	.word	0x00002a55
    76e4:	00002ad5 	.word	0x00002ad5

000076e8 <etharp_free_entry>:
    76e8:	b570      	push	{r4, r5, r6, lr}
    76ea:	2614      	movs	r6, #20
    76ec:	4d0c      	ldr	r5, [pc, #48]	; (7720 <etharp_free_entry+0x38>)
    76ee:	4346      	muls	r6, r0
    76f0:	4604      	mov	r4, r0
    76f2:	59aa      	ldr	r2, [r5, r6]
    76f4:	b142      	cbz	r2, 7708 <etharp_free_entry+0x20>
    76f6:	b281      	uxth	r1, r0
    76f8:	4b0a      	ldr	r3, [pc, #40]	; (7724 <etharp_free_entry+0x3c>)
    76fa:	480b      	ldr	r0, [pc, #44]	; (7728 <etharp_free_entry+0x40>)
    76fc:	4798      	blx	r3
    76fe:	4b0b      	ldr	r3, [pc, #44]	; (772c <etharp_free_entry+0x44>)
    7700:	59a8      	ldr	r0, [r5, r6]
    7702:	4798      	blx	r3
    7704:	2300      	movs	r3, #0
    7706:	51ab      	str	r3, [r5, r6]
    7708:	2014      	movs	r0, #20
    770a:	fb00 5004 	mla	r0, r0, r4, r5
    770e:	2300      	movs	r3, #0
    7710:	7483      	strb	r3, [r0, #18]
    7712:	74c3      	strb	r3, [r0, #19]
    7714:	6083      	str	r3, [r0, #8]
    7716:	6043      	str	r3, [r0, #4]
    7718:	60c3      	str	r3, [r0, #12]
    771a:	8203      	strh	r3, [r0, #16]
    771c:	bd70      	pop	{r4, r5, r6, pc}
    771e:	bf00      	nop
    7720:	20007eec 	.word	0x20007eec
    7724:	00008485 	.word	0x00008485
    7728:	0000cbaa 	.word	0x0000cbaa
    772c:	00003f99 	.word	0x00003f99

00007730 <etharp_find_entry>:
    7730:	e92d 4ff0 	stmdb	sp!, {r4, r5, r6, r7, r8, r9, sl, fp, lr}
    7734:	4e48      	ldr	r6, [pc, #288]	; (7858 <etharp_find_entry+0x128>)
    7736:	b085      	sub	sp, #20
    7738:	2400      	movs	r4, #0
    773a:	250a      	movs	r5, #10
    773c:	460a      	mov	r2, r1
    773e:	4681      	mov	r9, r0
    7740:	4623      	mov	r3, r4
    7742:	46a3      	mov	fp, r4
    7744:	9401      	str	r4, [sp, #4]
    7746:	4629      	mov	r1, r5
    7748:	46a8      	mov	r8, r5
    774a:	462f      	mov	r7, r5
    774c:	46b2      	mov	sl, r6
    774e:	290a      	cmp	r1, #10
    7750:	f896 c012 	ldrb.w	ip, [r6, #18]
    7754:	d11e      	bne.n	7794 <etharp_find_entry+0x64>
    7756:	f1bc 0f00 	cmp.w	ip, #0
    775a:	d11e      	bne.n	779a <etharp_find_entry+0x6a>
    775c:	9302      	str	r3, [sp, #8]
    775e:	4621      	mov	r1, r4
    7760:	4b3e      	ldr	r3, [pc, #248]	; (785c <etharp_find_entry+0x12c>)
    7762:	483f      	ldr	r0, [pc, #252]	; (7860 <etharp_find_entry+0x130>)
    7764:	9203      	str	r2, [sp, #12]
    7766:	4798      	blx	r3
    7768:	9b02      	ldr	r3, [sp, #8]
    776a:	9a03      	ldr	r2, [sp, #12]
    776c:	b261      	sxtb	r1, r4
    776e:	3401      	adds	r4, #1
    7770:	2c0a      	cmp	r4, #10
    7772:	f106 0614 	add.w	r6, r6, #20
    7776:	d1ea      	bne.n	774e <etharp_find_entry+0x1e>
    7778:	0790      	lsls	r0, r2, #30
    777a:	d403      	bmi.n	7784 <etharp_find_entry+0x54>
    777c:	290a      	cmp	r1, #10
    777e:	d128      	bne.n	77d2 <etharp_find_entry+0xa2>
    7780:	07d3      	lsls	r3, r2, #31
    7782:	d43a      	bmi.n	77fa <etharp_find_entry+0xca>
    7784:	4837      	ldr	r0, [pc, #220]	; (7864 <etharp_find_entry+0x134>)
    7786:	4b38      	ldr	r3, [pc, #224]	; (7868 <etharp_find_entry+0x138>)
    7788:	4798      	blx	r3
    778a:	f04f 30ff 	mov.w	r0, #4294967295
    778e:	b005      	add	sp, #20
    7790:	e8bd 8ff0 	ldmia.w	sp!, {r4, r5, r6, r7, r8, r9, sl, fp, pc}
    7794:	f1bc 0f00 	cmp.w	ip, #0
    7798:	d0e9      	beq.n	776e <etharp_find_entry+0x3e>
    779a:	f1b9 0f00 	cmp.w	r9, #0
    779e:	d04d      	beq.n	783c <etharp_find_entry+0x10c>
    77a0:	f8d9 0000 	ldr.w	r0, [r9]
    77a4:	4686      	mov	lr, r0
    77a6:	6870      	ldr	r0, [r6, #4]
    77a8:	4586      	cmp	lr, r0
    77aa:	d147      	bne.n	783c <etharp_find_entry+0x10c>
    77ac:	4621      	mov	r1, r4
    77ae:	482f      	ldr	r0, [pc, #188]	; (786c <etharp_find_entry+0x13c>)
    77b0:	4b2a      	ldr	r3, [pc, #168]	; (785c <etharp_find_entry+0x12c>)
    77b2:	4798      	blx	r3
    77b4:	b260      	sxtb	r0, r4
    77b6:	e7ea      	b.n	778e <etharp_find_entry+0x5e>
    77b8:	9801      	ldr	r0, [sp, #4]
    77ba:	4586      	cmp	lr, r0
    77bc:	d3d7      	bcc.n	776e <etharp_find_entry+0x3e>
    77be:	b267      	sxtb	r7, r4
    77c0:	f8cd e004 	str.w	lr, [sp, #4]
    77c4:	e7d3      	b.n	776e <etharp_find_entry+0x3e>
    77c6:	45de      	cmp	lr, fp
    77c8:	bf24      	itt	cs
    77ca:	fa4f f884 	sxtbcs.w	r8, r4
    77ce:	46f3      	movcs	fp, lr
    77d0:	e7cd      	b.n	776e <etharp_find_entry+0x3e>
    77d2:	4827      	ldr	r0, [pc, #156]	; (7870 <etharp_find_entry+0x140>)
    77d4:	4b21      	ldr	r3, [pc, #132]	; (785c <etharp_find_entry+0x12c>)
    77d6:	b2cc      	uxtb	r4, r1
    77d8:	4798      	blx	r3
    77da:	f1b9 0f00 	cmp.w	r9, #0
    77de:	d005      	beq.n	77ec <etharp_find_entry+0xbc>
    77e0:	2314      	movs	r3, #20
    77e2:	fb03 a304 	mla	r3, r3, r4, sl
    77e6:	f8d9 2000 	ldr.w	r2, [r9]
    77ea:	605a      	str	r2, [r3, #4]
    77ec:	2314      	movs	r3, #20
    77ee:	fb03 aa04 	mla	sl, r3, r4, sl
    77f2:	2300      	movs	r3, #0
    77f4:	f88a 3013 	strb.w	r3, [sl, #19]
    77f8:	e7dc      	b.n	77b4 <etharp_find_entry+0x84>
    77fa:	f1b8 0f0a 	cmp.w	r8, #10
    77fe:	d009      	beq.n	7814 <etharp_find_entry+0xe4>
    7800:	481c      	ldr	r0, [pc, #112]	; (7874 <etharp_find_entry+0x144>)
    7802:	fa5f f488 	uxtb.w	r4, r8
    7806:	4641      	mov	r1, r8
    7808:	4b14      	ldr	r3, [pc, #80]	; (785c <etharp_find_entry+0x12c>)
    780a:	4798      	blx	r3
    780c:	4620      	mov	r0, r4
    780e:	4b1a      	ldr	r3, [pc, #104]	; (7878 <etharp_find_entry+0x148>)
    7810:	4798      	blx	r3
    7812:	e7e2      	b.n	77da <etharp_find_entry+0xaa>
    7814:	2f0a      	cmp	r7, #10
    7816:	d003      	beq.n	7820 <etharp_find_entry+0xf0>
    7818:	b2fc      	uxtb	r4, r7
    781a:	4639      	mov	r1, r7
    781c:	4817      	ldr	r0, [pc, #92]	; (787c <etharp_find_entry+0x14c>)
    781e:	e7f3      	b.n	7808 <etharp_find_entry+0xd8>
    7820:	2d0a      	cmp	r5, #10
    7822:	d009      	beq.n	7838 <etharp_find_entry+0x108>
    7824:	2314      	movs	r3, #20
    7826:	436b      	muls	r3, r5
    7828:	4629      	mov	r1, r5
    782a:	f85a 2003 	ldr.w	r2, [sl, r3]
    782e:	4814      	ldr	r0, [pc, #80]	; (7880 <etharp_find_entry+0x150>)
    7830:	4b0a      	ldr	r3, [pc, #40]	; (785c <etharp_find_entry+0x12c>)
    7832:	b2ec      	uxtb	r4, r5
    7834:	4798      	blx	r3
    7836:	e7e9      	b.n	780c <etharp_find_entry+0xdc>
    7838:	4812      	ldr	r0, [pc, #72]	; (7884 <etharp_find_entry+0x154>)
    783a:	e7a4      	b.n	7786 <etharp_find_entry+0x56>
    783c:	f1bc 0f01 	cmp.w	ip, #1
    7840:	f896 e013 	ldrb.w	lr, [r6, #19]
    7844:	d1bf      	bne.n	77c6 <etharp_find_entry+0x96>
    7846:	6830      	ldr	r0, [r6, #0]
    7848:	2800      	cmp	r0, #0
    784a:	d0b5      	beq.n	77b8 <etharp_find_entry+0x88>
    784c:	459e      	cmp	lr, r3
    784e:	d38e      	bcc.n	776e <etharp_find_entry+0x3e>
    7850:	b265      	sxtb	r5, r4
    7852:	4673      	mov	r3, lr
    7854:	e78b      	b.n	776e <etharp_find_entry+0x3e>
    7856:	bf00      	nop
    7858:	20007eec 	.word	0x20007eec
    785c:	00008485 	.word	0x00008485
    7860:	0000cbe2 	.word	0x0000cbe2
    7864:	0000cc39 	.word	0x0000cc39
    7868:	00008595 	.word	0x00008595
    786c:	0000cc0c 	.word	0x0000cc0c
    7870:	0000cc7c 	.word	0x0000cc7c
    7874:	0000ccaa 	.word	0x0000ccaa
    7878:	000076e9 	.word	0x000076e9
    787c:	0000cce0 	.word	0x0000cce0
    7880:	0000cd27 	.word	0x0000cd27
    7884:	0000cd77 	.word	0x0000cd77

00007888 <etharp_send_ip>:
    7888:	b570      	push	{r4, r5, r6, lr}
    788a:	4604      	mov	r4, r0
    788c:	6848      	ldr	r0, [r1, #4]
    788e:	681e      	ldr	r6, [r3, #0]
    7890:	6006      	str	r6, [r0, #0]
    7892:	889b      	ldrh	r3, [r3, #4]
    7894:	8083      	strh	r3, [r0, #4]
    7896:	6813      	ldr	r3, [r2, #0]
    7898:	f8c0 3006 	str.w	r3, [r0, #6]
    789c:	8893      	ldrh	r3, [r2, #4]
    789e:	8143      	strh	r3, [r0, #10]
    78a0:	2308      	movs	r3, #8
    78a2:	7303      	strb	r3, [r0, #12]
    78a4:	2300      	movs	r3, #0
    78a6:	460d      	mov	r5, r1
    78a8:	7343      	strb	r3, [r0, #13]
    78aa:	4b04      	ldr	r3, [pc, #16]	; (78bc <etharp_send_ip+0x34>)
    78ac:	4804      	ldr	r0, [pc, #16]	; (78c0 <etharp_send_ip+0x38>)
    78ae:	4798      	blx	r3
    78b0:	69a3      	ldr	r3, [r4, #24]
    78b2:	4629      	mov	r1, r5
    78b4:	4620      	mov	r0, r4
    78b6:	e8bd 4070 	ldmia.w	sp!, {r4, r5, r6, lr}
    78ba:	4718      	bx	r3
    78bc:	00008485 	.word	0x00008485
    78c0:	0000cdaf 	.word	0x0000cdaf

000078c4 <etharp_tmr>:
    78c4:	e92d 41f0 	stmdb	sp!, {r4, r5, r6, r7, r8, lr}
    78c8:	4816      	ldr	r0, [pc, #88]	; (7924 <etharp_tmr+0x60>)
    78ca:	4b17      	ldr	r3, [pc, #92]	; (7928 <etharp_tmr+0x64>)
    78cc:	4c17      	ldr	r4, [pc, #92]	; (792c <etharp_tmr+0x68>)
    78ce:	4e18      	ldr	r6, [pc, #96]	; (7930 <etharp_tmr+0x6c>)
    78d0:	f8df 806c 	ldr.w	r8, [pc, #108]	; 7940 <etharp_tmr+0x7c>
    78d4:	4f17      	ldr	r7, [pc, #92]	; (7934 <etharp_tmr+0x70>)
    78d6:	4798      	blx	r3
    78d8:	2500      	movs	r5, #0
    78da:	7ca2      	ldrb	r2, [r4, #18]
    78dc:	b14a      	cbz	r2, 78f2 <etharp_tmr+0x2e>
    78de:	7ce3      	ldrb	r3, [r4, #19]
    78e0:	3301      	adds	r3, #1
    78e2:	b2db      	uxtb	r3, r3
    78e4:	2bef      	cmp	r3, #239	; 0xef
    78e6:	74e3      	strb	r3, [r4, #19]
    78e8:	d80a      	bhi.n	7900 <etharp_tmr+0x3c>
    78ea:	2a01      	cmp	r2, #1
    78ec:	d115      	bne.n	791a <etharp_tmr+0x56>
    78ee:	2b01      	cmp	r3, #1
    78f0:	d811      	bhi.n	7916 <etharp_tmr+0x52>
    78f2:	3501      	adds	r5, #1
    78f4:	2d0a      	cmp	r5, #10
    78f6:	f104 0414 	add.w	r4, r4, #20
    78fa:	d1ee      	bne.n	78da <etharp_tmr+0x16>
    78fc:	e8bd 81f0 	ldmia.w	sp!, {r4, r5, r6, r7, r8, pc}
    7900:	4b0d      	ldr	r3, [pc, #52]	; (7938 <etharp_tmr+0x74>)
    7902:	490e      	ldr	r1, [pc, #56]	; (793c <etharp_tmr+0x78>)
    7904:	2a01      	cmp	r2, #1
    7906:	bf88      	it	hi
    7908:	4619      	movhi	r1, r3
    790a:	462a      	mov	r2, r5
    790c:	4630      	mov	r0, r6
    790e:	47c0      	blx	r8
    7910:	4628      	mov	r0, r5
    7912:	47b8      	blx	r7
    7914:	e7ed      	b.n	78f2 <etharp_tmr+0x2e>
    7916:	4909      	ldr	r1, [pc, #36]	; (793c <etharp_tmr+0x78>)
    7918:	e7f7      	b.n	790a <etharp_tmr+0x46>
    791a:	2a03      	cmp	r2, #3
    791c:	bf04      	itt	eq
    791e:	2302      	moveq	r3, #2
    7920:	74a3      	strbeq	r3, [r4, #18]
    7922:	e7e6      	b.n	78f2 <etharp_tmr+0x2e>
    7924:	0000cde1 	.word	0x0000cde1
    7928:	00008595 	.word	0x00008595
    792c:	20007eec 	.word	0x20007eec
    7930:	0000cdee 	.word	0x0000cdee
    7934:	000076e9 	.word	0x000076e9
    7938:	0000cdd2 	.word	0x0000cdd2
    793c:	0000cdd9 	.word	0x0000cdd9
    7940:	00008485 	.word	0x00008485

00007944 <etharp_cleanup_netif>:
    7944:	b5f8      	push	{r3, r4, r5, r6, r7, lr}
    7946:	4d08      	ldr	r5, [pc, #32]	; (7968 <etharp_cleanup_netif+0x24>)
    7948:	4f08      	ldr	r7, [pc, #32]	; (796c <etharp_cleanup_netif+0x28>)
    794a:	4606      	mov	r6, r0
    794c:	2400      	movs	r4, #0
    794e:	7cab      	ldrb	r3, [r5, #18]
    7950:	b123      	cbz	r3, 795c <etharp_cleanup_netif+0x18>
    7952:	68ab      	ldr	r3, [r5, #8]
    7954:	42b3      	cmp	r3, r6
    7956:	d101      	bne.n	795c <etharp_cleanup_netif+0x18>
    7958:	4620      	mov	r0, r4
    795a:	47b8      	blx	r7
    795c:	3401      	adds	r4, #1
    795e:	2c0a      	cmp	r4, #10
    7960:	f105 0514 	add.w	r5, r5, #20
    7964:	d1f3      	bne.n	794e <etharp_cleanup_netif+0xa>
    7966:	bdf8      	pop	{r3, r4, r5, r6, r7, pc}
    7968:	20007eec 	.word	0x20007eec
    796c:	000076e9 	.word	0x000076e9

00007970 <etharp_request>:
    7970:	e92d 43f8 	stmdb	sp!, {r3, r4, r5, r6, r7, r8, r9, lr}
    7974:	4606      	mov	r6, r0
    7976:	f8df 80b4 	ldr.w	r8, [pc, #180]	; 7a2c <etharp_request+0xbc>
    797a:	4825      	ldr	r0, [pc, #148]	; (7a10 <etharp_request+0xa0>)
    797c:	4689      	mov	r9, r1
    797e:	47c0      	blx	r8
    7980:	2200      	movs	r2, #0
    7982:	212a      	movs	r1, #42	; 0x2a
    7984:	2003      	movs	r0, #3
    7986:	4b23      	ldr	r3, [pc, #140]	; (7a14 <etharp_request+0xa4>)
    7988:	4798      	blx	r3
    798a:	f106 072f 	add.w	r7, r6, #47	; 0x2f
    798e:	4605      	mov	r5, r0
    7990:	b930      	cbnz	r0, 79a0 <etharp_request+0x30>
    7992:	4821      	ldr	r0, [pc, #132]	; (7a18 <etharp_request+0xa8>)
    7994:	47c0      	blx	r8
    7996:	f04f 34ff 	mov.w	r4, #4294967295
    799a:	4620      	mov	r0, r4
    799c:	e8bd 83f8 	ldmia.w	sp!, {r3, r4, r5, r6, r7, r8, r9, pc}
    79a0:	6844      	ldr	r4, [r0, #4]
    79a2:	481e      	ldr	r0, [pc, #120]	; (7a1c <etharp_request+0xac>)
    79a4:	47c0      	blx	r8
    79a6:	4b1e      	ldr	r3, [pc, #120]	; (7a20 <etharp_request+0xb0>)
    79a8:	2001      	movs	r0, #1
    79aa:	4798      	blx	r3
    79ac:	82a0      	strh	r0, [r4, #20]
    79ae:	683b      	ldr	r3, [r7, #0]
    79b0:	f8c4 3016 	str.w	r3, [r4, #22]
    79b4:	88bb      	ldrh	r3, [r7, #4]
    79b6:	8363      	strh	r3, [r4, #26]
    79b8:	4b1a      	ldr	r3, [pc, #104]	; (7a24 <etharp_request+0xb4>)
    79ba:	681a      	ldr	r2, [r3, #0]
    79bc:	6222      	str	r2, [r4, #32]
    79be:	889a      	ldrh	r2, [r3, #4]
    79c0:	84a2      	strh	r2, [r4, #36]	; 0x24
    79c2:	f853 2f06 	ldr.w	r2, [r3, #6]!
    79c6:	6022      	str	r2, [r4, #0]
    79c8:	889b      	ldrh	r3, [r3, #4]
    79ca:	80a3      	strh	r3, [r4, #4]
    79cc:	683b      	ldr	r3, [r7, #0]
    79ce:	f8c4 3006 	str.w	r3, [r4, #6]
    79d2:	88bb      	ldrh	r3, [r7, #4]
    79d4:	8163      	strh	r3, [r4, #10]
    79d6:	6873      	ldr	r3, [r6, #4]
    79d8:	61e3      	str	r3, [r4, #28]
    79da:	f8d9 3000 	ldr.w	r3, [r9]
    79de:	f8c4 3026 	str.w	r3, [r4, #38]	; 0x26
    79e2:	2300      	movs	r3, #0
    79e4:	73a3      	strb	r3, [r4, #14]
    79e6:	7463      	strb	r3, [r4, #17]
    79e8:	2201      	movs	r2, #1
    79ea:	2306      	movs	r3, #6
    79ec:	2104      	movs	r1, #4
    79ee:	74e1      	strb	r1, [r4, #19]
    79f0:	73e2      	strb	r2, [r4, #15]
    79f2:	74a3      	strb	r3, [r4, #18]
    79f4:	2208      	movs	r2, #8
    79f6:	7422      	strb	r2, [r4, #16]
    79f8:	7322      	strb	r2, [r4, #12]
    79fa:	7363      	strb	r3, [r4, #13]
    79fc:	4629      	mov	r1, r5
    79fe:	69b3      	ldr	r3, [r6, #24]
    7a00:	4630      	mov	r0, r6
    7a02:	4798      	blx	r3
    7a04:	4b08      	ldr	r3, [pc, #32]	; (7a28 <etharp_request+0xb8>)
    7a06:	4604      	mov	r4, r0
    7a08:	4628      	mov	r0, r5
    7a0a:	4798      	blx	r3
    7a0c:	e7c5      	b.n	799a <etharp_request+0x2a>
    7a0e:	bf00      	nop
    7a10:	0000ce13 	.word	0x0000ce13
    7a14:	00004039 	.word	0x00004039
    7a18:	0000ce38 	.word	0x0000ce38
    7a1c:	0000ce6d 	.word	0x0000ce6d
    7a20:	000011ed 	.word	0x000011ed
    7a24:	0000cb9e 	.word	0x0000cb9e
    7a28:	00003f99 	.word	0x00003f99
    7a2c:	00008595 	.word	0x00008595

00007a30 <etharp_output_to_arp_index>:
    7a30:	e92d 41f0 	stmdb	sp!, {r4, r5, r6, r7, r8, lr}
    7a34:	4d11      	ldr	r5, [pc, #68]	; (7a7c <etharp_output_to_arp_index+0x4c>)
    7a36:	460f      	mov	r7, r1
    7a38:	2114      	movs	r1, #20
    7a3a:	fb01 5802 	mla	r8, r1, r2, r5
    7a3e:	4614      	mov	r4, r2
    7a40:	f898 2012 	ldrb.w	r2, [r8, #18]
    7a44:	2a02      	cmp	r2, #2
    7a46:	4606      	mov	r6, r0
    7a48:	d10b      	bne.n	7a62 <etharp_output_to_arp_index+0x32>
    7a4a:	f898 3013 	ldrb.w	r3, [r8, #19]
    7a4e:	2be3      	cmp	r3, #227	; 0xe3
    7a50:	d907      	bls.n	7a62 <etharp_output_to_arp_index+0x32>
    7a52:	4641      	mov	r1, r8
    7a54:	3104      	adds	r1, #4
    7a56:	4b0a      	ldr	r3, [pc, #40]	; (7a80 <etharp_output_to_arp_index+0x50>)
    7a58:	4798      	blx	r3
    7a5a:	b910      	cbnz	r0, 7a62 <etharp_output_to_arp_index+0x32>
    7a5c:	2303      	movs	r3, #3
    7a5e:	f888 3012 	strb.w	r3, [r8, #18]
    7a62:	2314      	movs	r3, #20
    7a64:	fb03 5304 	mla	r3, r3, r4, r5
    7a68:	4c06      	ldr	r4, [pc, #24]	; (7a84 <etharp_output_to_arp_index+0x54>)
    7a6a:	f106 022f 	add.w	r2, r6, #47	; 0x2f
    7a6e:	4639      	mov	r1, r7
    7a70:	4630      	mov	r0, r6
    7a72:	46a4      	mov	ip, r4
    7a74:	330c      	adds	r3, #12
    7a76:	e8bd 41f0 	ldmia.w	sp!, {r4, r5, r6, r7, r8, lr}
    7a7a:	4760      	bx	ip
    7a7c:	20007eec 	.word	0x20007eec
    7a80:	00007971 	.word	0x00007971
    7a84:	00007889 	.word	0x00007889

00007a88 <etharp_query>:
    7a88:	e92d 47f0 	stmdb	sp!, {r4, r5, r6, r7, r8, r9, sl, lr}
    7a8c:	4688      	mov	r8, r1
    7a8e:	4607      	mov	r7, r0
    7a90:	4601      	mov	r1, r0
    7a92:	4b46      	ldr	r3, [pc, #280]	; (7bac <etharp_query+0x124>)
    7a94:	f8d8 0000 	ldr.w	r0, [r8]
    7a98:	4615      	mov	r5, r2
    7a9a:	4798      	blx	r3
    7a9c:	b930      	cbnz	r0, 7aac <etharp_query+0x24>
    7a9e:	f8d8 3000 	ldr.w	r3, [r8]
    7aa2:	f003 02f0 	and.w	r2, r3, #240	; 0xf0
    7aa6:	2ae0      	cmp	r2, #224	; 0xe0
    7aa8:	d000      	beq.n	7aac <etharp_query+0x24>
    7aaa:	b93b      	cbnz	r3, 7abc <etharp_query+0x34>
    7aac:	4840      	ldr	r0, [pc, #256]	; (7bb0 <etharp_query+0x128>)
    7aae:	4b41      	ldr	r3, [pc, #260]	; (7bb4 <etharp_query+0x12c>)
    7ab0:	4798      	blx	r3
    7ab2:	f06f 040d 	mvn.w	r4, #13
    7ab6:	4620      	mov	r0, r4
    7ab8:	e8bd 87f0 	ldmia.w	sp!, {r4, r5, r6, r7, r8, r9, sl, pc}
    7abc:	2101      	movs	r1, #1
    7abe:	4640      	mov	r0, r8
    7ac0:	4b3d      	ldr	r3, [pc, #244]	; (7bb8 <etharp_query+0x130>)
    7ac2:	4798      	blx	r3
    7ac4:	1e04      	subs	r4, r0, #0
    7ac6:	da07      	bge.n	7ad8 <etharp_query+0x50>
    7ac8:	483c      	ldr	r0, [pc, #240]	; (7bbc <etharp_query+0x134>)
    7aca:	4e3a      	ldr	r6, [pc, #232]	; (7bb4 <etharp_query+0x12c>)
    7acc:	47b0      	blx	r6
    7ace:	2d00      	cmp	r5, #0
    7ad0:	d0f1      	beq.n	7ab6 <etharp_query+0x2e>
    7ad2:	483b      	ldr	r0, [pc, #236]	; (7bc0 <etharp_query+0x138>)
    7ad4:	47b0      	blx	r6
    7ad6:	e7ee      	b.n	7ab6 <etharp_query+0x2e>
    7ad8:	4e3a      	ldr	r6, [pc, #232]	; (7bc4 <etharp_query+0x13c>)
    7ada:	2314      	movs	r3, #20
    7adc:	fb03 6204 	mla	r2, r3, r4, r6
    7ae0:	7c91      	ldrb	r1, [r2, #18]
    7ae2:	b909      	cbnz	r1, 7ae8 <etharp_query+0x60>
    7ae4:	2101      	movs	r1, #1
    7ae6:	7491      	strb	r1, [r2, #18]
    7ae8:	fb03 6304 	mla	r3, r3, r4, r6
    7aec:	7c9b      	ldrb	r3, [r3, #18]
    7aee:	2b01      	cmp	r3, #1
    7af0:	d000      	beq.n	7af4 <etharp_query+0x6c>
    7af2:	b93d      	cbnz	r5, 7b04 <etharp_query+0x7c>
    7af4:	4641      	mov	r1, r8
    7af6:	4638      	mov	r0, r7
    7af8:	4b33      	ldr	r3, [pc, #204]	; (7bc8 <etharp_query+0x140>)
    7afa:	4798      	blx	r3
    7afc:	4602      	mov	r2, r0
    7afe:	b91d      	cbnz	r5, 7b08 <etharp_query+0x80>
    7b00:	4604      	mov	r4, r0
    7b02:	e7d8      	b.n	7ab6 <etharp_query+0x2e>
    7b04:	f04f 32ff 	mov.w	r2, #4294967295
    7b08:	2314      	movs	r3, #20
    7b0a:	fb03 6104 	mla	r1, r3, r4, r6
    7b0e:	7c89      	ldrb	r1, [r1, #18]
    7b10:	2901      	cmp	r1, #1
    7b12:	d90e      	bls.n	7b32 <etharp_query+0xaa>
    7b14:	220c      	movs	r2, #12
    7b16:	fb13 2304 	smlabb	r3, r3, r4, r2
    7b1a:	f886 40c8 	strb.w	r4, [r6, #200]	; 0xc8
    7b1e:	4c2b      	ldr	r4, [pc, #172]	; (7bcc <etharp_query+0x144>)
    7b20:	4433      	add	r3, r6
    7b22:	f107 022f 	add.w	r2, r7, #47	; 0x2f
    7b26:	4629      	mov	r1, r5
    7b28:	4638      	mov	r0, r7
    7b2a:	46a4      	mov	ip, r4
    7b2c:	e8bd 47f0 	ldmia.w	sp!, {r4, r5, r6, r7, r8, r9, sl, lr}
    7b30:	4760      	bx	ip
    7b32:	d123      	bne.n	7b7c <etharp_query+0xf4>
    7b34:	462b      	mov	r3, r5
    7b36:	b9e3      	cbnz	r3, 7b72 <etharp_query+0xea>
    7b38:	4628      	mov	r0, r5
    7b3a:	4b25      	ldr	r3, [pc, #148]	; (7bd0 <etharp_query+0x148>)
    7b3c:	4798      	blx	r3
    7b3e:	2d00      	cmp	r5, #0
    7b40:	d02d      	beq.n	7b9e <etharp_query+0x116>
    7b42:	46a8      	mov	r8, r5
    7b44:	2714      	movs	r7, #20
    7b46:	4367      	muls	r7, r4
    7b48:	f8df 90a0 	ldr.w	r9, [pc, #160]	; 7bec <etharp_query+0x164>
    7b4c:	59f3      	ldr	r3, [r6, r7]
    7b4e:	b133      	cbz	r3, 7b5e <etharp_query+0xd6>
    7b50:	4622      	mov	r2, r4
    7b52:	4629      	mov	r1, r5
    7b54:	481f      	ldr	r0, [pc, #124]	; (7bd4 <etharp_query+0x14c>)
    7b56:	47c8      	blx	r9
    7b58:	59f0      	ldr	r0, [r6, r7]
    7b5a:	4b1f      	ldr	r3, [pc, #124]	; (7bd8 <etharp_query+0x150>)
    7b5c:	4798      	blx	r3
    7b5e:	2314      	movs	r3, #20
    7b60:	4363      	muls	r3, r4
    7b62:	4622      	mov	r2, r4
    7b64:	f846 8003 	str.w	r8, [r6, r3]
    7b68:	4629      	mov	r1, r5
    7b6a:	481c      	ldr	r0, [pc, #112]	; (7bdc <etharp_query+0x154>)
    7b6c:	47c8      	blx	r9
    7b6e:	2400      	movs	r4, #0
    7b70:	e7a1      	b.n	7ab6 <etharp_query+0x2e>
    7b72:	7b1a      	ldrb	r2, [r3, #12]
    7b74:	2a01      	cmp	r2, #1
    7b76:	d103      	bne.n	7b80 <etharp_query+0xf8>
    7b78:	681b      	ldr	r3, [r3, #0]
    7b7a:	e7dc      	b.n	7b36 <etharp_query+0xae>
    7b7c:	4614      	mov	r4, r2
    7b7e:	e79a      	b.n	7ab6 <etharp_query+0x2e>
    7b80:	8919      	ldrh	r1, [r3, #8]
    7b82:	4b17      	ldr	r3, [pc, #92]	; (7be0 <etharp_query+0x158>)
    7b84:	2200      	movs	r2, #0
    7b86:	2003      	movs	r0, #3
    7b88:	4798      	blx	r3
    7b8a:	4680      	mov	r8, r0
    7b8c:	b138      	cbz	r0, 7b9e <etharp_query+0x116>
    7b8e:	4629      	mov	r1, r5
    7b90:	4b14      	ldr	r3, [pc, #80]	; (7be4 <etharp_query+0x15c>)
    7b92:	4798      	blx	r3
    7b94:	2800      	cmp	r0, #0
    7b96:	d0d5      	beq.n	7b44 <etharp_query+0xbc>
    7b98:	4640      	mov	r0, r8
    7b9a:	4b0f      	ldr	r3, [pc, #60]	; (7bd8 <etharp_query+0x150>)
    7b9c:	4798      	blx	r3
    7b9e:	4629      	mov	r1, r5
    7ba0:	4811      	ldr	r0, [pc, #68]	; (7be8 <etharp_query+0x160>)
    7ba2:	4b12      	ldr	r3, [pc, #72]	; (7bec <etharp_query+0x164>)
    7ba4:	4798      	blx	r3
    7ba6:	f04f 34ff 	mov.w	r4, #4294967295
    7baa:	e784      	b.n	7ab6 <etharp_query+0x2e>
    7bac:	00003141 	.word	0x00003141
    7bb0:	0000ce91 	.word	0x0000ce91
    7bb4:	00008595 	.word	0x00008595
    7bb8:	00007731 	.word	0x00007731
    7bbc:	0000ced0 	.word	0x0000ced0
    7bc0:	0000cef9 	.word	0x0000cef9
    7bc4:	20007eec 	.word	0x20007eec
    7bc8:	00007971 	.word	0x00007971
    7bcc:	00007889 	.word	0x00007889
    7bd0:	00004215 	.word	0x00004215
    7bd4:	0000cf16 	.word	0x0000cf16
    7bd8:	00003f99 	.word	0x00003f99
    7bdc:	0000cf5b 	.word	0x0000cf5b
    7be0:	00004039 	.word	0x00004039
    7be4:	0000428d 	.word	0x0000428d
    7be8:	0000cf8c 	.word	0x0000cf8c
    7bec:	00008485 	.word	0x00008485

00007bf0 <etharp_output>:
    7bf0:	b5f7      	push	{r0, r1, r2, r4, r5, r6, r7, lr}
    7bf2:	460e      	mov	r6, r1
    7bf4:	4604      	mov	r4, r0
    7bf6:	210e      	movs	r1, #14
    7bf8:	4630      	mov	r0, r6
    7bfa:	4b37      	ldr	r3, [pc, #220]	; (7cd8 <etharp_output+0xe8>)
    7bfc:	4615      	mov	r5, r2
    7bfe:	4798      	blx	r3
    7c00:	b130      	cbz	r0, 7c10 <etharp_output+0x20>
    7c02:	4836      	ldr	r0, [pc, #216]	; (7cdc <etharp_output+0xec>)
    7c04:	4b36      	ldr	r3, [pc, #216]	; (7ce0 <etharp_output+0xf0>)
    7c06:	4798      	blx	r3
    7c08:	f06f 0001 	mvn.w	r0, #1
    7c0c:	b003      	add	sp, #12
    7c0e:	bdf0      	pop	{r4, r5, r6, r7, pc}
    7c10:	4621      	mov	r1, r4
    7c12:	6828      	ldr	r0, [r5, #0]
    7c14:	4b33      	ldr	r3, [pc, #204]	; (7ce4 <etharp_output+0xf4>)
    7c16:	4798      	blx	r3
    7c18:	2800      	cmp	r0, #0
    7c1a:	d157      	bne.n	7ccc <etharp_output+0xdc>
    7c1c:	682b      	ldr	r3, [r5, #0]
    7c1e:	f003 02f0 	and.w	r2, r3, #240	; 0xf0
    7c22:	2ae0      	cmp	r2, #224	; 0xe0
    7c24:	d11a      	bne.n	7c5c <etharp_output+0x6c>
    7c26:	2301      	movs	r3, #1
    7c28:	f88d 3000 	strb.w	r3, [sp]
    7c2c:	235e      	movs	r3, #94	; 0x5e
    7c2e:	f88d 3002 	strb.w	r3, [sp, #2]
    7c32:	786b      	ldrb	r3, [r5, #1]
    7c34:	f88d 0001 	strb.w	r0, [sp, #1]
    7c38:	f003 037f 	and.w	r3, r3, #127	; 0x7f
    7c3c:	f88d 3003 	strb.w	r3, [sp, #3]
    7c40:	78ab      	ldrb	r3, [r5, #2]
    7c42:	f88d 3004 	strb.w	r3, [sp, #4]
    7c46:	78eb      	ldrb	r3, [r5, #3]
    7c48:	f88d 3005 	strb.w	r3, [sp, #5]
    7c4c:	466b      	mov	r3, sp
    7c4e:	f104 022f 	add.w	r2, r4, #47	; 0x2f
    7c52:	4631      	mov	r1, r6
    7c54:	4620      	mov	r0, r4
    7c56:	4c24      	ldr	r4, [pc, #144]	; (7ce8 <etharp_output+0xf8>)
    7c58:	47a0      	blx	r4
    7c5a:	e7d7      	b.n	7c0c <etharp_output+0x1c>
    7c5c:	6862      	ldr	r2, [r4, #4]
    7c5e:	68a1      	ldr	r1, [r4, #8]
    7c60:	405a      	eors	r2, r3
    7c62:	420a      	tst	r2, r1
    7c64:	d008      	beq.n	7c78 <etharp_output+0x88>
    7c66:	b29b      	uxth	r3, r3
    7c68:	f64f 62a9 	movw	r2, #65193	; 0xfea9
    7c6c:	4293      	cmp	r3, r2
    7c6e:	d003      	beq.n	7c78 <etharp_output+0x88>
    7c70:	68e3      	ldr	r3, [r4, #12]
    7c72:	f104 050c 	add.w	r5, r4, #12
    7c76:	b35b      	cbz	r3, 7cd0 <etharp_output+0xe0>
    7c78:	4b1c      	ldr	r3, [pc, #112]	; (7cec <etharp_output+0xfc>)
    7c7a:	f893 20c8 	ldrb.w	r2, [r3, #200]	; 0xc8
    7c7e:	2114      	movs	r1, #20
    7c80:	fb01 3102 	mla	r1, r1, r2, r3
    7c84:	7c88      	ldrb	r0, [r1, #18]
    7c86:	2801      	cmp	r0, #1
    7c88:	d908      	bls.n	7c9c <etharp_output+0xac>
    7c8a:	6828      	ldr	r0, [r5, #0]
    7c8c:	6849      	ldr	r1, [r1, #4]
    7c8e:	4288      	cmp	r0, r1
    7c90:	d104      	bne.n	7c9c <etharp_output+0xac>
    7c92:	4631      	mov	r1, r6
    7c94:	4620      	mov	r0, r4
    7c96:	4b16      	ldr	r3, [pc, #88]	; (7cf0 <etharp_output+0x100>)
    7c98:	4798      	blx	r3
    7c9a:	e7b7      	b.n	7c0c <etharp_output+0x1c>
    7c9c:	4913      	ldr	r1, [pc, #76]	; (7cec <etharp_output+0xfc>)
    7c9e:	2200      	movs	r2, #0
    7ca0:	7c88      	ldrb	r0, [r1, #18]
    7ca2:	2801      	cmp	r0, #1
    7ca4:	d907      	bls.n	7cb6 <etharp_output+0xc6>
    7ca6:	682f      	ldr	r7, [r5, #0]
    7ca8:	6848      	ldr	r0, [r1, #4]
    7caa:	4287      	cmp	r7, r0
    7cac:	d103      	bne.n	7cb6 <etharp_output+0xc6>
    7cae:	b2d2      	uxtb	r2, r2
    7cb0:	f883 20c8 	strb.w	r2, [r3, #200]	; 0xc8
    7cb4:	e7ed      	b.n	7c92 <etharp_output+0xa2>
    7cb6:	3201      	adds	r2, #1
    7cb8:	2a0a      	cmp	r2, #10
    7cba:	f101 0114 	add.w	r1, r1, #20
    7cbe:	d1ef      	bne.n	7ca0 <etharp_output+0xb0>
    7cc0:	4632      	mov	r2, r6
    7cc2:	4629      	mov	r1, r5
    7cc4:	4620      	mov	r0, r4
    7cc6:	4b0b      	ldr	r3, [pc, #44]	; (7cf4 <etharp_output+0x104>)
    7cc8:	4798      	blx	r3
    7cca:	e79f      	b.n	7c0c <etharp_output+0x1c>
    7ccc:	4b0a      	ldr	r3, [pc, #40]	; (7cf8 <etharp_output+0x108>)
    7cce:	e7be      	b.n	7c4e <etharp_output+0x5e>
    7cd0:	f06f 0003 	mvn.w	r0, #3
    7cd4:	e79a      	b.n	7c0c <etharp_output+0x1c>
    7cd6:	bf00      	nop
    7cd8:	00003f01 	.word	0x00003f01
    7cdc:	0000cfd8 	.word	0x0000cfd8
    7ce0:	00008595 	.word	0x00008595
    7ce4:	00003141 	.word	0x00003141
    7ce8:	00007889 	.word	0x00007889
    7cec:	20007eec 	.word	0x20007eec
    7cf0:	00007a31 	.word	0x00007a31
    7cf4:	00007a89 	.word	0x00007a89
    7cf8:	0000cba4 	.word	0x0000cba4

00007cfc <ethernet_input>:
    7cfc:	e92d 4ff0 	stmdb	sp!, {r4, r5, r6, r7, r8, r9, sl, fp, lr}
    7d00:	8943      	ldrh	r3, [r0, #10]
    7d02:	2b0e      	cmp	r3, #14
    7d04:	b095      	sub	sp, #84	; 0x54
    7d06:	4681      	mov	r9, r0
    7d08:	468a      	mov	sl, r1
    7d0a:	d949      	bls.n	7da0 <ethernet_input+0xa4>
    7d0c:	6845      	ldr	r5, [r0, #4]
    7d0e:	4fa3      	ldr	r7, [pc, #652]	; (7f9c <ethernet_input+0x2a0>)
    7d10:	78ab      	ldrb	r3, [r5, #2]
    7d12:	9310      	str	r3, [sp, #64]	; 0x40
    7d14:	792b      	ldrb	r3, [r5, #4]
    7d16:	930a      	str	r3, [sp, #40]	; 0x28
    7d18:	79ab      	ldrb	r3, [r5, #6]
    7d1a:	930b      	str	r3, [sp, #44]	; 0x2c
    7d1c:	79eb      	ldrb	r3, [r5, #7]
    7d1e:	930c      	str	r3, [sp, #48]	; 0x30
    7d20:	7a6b      	ldrb	r3, [r5, #9]
    7d22:	7829      	ldrb	r1, [r5, #0]
    7d24:	930d      	str	r3, [sp, #52]	; 0x34
    7d26:	7aaa      	ldrb	r2, [r5, #10]
    7d28:	7aeb      	ldrb	r3, [r5, #11]
    7d2a:	9111      	str	r1, [sp, #68]	; 0x44
    7d2c:	920f      	str	r2, [sp, #60]	; 0x3c
    7d2e:	930e      	str	r3, [sp, #56]	; 0x38
    7d30:	89a8      	ldrh	r0, [r5, #12]
    7d32:	786c      	ldrb	r4, [r5, #1]
    7d34:	78ee      	ldrb	r6, [r5, #3]
    7d36:	f895 8005 	ldrb.w	r8, [r5, #5]
    7d3a:	f895 b008 	ldrb.w	fp, [r5, #8]
    7d3e:	47b8      	blx	r7
    7d40:	9b0e      	ldr	r3, [sp, #56]	; 0x38
    7d42:	9308      	str	r3, [sp, #32]
    7d44:	9b0d      	ldr	r3, [sp, #52]	; 0x34
    7d46:	9306      	str	r3, [sp, #24]
    7d48:	9b0c      	ldr	r3, [sp, #48]	; 0x30
    7d4a:	9304      	str	r3, [sp, #16]
    7d4c:	9b0b      	ldr	r3, [sp, #44]	; 0x2c
    7d4e:	9a0f      	ldr	r2, [sp, #60]	; 0x3c
    7d50:	9303      	str	r3, [sp, #12]
    7d52:	9b0a      	ldr	r3, [sp, #40]	; 0x28
    7d54:	9009      	str	r0, [sp, #36]	; 0x24
    7d56:	9207      	str	r2, [sp, #28]
    7d58:	9301      	str	r3, [sp, #4]
    7d5a:	9600      	str	r6, [sp, #0]
    7d5c:	9b10      	ldr	r3, [sp, #64]	; 0x40
    7d5e:	f8cd b014 	str.w	fp, [sp, #20]
    7d62:	4622      	mov	r2, r4
    7d64:	f8cd 8008 	str.w	r8, [sp, #8]
    7d68:	9911      	ldr	r1, [sp, #68]	; 0x44
    7d6a:	488d      	ldr	r0, [pc, #564]	; (7fa0 <ethernet_input+0x2a4>)
    7d6c:	4e8d      	ldr	r6, [pc, #564]	; (7fa4 <ethernet_input+0x2a8>)
    7d6e:	47b0      	blx	r6
    7d70:	782b      	ldrb	r3, [r5, #0]
    7d72:	89ac      	ldrh	r4, [r5, #12]
    7d74:	970d      	str	r7, [sp, #52]	; 0x34
    7d76:	f013 0f01 	tst.w	r3, #1
    7d7a:	d00c      	beq.n	7d96 <ethernet_input+0x9a>
    7d7c:	2b01      	cmp	r3, #1
    7d7e:	d113      	bne.n	7da8 <ethernet_input+0xac>
    7d80:	786b      	ldrb	r3, [r5, #1]
    7d82:	b943      	cbnz	r3, 7d96 <ethernet_input+0x9a>
    7d84:	78ab      	ldrb	r3, [r5, #2]
    7d86:	2b5e      	cmp	r3, #94	; 0x5e
    7d88:	d105      	bne.n	7d96 <ethernet_input+0x9a>
    7d8a:	f899 300d 	ldrb.w	r3, [r9, #13]
    7d8e:	f043 0310 	orr.w	r3, r3, #16
    7d92:	f889 300d 	strb.w	r3, [r9, #13]
    7d96:	2c08      	cmp	r4, #8
    7d98:	d012      	beq.n	7dc0 <ethernet_input+0xc4>
    7d9a:	f5b4 6fc1 	cmp.w	r4, #1544	; 0x608
    7d9e:	d022      	beq.n	7de6 <ethernet_input+0xea>
    7da0:	4648      	mov	r0, r9
    7da2:	4b81      	ldr	r3, [pc, #516]	; (7fa8 <ethernet_input+0x2ac>)
    7da4:	4798      	blx	r3
    7da6:	e01a      	b.n	7dde <ethernet_input+0xe2>
    7da8:	2206      	movs	r2, #6
    7daa:	4980      	ldr	r1, [pc, #512]	; (7fac <ethernet_input+0x2b0>)
    7dac:	4b80      	ldr	r3, [pc, #512]	; (7fb0 <ethernet_input+0x2b4>)
    7dae:	4628      	mov	r0, r5
    7db0:	4798      	blx	r3
    7db2:	2800      	cmp	r0, #0
    7db4:	d1ef      	bne.n	7d96 <ethernet_input+0x9a>
    7db6:	f899 300d 	ldrb.w	r3, [r9, #13]
    7dba:	f043 0308 	orr.w	r3, r3, #8
    7dbe:	e7e8      	b.n	7d92 <ethernet_input+0x96>
    7dc0:	f89a 3035 	ldrb.w	r3, [sl, #53]	; 0x35
    7dc4:	0698      	lsls	r0, r3, #26
    7dc6:	d5eb      	bpl.n	7da0 <ethernet_input+0xa4>
    7dc8:	f06f 010d 	mvn.w	r1, #13
    7dcc:	4648      	mov	r0, r9
    7dce:	4b79      	ldr	r3, [pc, #484]	; (7fb4 <ethernet_input+0x2b8>)
    7dd0:	4798      	blx	r3
    7dd2:	2800      	cmp	r0, #0
    7dd4:	d1e4      	bne.n	7da0 <ethernet_input+0xa4>
    7dd6:	4651      	mov	r1, sl
    7dd8:	4648      	mov	r0, r9
    7dda:	4b77      	ldr	r3, [pc, #476]	; (7fb8 <ethernet_input+0x2bc>)
    7ddc:	4798      	blx	r3
    7dde:	2000      	movs	r0, #0
    7de0:	b015      	add	sp, #84	; 0x54
    7de2:	e8bd 8ff0 	ldmia.w	sp!, {r4, r5, r6, r7, r8, r9, sl, fp, pc}
    7de6:	f89a 3035 	ldrb.w	r3, [sl, #53]	; 0x35
    7dea:	0699      	lsls	r1, r3, #26
    7dec:	d5d8      	bpl.n	7da0 <ethernet_input+0xa4>
    7dee:	f8b9 300a 	ldrh.w	r3, [r9, #10]
    7df2:	4d6d      	ldr	r5, [pc, #436]	; (7fa8 <ethernet_input+0x2ac>)
    7df4:	2b29      	cmp	r3, #41	; 0x29
    7df6:	d807      	bhi.n	7e08 <ethernet_input+0x10c>
    7df8:	222a      	movs	r2, #42	; 0x2a
    7dfa:	f8b9 1008 	ldrh.w	r1, [r9, #8]
    7dfe:	486f      	ldr	r0, [pc, #444]	; (7fbc <ethernet_input+0x2c0>)
    7e00:	47b0      	blx	r6
    7e02:	4648      	mov	r0, r9
    7e04:	47a8      	blx	r5
    7e06:	e7ea      	b.n	7dde <ethernet_input+0xe2>
    7e08:	f8d9 4004 	ldr.w	r4, [r9, #4]
    7e0c:	89e1      	ldrh	r1, [r4, #14]
    7e0e:	7ca2      	ldrb	r2, [r4, #18]
    7e10:	7ce0      	ldrb	r0, [r4, #19]
    7e12:	8a23      	ldrh	r3, [r4, #16]
    7e14:	f5b1 7f80 	cmp.w	r1, #256	; 0x100
    7e18:	d105      	bne.n	7e26 <ethernet_input+0x12a>
    7e1a:	2a06      	cmp	r2, #6
    7e1c:	d103      	bne.n	7e26 <ethernet_input+0x12a>
    7e1e:	2804      	cmp	r0, #4
    7e20:	d101      	bne.n	7e26 <ethernet_input+0x12a>
    7e22:	2b08      	cmp	r3, #8
    7e24:	d003      	beq.n	7e2e <ethernet_input+0x132>
    7e26:	9000      	str	r0, [sp, #0]
    7e28:	4865      	ldr	r0, [pc, #404]	; (7fc0 <ethernet_input+0x2c4>)
    7e2a:	47b0      	blx	r6
    7e2c:	e7e9      	b.n	7e02 <ethernet_input+0x106>
    7e2e:	69e3      	ldr	r3, [r4, #28]
    7e30:	9313      	str	r3, [sp, #76]	; 0x4c
    7e32:	f8da 3004 	ldr.w	r3, [sl, #4]
    7e36:	f8d4 2026 	ldr.w	r2, [r4, #38]	; 0x26
    7e3a:	b113      	cbz	r3, 7e42 <ethernet_input+0x146>
    7e3c:	1ad2      	subs	r2, r2, r3
    7e3e:	4253      	negs	r3, r2
    7e40:	4153      	adcs	r3, r2
    7e42:	7ee0      	ldrb	r0, [r4, #27]
    7e44:	9006      	str	r0, [sp, #24]
    7e46:	7ea0      	ldrb	r0, [r4, #26]
    7e48:	9005      	str	r0, [sp, #20]
    7e4a:	7e60      	ldrb	r0, [r4, #25]
    7e4c:	9004      	str	r0, [sp, #16]
    7e4e:	7e20      	ldrb	r0, [r4, #24]
    7e50:	9003      	str	r0, [sp, #12]
    7e52:	7de0      	ldrb	r0, [r4, #23]
    7e54:	930a      	str	r3, [sp, #40]	; 0x28
    7e56:	9002      	str	r0, [sp, #8]
    7e58:	7da0      	ldrb	r0, [r4, #22]
    7e5a:	9b0a      	ldr	r3, [sp, #40]	; 0x28
    7e5c:	9001      	str	r0, [sp, #4]
    7e5e:	f89d 004f 	ldrb.w	r0, [sp, #79]	; 0x4f
    7e62:	9000      	str	r0, [sp, #0]
    7e64:	2b00      	cmp	r3, #0
    7e66:	f89d 204d 	ldrb.w	r2, [sp, #77]	; 0x4d
    7e6a:	f89d 304e 	ldrb.w	r3, [sp, #78]	; 0x4e
    7e6e:	f89d 104c 	ldrb.w	r1, [sp, #76]	; 0x4c
    7e72:	4854      	ldr	r0, [pc, #336]	; (7fc4 <ethernet_input+0x2c8>)
    7e74:	bf14      	ite	ne
    7e76:	f04f 0801 	movne.w	r8, #1
    7e7a:	f04f 0802 	moveq.w	r8, #2
    7e7e:	47b0      	blx	r6
    7e80:	9813      	ldr	r0, [sp, #76]	; 0x4c
    7e82:	f104 0516 	add.w	r5, r4, #22
    7e86:	f10a 072f 	add.w	r7, sl, #47	; 0x2f
    7e8a:	b980      	cbnz	r0, 7eae <ethernet_input+0x1b2>
    7e8c:	484e      	ldr	r0, [pc, #312]	; (7fc8 <ethernet_input+0x2cc>)
    7e8e:	4b4f      	ldr	r3, [pc, #316]	; (7fcc <ethernet_input+0x2d0>)
    7e90:	4798      	blx	r3
    7e92:	8aa0      	ldrh	r0, [r4, #20]
    7e94:	f5b0 7f80 	cmp.w	r0, #256	; 0x100
    7e98:	d04e      	beq.n	7f38 <ethernet_input+0x23c>
    7e9a:	f5b0 7f00 	cmp.w	r0, #512	; 0x200
    7e9e:	f000 80ab 	beq.w	7ff8 <ethernet_input+0x2fc>
    7ea2:	4b3e      	ldr	r3, [pc, #248]	; (7f9c <ethernet_input+0x2a0>)
    7ea4:	4798      	blx	r3
    7ea6:	4b3f      	ldr	r3, [pc, #252]	; (7fa4 <ethernet_input+0x2a8>)
    7ea8:	4601      	mov	r1, r0
    7eaa:	4849      	ldr	r0, [pc, #292]	; (7fd0 <ethernet_input+0x2d4>)
    7eac:	e06b      	b.n	7f86 <ethernet_input+0x28a>
    7eae:	4651      	mov	r1, sl
    7eb0:	4b48      	ldr	r3, [pc, #288]	; (7fd4 <ethernet_input+0x2d8>)
    7eb2:	4798      	blx	r3
    7eb4:	900b      	str	r0, [sp, #44]	; 0x2c
    7eb6:	2800      	cmp	r0, #0
    7eb8:	d1e8      	bne.n	7e8c <ethernet_input+0x190>
    7eba:	9b13      	ldr	r3, [sp, #76]	; 0x4c
    7ebc:	f003 03f0 	and.w	r3, r3, #240	; 0xf0
    7ec0:	2be0      	cmp	r3, #224	; 0xe0
    7ec2:	d0e3      	beq.n	7e8c <ethernet_input+0x190>
    7ec4:	4641      	mov	r1, r8
    7ec6:	a813      	add	r0, sp, #76	; 0x4c
    7ec8:	4b43      	ldr	r3, [pc, #268]	; (7fd8 <ethernet_input+0x2dc>)
    7eca:	4798      	blx	r3
    7ecc:	f1b0 0b00 	subs.w	fp, r0, #0
    7ed0:	dbdf      	blt.n	7e92 <ethernet_input+0x196>
    7ed2:	f8df 811c 	ldr.w	r8, [pc, #284]	; 7ff0 <ethernet_input+0x2f4>
    7ed6:	4841      	ldr	r0, [pc, #260]	; (7fdc <ethernet_input+0x2e0>)
    7ed8:	2214      	movs	r2, #20
    7eda:	fb02 f30b 	mul.w	r3, r2, fp
    7ede:	920f      	str	r2, [sp, #60]	; 0x3c
    7ee0:	eb08 0203 	add.w	r2, r8, r3
    7ee4:	2102      	movs	r1, #2
    7ee6:	7491      	strb	r1, [r2, #18]
    7ee8:	f8c2 a008 	str.w	sl, [r2, #8]
    7eec:	4659      	mov	r1, fp
    7eee:	930e      	str	r3, [sp, #56]	; 0x38
    7ef0:	920c      	str	r2, [sp, #48]	; 0x30
    7ef2:	47b0      	blx	r6
    7ef4:	9a0f      	ldr	r2, [sp, #60]	; 0x3c
    7ef6:	6828      	ldr	r0, [r5, #0]
    7ef8:	9b0c      	ldr	r3, [sp, #48]	; 0x30
    7efa:	210c      	movs	r1, #12
    7efc:	fb12 1b0b 	smlabb	fp, r2, fp, r1
    7f00:	eb08 020b 	add.w	r2, r8, fp
    7f04:	f848 000b 	str.w	r0, [r8, fp]
    7f08:	88a9      	ldrh	r1, [r5, #4]
    7f0a:	8091      	strh	r1, [r2, #4]
    7f0c:	461a      	mov	r2, r3
    7f0e:	f89d 302c 	ldrb.w	r3, [sp, #44]	; 0x2c
    7f12:	74d3      	strb	r3, [r2, #19]
    7f14:	9b0e      	ldr	r3, [sp, #56]	; 0x38
    7f16:	f858 6003 	ldr.w	r6, [r8, r3]
    7f1a:	2e00      	cmp	r6, #0
    7f1c:	d0b9      	beq.n	7e92 <ethernet_input+0x196>
    7f1e:	9a0b      	ldr	r2, [sp, #44]	; 0x2c
    7f20:	f848 2003 	str.w	r2, [r8, r3]
    7f24:	4631      	mov	r1, r6
    7f26:	462b      	mov	r3, r5
    7f28:	463a      	mov	r2, r7
    7f2a:	4650      	mov	r0, sl
    7f2c:	f8df 80c4 	ldr.w	r8, [pc, #196]	; 7ff4 <ethernet_input+0x2f8>
    7f30:	47c0      	blx	r8
    7f32:	4630      	mov	r0, r6
    7f34:	4b1c      	ldr	r3, [pc, #112]	; (7fa8 <ethernet_input+0x2ac>)
    7f36:	e7ab      	b.n	7e90 <ethernet_input+0x194>
    7f38:	4829      	ldr	r0, [pc, #164]	; (7fe0 <ethernet_input+0x2e4>)
    7f3a:	4e24      	ldr	r6, [pc, #144]	; (7fcc <ethernet_input+0x2d0>)
    7f3c:	47b0      	blx	r6
    7f3e:	9b0a      	ldr	r3, [sp, #40]	; 0x28
    7f40:	b31b      	cbz	r3, 7f8a <ethernet_input+0x28e>
    7f42:	4828      	ldr	r0, [pc, #160]	; (7fe4 <ethernet_input+0x2e8>)
    7f44:	47b0      	blx	r6
    7f46:	9b0d      	ldr	r3, [sp, #52]	; 0x34
    7f48:	2002      	movs	r0, #2
    7f4a:	4798      	blx	r3
    7f4c:	69e3      	ldr	r3, [r4, #28]
    7f4e:	82a0      	strh	r0, [r4, #20]
    7f50:	f8c4 3026 	str.w	r3, [r4, #38]	; 0x26
    7f54:	f8da 3004 	ldr.w	r3, [sl, #4]
    7f58:	61e3      	str	r3, [r4, #28]
    7f5a:	682b      	ldr	r3, [r5, #0]
    7f5c:	6223      	str	r3, [r4, #32]
    7f5e:	88ab      	ldrh	r3, [r5, #4]
    7f60:	84a3      	strh	r3, [r4, #36]	; 0x24
    7f62:	682b      	ldr	r3, [r5, #0]
    7f64:	6023      	str	r3, [r4, #0]
    7f66:	88ab      	ldrh	r3, [r5, #4]
    7f68:	80a3      	strh	r3, [r4, #4]
    7f6a:	683b      	ldr	r3, [r7, #0]
    7f6c:	f8c4 3016 	str.w	r3, [r4, #22]
    7f70:	88bb      	ldrh	r3, [r7, #4]
    7f72:	80ab      	strh	r3, [r5, #4]
    7f74:	683b      	ldr	r3, [r7, #0]
    7f76:	f8c4 3006 	str.w	r3, [r4, #6]
    7f7a:	88bb      	ldrh	r3, [r7, #4]
    7f7c:	8163      	strh	r3, [r4, #10]
    7f7e:	f8da 3018 	ldr.w	r3, [sl, #24]
    7f82:	4649      	mov	r1, r9
    7f84:	4650      	mov	r0, sl
    7f86:	4798      	blx	r3
    7f88:	e70a      	b.n	7da0 <ethernet_input+0xa4>
    7f8a:	f8da 3004 	ldr.w	r3, [sl, #4]
    7f8e:	b913      	cbnz	r3, 7f96 <ethernet_input+0x29a>
    7f90:	4815      	ldr	r0, [pc, #84]	; (7fe8 <ethernet_input+0x2ec>)
    7f92:	47b0      	blx	r6
    7f94:	e704      	b.n	7da0 <ethernet_input+0xa4>
    7f96:	4815      	ldr	r0, [pc, #84]	; (7fec <ethernet_input+0x2f0>)
    7f98:	e7fb      	b.n	7f92 <ethernet_input+0x296>
    7f9a:	bf00      	nop
    7f9c:	000011ed 	.word	0x000011ed
    7fa0:	0000d00b 	.word	0x0000d00b
    7fa4:	00008485 	.word	0x00008485
    7fa8:	00003f99 	.word	0x00003f99
    7fac:	0000cba4 	.word	0x0000cba4
    7fb0:	00008441 	.word	0x00008441
    7fb4:	00003f01 	.word	0x00003f01
    7fb8:	00002d21 	.word	0x00002d21
    7fbc:	0000d06c 	.word	0x0000d06c
    7fc0:	0000d0a3 	.word	0x0000d0a3
    7fc4:	0000d10f 	.word	0x0000d10f
    7fc8:	0000d15f 	.word	0x0000d15f
    7fcc:	00008595 	.word	0x00008595
    7fd0:	0000d2d0 	.word	0x0000d2d0
    7fd4:	00003141 	.word	0x00003141
    7fd8:	00007731 	.word	0x00007731
    7fdc:	0000d1a9 	.word	0x0000d1a9
    7fe0:	0000d1dd 	.word	0x0000d1dd
    7fe4:	0000d204 	.word	0x0000d204
    7fe8:	0000d241 	.word	0x0000d241
    7fec:	0000d27d 	.word	0x0000d27d
    7ff0:	20007eec 	.word	0x20007eec
    7ff4:	00007889 	.word	0x00007889
    7ff8:	4b03      	ldr	r3, [pc, #12]	; (8008 <ethernet_input+0x30c>)
    7ffa:	4804      	ldr	r0, [pc, #16]	; (800c <ethernet_input+0x310>)
    7ffc:	4798      	blx	r3
    7ffe:	a913      	add	r1, sp, #76	; 0x4c
    8000:	4650      	mov	r0, sl
    8002:	4b03      	ldr	r3, [pc, #12]	; (8010 <ethernet_input+0x314>)
    8004:	4798      	blx	r3
    8006:	e6cb      	b.n	7da0 <ethernet_input+0xa4>
    8008:	00008595 	.word	0x00008595
    800c:	0000d2ab 	.word	0x0000d2ab
    8010:	00002131 	.word	0x00002131

00008014 <mac_receive_cb>:
    8014:	4b01      	ldr	r3, [pc, #4]	; (801c <mac_receive_cb+0x8>)
    8016:	2201      	movs	r2, #1
    8018:	701a      	strb	r2, [r3, #0]
    801a:	4770      	bx	lr
    801c:	20007fb8 	.word	0x20007fb8

00008020 <status_callback>:
    8020:	f890 3035 	ldrb.w	r3, [r0, #53]	; 0x35
    8024:	07da      	lsls	r2, r3, #31
    8026:	d508      	bpl.n	803a <status_callback+0x1a>
    8028:	f013 0f08 	tst.w	r3, #8
    802c:	4b04      	ldr	r3, [pc, #16]	; (8040 <status_callback+0x20>)
    802e:	4905      	ldr	r1, [pc, #20]	; (8044 <status_callback+0x24>)
    8030:	4805      	ldr	r0, [pc, #20]	; (8048 <status_callback+0x28>)
    8032:	bf08      	it	eq
    8034:	4619      	moveq	r1, r3
    8036:	4b05      	ldr	r3, [pc, #20]	; (804c <status_callback+0x2c>)
    8038:	4718      	bx	r3
    803a:	4805      	ldr	r0, [pc, #20]	; (8050 <status_callback+0x30>)
    803c:	4b05      	ldr	r3, [pc, #20]	; (8054 <status_callback+0x34>)
    803e:	4718      	bx	r3
    8040:	0000d306 	.word	0x0000d306
    8044:	0000d2ff 	.word	0x0000d2ff
    8048:	0000d30f 	.word	0x0000d30f
    804c:	00008485 	.word	0x00008485
    8050:	0000d321 	.word	0x0000d321
    8054:	00008595 	.word	0x00008595

00008058 <link_callback>:
    8058:	b570      	push	{r4, r5, r6, lr}
    805a:	f890 3035 	ldrb.w	r3, [r0, #53]	; 0x35
    805e:	4c0b      	ldr	r4, [pc, #44]	; (808c <link_callback+0x34>)
    8060:	f013 0f10 	tst.w	r3, #16
    8064:	4605      	mov	r5, r0
    8066:	d00c      	beq.n	8082 <link_callback+0x2a>
    8068:	4809      	ldr	r0, [pc, #36]	; (8090 <link_callback+0x38>)
    806a:	47a0      	blx	r4
    806c:	f895 3035 	ldrb.w	r3, [r5, #53]	; 0x35
    8070:	071b      	lsls	r3, r3, #28
    8072:	d509      	bpl.n	8088 <link_callback+0x30>
    8074:	4807      	ldr	r0, [pc, #28]	; (8094 <link_callback+0x3c>)
    8076:	47a0      	blx	r4
    8078:	4b07      	ldr	r3, [pc, #28]	; (8098 <link_callback+0x40>)
    807a:	4628      	mov	r0, r5
    807c:	e8bd 4070 	ldmia.w	sp!, {r4, r5, r6, lr}
    8080:	4718      	bx	r3
    8082:	4806      	ldr	r0, [pc, #24]	; (809c <link_callback+0x44>)
    8084:	4623      	mov	r3, r4
    8086:	e7f9      	b.n	807c <link_callback+0x24>
    8088:	bd70      	pop	{r4, r5, r6, pc}
    808a:	bf00      	nop
    808c:	00008595 	.word	0x00008595
    8090:	0000d331 	.word	0x0000d331
    8094:	0000d33a 	.word	0x0000d33a
    8098:	0000263d 	.word	0x0000263d
    809c:	0000d34a 	.word	0x0000d34a

000080a0 <sys_now>:
    80a0:	4b01      	ldr	r3, [pc, #4]	; (80a8 <sys_now+0x8>)
    80a2:	6858      	ldr	r0, [r3, #4]
    80a4:	4770      	bx	lr
    80a6:	bf00      	nop
    80a8:	20007fb8 	.word	0x20007fb8

000080ac <SysTick_Handler>:
    80ac:	4a02      	ldr	r2, [pc, #8]	; (80b8 <SysTick_Handler+0xc>)
    80ae:	6853      	ldr	r3, [r2, #4]
    80b0:	3301      	adds	r3, #1
    80b2:	6053      	str	r3, [r2, #4]
    80b4:	4770      	bx	lr
    80b6:	bf00      	nop
    80b8:	20007fb8 	.word	0x20007fb8

000080bc <systick_enable>:
    80bc:	4b07      	ldr	r3, [pc, #28]	; (80dc <systick_enable+0x20>)
    80be:	2200      	movs	r2, #0
    80c0:	605a      	str	r2, [r3, #4]
    80c2:	4b07      	ldr	r3, [pc, #28]	; (80e0 <systick_enable+0x24>)
    80c4:	f642 61df 	movw	r1, #11999	; 0x2edf
    80c8:	6059      	str	r1, [r3, #4]
    80ca:	4906      	ldr	r1, [pc, #24]	; (80e4 <systick_enable+0x28>)
    80cc:	20e0      	movs	r0, #224	; 0xe0
    80ce:	f881 0023 	strb.w	r0, [r1, #35]	; 0x23
    80d2:	609a      	str	r2, [r3, #8]
    80d4:	2207      	movs	r2, #7
    80d6:	601a      	str	r2, [r3, #0]
    80d8:	4770      	bx	lr
    80da:	bf00      	nop
    80dc:	20007fb8 	.word	0x20007fb8
    80e0:	e000e010 	.word	0xe000e010
    80e4:	e000ed00 	.word	0xe000ed00

000080e8 <main>:
    80e8:	e92d 4ff0 	stmdb	sp!, {r4, r5, r6, r7, r8, r9, sl, fp, lr}
    80ec:	4b61      	ldr	r3, [pc, #388]	; (8274 <main+0x18c>)
    80ee:	4d62      	ldr	r5, [pc, #392]	; (8278 <main+0x190>)
    80f0:	4f62      	ldr	r7, [pc, #392]	; (827c <main+0x194>)
    80f2:	4c63      	ldr	r4, [pc, #396]	; (8280 <main+0x198>)
    80f4:	4e63      	ldr	r6, [pc, #396]	; (8284 <main+0x19c>)
    80f6:	b0cd      	sub	sp, #308	; 0x134
    80f8:	4798      	blx	r3
    80fa:	a902      	add	r1, sp, #8
    80fc:	4b62      	ldr	r3, [pc, #392]	; (8288 <main+0x1a0>)
    80fe:	4863      	ldr	r0, [pc, #396]	; (828c <main+0x1a4>)
    8100:	4798      	blx	r3
    8102:	4b63      	ldr	r3, [pc, #396]	; (8290 <main+0x1a8>)
    8104:	4861      	ldr	r0, [pc, #388]	; (828c <main+0x1a4>)
    8106:	4798      	blx	r3
    8108:	4962      	ldr	r1, [pc, #392]	; (8294 <main+0x1ac>)
    810a:	a80c      	add	r0, sp, #48	; 0x30
    810c:	47a8      	blx	r5
    810e:	a80c      	add	r0, sp, #48	; 0x30
    8110:	47b8      	blx	r7
    8112:	a90c      	add	r1, sp, #48	; 0x30
    8114:	b282      	uxth	r2, r0
    8116:	9802      	ldr	r0, [sp, #8]
    8118:	47a0      	blx	r4
    811a:	495f      	ldr	r1, [pc, #380]	; (8298 <main+0x1b0>)
    811c:	a80c      	add	r0, sp, #48	; 0x30
    811e:	47a8      	blx	r5
    8120:	a80c      	add	r0, sp, #48	; 0x30
    8122:	47b8      	blx	r7
    8124:	a90c      	add	r1, sp, #48	; 0x30
    8126:	b282      	uxth	r2, r0
    8128:	9802      	ldr	r0, [sp, #8]
    812a:	47a0      	blx	r4
    812c:	4959      	ldr	r1, [pc, #356]	; (8294 <main+0x1ac>)
    812e:	a80c      	add	r0, sp, #48	; 0x30
    8130:	47a8      	blx	r5
    8132:	a80c      	add	r0, sp, #48	; 0x30
    8134:	47b8      	blx	r7
    8136:	a90c      	add	r1, sp, #48	; 0x30
    8138:	b282      	uxth	r2, r0
    813a:	9802      	ldr	r0, [sp, #8]
    813c:	47a0      	blx	r4
    813e:	2374      	movs	r3, #116	; 0x74
    8140:	f88d 3028 	strb.w	r3, [sp, #40]	; 0x28
    8144:	2327      	movs	r3, #39	; 0x27
    8146:	f88d 3029 	strb.w	r3, [sp, #41]	; 0x29
    814a:	23ea      	movs	r3, #234	; 0xea
    814c:	f88d 302a 	strb.w	r3, [sp, #42]	; 0x2a
    8150:	23da      	movs	r3, #218	; 0xda
    8152:	f88d 302b 	strb.w	r3, [sp, #43]	; 0x2b
    8156:	2389      	movs	r3, #137	; 0x89
    8158:	f88d 302c 	strb.w	r3, [sp, #44]	; 0x2c
    815c:	2385      	movs	r3, #133	; 0x85
    815e:	f88d 302d 	strb.w	r3, [sp, #45]	; 0x2d
    8162:	4b4e      	ldr	r3, [pc, #312]	; (829c <main+0x1b4>)
    8164:	4798      	blx	r3
    8166:	4b4e      	ldr	r3, [pc, #312]	; (82a0 <main+0x1b8>)
    8168:	4798      	blx	r3
    816a:	484e      	ldr	r0, [pc, #312]	; (82a4 <main+0x1bc>)
    816c:	47b0      	blx	r6
    816e:	4a4e      	ldr	r2, [pc, #312]	; (82a8 <main+0x1c0>)
    8170:	4b4e      	ldr	r3, [pc, #312]	; (82ac <main+0x1c4>)
    8172:	484f      	ldr	r0, [pc, #316]	; (82b0 <main+0x1c8>)
    8174:	2100      	movs	r1, #0
    8176:	4798      	blx	r3
    8178:	4b4e      	ldr	r3, [pc, #312]	; (82b4 <main+0x1cc>)
    817a:	4798      	blx	r3
    817c:	9401      	str	r4, [sp, #4]
    817e:	4c4e      	ldr	r4, [pc, #312]	; (82b8 <main+0x1d0>)
    8180:	46b8      	mov	r8, r7
    8182:	4f4e      	ldr	r7, [pc, #312]	; (82bc <main+0x1d4>)
    8184:	f104 0908 	add.w	r9, r4, #8
    8188:	4649      	mov	r1, r9
    818a:	4638      	mov	r0, r7
    818c:	4b4c      	ldr	r3, [pc, #304]	; (82c0 <main+0x1d8>)
    818e:	4798      	blx	r3
    8190:	2800      	cmp	r0, #0
    8192:	d1f9      	bne.n	8188 <main+0xa0>
    8194:	7a23      	ldrb	r3, [r4, #8]
    8196:	2b00      	cmp	r3, #0
    8198:	d0f6      	beq.n	8188 <main+0xa0>
    819a:	484a      	ldr	r0, [pc, #296]	; (82c4 <main+0x1dc>)
    819c:	47b0      	blx	r6
    819e:	a80a      	add	r0, sp, #40	; 0x28
    81a0:	4b49      	ldr	r3, [pc, #292]	; (82c8 <main+0x1e0>)
    81a2:	4798      	blx	r3
    81a4:	4849      	ldr	r0, [pc, #292]	; (82cc <main+0x1e4>)
    81a6:	4b4a      	ldr	r3, [pc, #296]	; (82d0 <main+0x1e8>)
    81a8:	4798      	blx	r3
    81aa:	494a      	ldr	r1, [pc, #296]	; (82d4 <main+0x1ec>)
    81ac:	4847      	ldr	r0, [pc, #284]	; (82cc <main+0x1e4>)
    81ae:	4b4a      	ldr	r3, [pc, #296]	; (82d8 <main+0x1f0>)
    81b0:	4798      	blx	r3
    81b2:	494a      	ldr	r1, [pc, #296]	; (82dc <main+0x1f4>)
    81b4:	4845      	ldr	r0, [pc, #276]	; (82cc <main+0x1e4>)
    81b6:	4b4a      	ldr	r3, [pc, #296]	; (82e0 <main+0x1f8>)
    81b8:	4798      	blx	r3
    81ba:	4b4a      	ldr	r3, [pc, #296]	; (82e4 <main+0x1fc>)
    81bc:	483c      	ldr	r0, [pc, #240]	; (82b0 <main+0x1c8>)
    81be:	4798      	blx	r3
    81c0:	4b49      	ldr	r3, [pc, #292]	; (82e8 <main+0x200>)
    81c2:	4842      	ldr	r0, [pc, #264]	; (82cc <main+0x1e4>)
    81c4:	4798      	blx	r3
    81c6:	4849      	ldr	r0, [pc, #292]	; (82ec <main+0x204>)
    81c8:	47b0      	blx	r6
    81ca:	4b49      	ldr	r3, [pc, #292]	; (82f0 <main+0x208>)
    81cc:	4949      	ldr	r1, [pc, #292]	; (82f4 <main+0x20c>)
    81ce:	221c      	movs	r2, #28
    81d0:	601a      	str	r2, [r3, #0]
    81d2:	4a49      	ldr	r2, [pc, #292]	; (82f8 <main+0x210>)
    81d4:	605a      	str	r2, [r3, #4]
    81d6:	f243 4286 	movw	r2, #13446	; 0x3486
    81da:	629a      	str	r2, [r3, #40]	; 0x28
    81dc:	62d9      	str	r1, [r3, #44]	; 0x2c
    81de:	629a      	str	r2, [r3, #40]	; 0x28
    81e0:	b662      	cpsie	i
    81e2:	4833      	ldr	r0, [pc, #204]	; (82b0 <main+0x1c8>)
    81e4:	4b45      	ldr	r3, [pc, #276]	; (82fc <main+0x214>)
    81e6:	f8df 913c 	ldr.w	r9, [pc, #316]	; 8324 <main+0x23c>
    81ea:	4e38      	ldr	r6, [pc, #224]	; (82cc <main+0x1e4>)
    81ec:	f8df a138 	ldr.w	sl, [pc, #312]	; 8328 <main+0x240>
    81f0:	4798      	blx	r3
    81f2:	7823      	ldrb	r3, [r4, #0]
    81f4:	b16b      	cbz	r3, 8212 <main+0x12a>
    81f6:	4649      	mov	r1, r9
    81f8:	a80c      	add	r0, sp, #48	; 0x30
    81fa:	47a8      	blx	r5
    81fc:	a80c      	add	r0, sp, #48	; 0x30
    81fe:	47c0      	blx	r8
    8200:	9b01      	ldr	r3, [sp, #4]
    8202:	b282      	uxth	r2, r0
    8204:	a90c      	add	r1, sp, #48	; 0x30
    8206:	9802      	ldr	r0, [sp, #8]
    8208:	4798      	blx	r3
    820a:	2300      	movs	r3, #0
    820c:	4630      	mov	r0, r6
    820e:	7023      	strb	r3, [r4, #0]
    8210:	47d0      	blx	sl
    8212:	4b3b      	ldr	r3, [pc, #236]	; (8300 <main+0x218>)
    8214:	4798      	blx	r3
    8216:	7a23      	ldrb	r3, [r4, #8]
    8218:	b1db      	cbz	r3, 8252 <main+0x16a>
    821a:	6873      	ldr	r3, [r6, #4]
    821c:	b1cb      	cbz	r3, 8252 <main+0x16a>
    821e:	2300      	movs	r3, #0
    8220:	2210      	movs	r2, #16
    8222:	4f38      	ldr	r7, [pc, #224]	; (8304 <main+0x21c>)
    8224:	4938      	ldr	r1, [pc, #224]	; (8308 <main+0x220>)
    8226:	4839      	ldr	r0, [pc, #228]	; (830c <main+0x224>)
    8228:	7223      	strb	r3, [r4, #8]
    822a:	47b8      	blx	r7
    822c:	f8df b0fc 	ldr.w	fp, [pc, #252]	; 832c <main+0x244>
    8230:	4601      	mov	r1, r0
    8232:	4837      	ldr	r0, [pc, #220]	; (8310 <main+0x228>)
    8234:	47d8      	blx	fp
    8236:	2210      	movs	r2, #16
    8238:	4933      	ldr	r1, [pc, #204]	; (8308 <main+0x220>)
    823a:	4836      	ldr	r0, [pc, #216]	; (8314 <main+0x22c>)
    823c:	47b8      	blx	r7
    823e:	4601      	mov	r1, r0
    8240:	4835      	ldr	r0, [pc, #212]	; (8318 <main+0x230>)
    8242:	47d8      	blx	fp
    8244:	4930      	ldr	r1, [pc, #192]	; (8308 <main+0x220>)
    8246:	4835      	ldr	r0, [pc, #212]	; (831c <main+0x234>)
    8248:	2210      	movs	r2, #16
    824a:	47b8      	blx	r7
    824c:	4601      	mov	r1, r0
    824e:	4834      	ldr	r0, [pc, #208]	; (8320 <main+0x238>)
    8250:	47d8      	blx	fp
    8252:	4b27      	ldr	r3, [pc, #156]	; (82f0 <main+0x208>)
    8254:	6b1a      	ldr	r2, [r3, #48]	; 0x30
    8256:	9203      	str	r2, [sp, #12]
    8258:	6a5a      	ldr	r2, [r3, #36]	; 0x24
    825a:	9204      	str	r2, [sp, #16]
    825c:	681a      	ldr	r2, [r3, #0]
    825e:	9205      	str	r2, [sp, #20]
    8260:	685a      	ldr	r2, [r3, #4]
    8262:	9206      	str	r2, [sp, #24]
    8264:	68da      	ldr	r2, [r3, #12]
    8266:	9207      	str	r2, [sp, #28]
    8268:	691a      	ldr	r2, [r3, #16]
    826a:	9209      	str	r2, [sp, #36]	; 0x24
    826c:	6a1b      	ldr	r3, [r3, #32]
    826e:	9308      	str	r3, [sp, #32]
    8270:	e7bf      	b.n	81f2 <main+0x10a>
    8272:	bf00      	nop
    8274:	000002d1 	.word	0x000002d1
    8278:	00008711 	.word	0x00008711
    827c:	00008721 	.word	0x00008721
    8280:	00000761 	.word	0x00000761
    8284:	00008595 	.word	0x00008595
    8288:	00000999 	.word	0x00000999
    828c:	20007fe8 	.word	0x20007fe8
    8290:	00000989 	.word	0x00000989
    8294:	0000d392 	.word	0x0000d392
    8298:	0000d3ae 	.word	0x0000d3ae
    829c:	000080bd 	.word	0x000080bd
    82a0:	0000065d 	.word	0x0000065d
    82a4:	0000d3ca 	.word	0x0000d3ca
    82a8:	00008015 	.word	0x00008015
    82ac:	000007a9 	.word	0x000007a9
    82b0:	20008000 	.word	0x20008000
    82b4:	00000759 	.word	0x00000759
    82b8:	20007fb8 	.word	0x20007fb8
    82bc:	20007fe0 	.word	0x20007fe0
    82c0:	0000060d 	.word	0x0000060d
    82c4:	0000d3e0 	.word	0x0000d3e0
    82c8:	0000070d 	.word	0x0000070d
    82cc:	20008038 	.word	0x20008038
    82d0:	00003da1 	.word	0x00003da1
    82d4:	00008021 	.word	0x00008021
    82d8:	00003e31 	.word	0x00003e31
    82dc:	00008059 	.word	0x00008059
    82e0:	00003e37 	.word	0x00003e37
    82e4:	00000781 	.word	0x00000781
    82e8:	0000263d 	.word	0x0000263d
    82ec:	0000d400 	.word	0x0000d400
    82f0:	42000800 	.word	0x42000800
    82f4:	ffffcb79 	.word	0xffffcb79
    82f8:	440c0013 	.word	0x440c0013
    82fc:	000007a1 	.word	0x000007a1
    8300:	00007045 	.word	0x00007045
    8304:	00003173 	.word	0x00003173
    8308:	20007fc1 	.word	0x20007fc1
    830c:	2000803c 	.word	0x2000803c
    8310:	0000d416 	.word	0x0000d416
    8314:	20008040 	.word	0x20008040
    8318:	0000d428 	.word	0x0000d428
    831c:	20008044 	.word	0x20008044
    8320:	0000d43a 	.word	0x0000d43a
    8324:	0000d40e 	.word	0x0000d40e
    8328:	00001161 	.word	0x00001161
    832c:	00008485 	.word	0x00008485

00008330 <_read>:
    8330:	b508      	push	{r3, lr}
    8332:	460b      	mov	r3, r1
    8334:	b930      	cbnz	r0, 8344 <_read+0x14>
    8336:	4611      	mov	r1, r2
    8338:	4618      	mov	r0, r3
    833a:	4b04      	ldr	r3, [pc, #16]	; (834c <_read+0x1c>)
    833c:	4798      	blx	r3
    833e:	ea40 70e0 	orr.w	r0, r0, r0, asr #31
    8342:	bd08      	pop	{r3, pc}
    8344:	f04f 30ff 	mov.w	r0, #4294967295
    8348:	bd08      	pop	{r3, pc}
    834a:	bf00      	nop
    834c:	000083a1 	.word	0x000083a1

00008350 <_write>:
    8350:	3801      	subs	r0, #1
    8352:	2802      	cmp	r0, #2
    8354:	b508      	push	{r3, lr}
    8356:	460b      	mov	r3, r1
    8358:	d806      	bhi.n	8368 <_write+0x18>
    835a:	4611      	mov	r1, r2
    835c:	4618      	mov	r0, r3
    835e:	4b04      	ldr	r3, [pc, #16]	; (8370 <_write+0x20>)
    8360:	4798      	blx	r3
    8362:	ea40 70e0 	orr.w	r0, r0, r0, asr #31
    8366:	bd08      	pop	{r3, pc}
    8368:	f04f 30ff 	mov.w	r0, #4294967295
    836c:	bd08      	pop	{r3, pc}
    836e:	bf00      	nop
    8370:	000083bd 	.word	0x000083bd

00008374 <stdio_io_init>:
    8374:	b570      	push	{r4, r5, r6, lr}
    8376:	4d07      	ldr	r5, [pc, #28]	; (8394 <stdio_io_init+0x20>)
    8378:	4c07      	ldr	r4, [pc, #28]	; (8398 <stdio_io_init+0x24>)
    837a:	682b      	ldr	r3, [r5, #0]
    837c:	4606      	mov	r6, r0
    837e:	2100      	movs	r1, #0
    8380:	6898      	ldr	r0, [r3, #8]
    8382:	47a0      	blx	r4
    8384:	682b      	ldr	r3, [r5, #0]
    8386:	2100      	movs	r1, #0
    8388:	6858      	ldr	r0, [r3, #4]
    838a:	47a0      	blx	r4
    838c:	4b03      	ldr	r3, [pc, #12]	; (839c <stdio_io_init+0x28>)
    838e:	601e      	str	r6, [r3, #0]
    8390:	bd70      	pop	{r4, r5, r6, pc}
    8392:	bf00      	nop
    8394:	20000010 	.word	0x20000010
    8398:	000085a5 	.word	0x000085a5
    839c:	20007fd4 	.word	0x20007fd4

000083a0 <stdio_io_read>:
    83a0:	4a04      	ldr	r2, [pc, #16]	; (83b4 <stdio_io_read+0x14>)
    83a2:	4603      	mov	r3, r0
    83a4:	6810      	ldr	r0, [r2, #0]
    83a6:	b118      	cbz	r0, 83b0 <stdio_io_read+0x10>
    83a8:	b28a      	uxth	r2, r1
    83aa:	4619      	mov	r1, r3
    83ac:	4b02      	ldr	r3, [pc, #8]	; (83b8 <stdio_io_read+0x18>)
    83ae:	4718      	bx	r3
    83b0:	4770      	bx	lr
    83b2:	bf00      	nop
    83b4:	20007fd4 	.word	0x20007fd4
    83b8:	00000765 	.word	0x00000765

000083bc <stdio_io_write>:
    83bc:	4a04      	ldr	r2, [pc, #16]	; (83d0 <stdio_io_write+0x14>)
    83be:	4603      	mov	r3, r0
    83c0:	6810      	ldr	r0, [r2, #0]
    83c2:	b118      	cbz	r0, 83cc <stdio_io_write+0x10>
    83c4:	b28a      	uxth	r2, r1
    83c6:	4619      	mov	r1, r3
    83c8:	4b02      	ldr	r3, [pc, #8]	; (83d4 <stdio_io_write+0x18>)
    83ca:	4718      	bx	r3
    83cc:	4770      	bx	lr
    83ce:	bf00      	nop
    83d0:	20007fd4 	.word	0x20007fd4
    83d4:	00000761 	.word	0x00000761

000083d8 <stdio_redirect_init>:
    83d8:	b510      	push	{r4, lr}
    83da:	4c04      	ldr	r4, [pc, #16]	; (83ec <stdio_redirect_init+0x14>)
    83dc:	4b04      	ldr	r3, [pc, #16]	; (83f0 <stdio_redirect_init+0x18>)
    83de:	4620      	mov	r0, r4
    83e0:	4798      	blx	r3
    83e2:	4620      	mov	r0, r4
    83e4:	4b03      	ldr	r3, [pc, #12]	; (83f4 <stdio_redirect_init+0x1c>)
    83e6:	e8bd 4010 	ldmia.w	sp!, {r4, lr}
    83ea:	4718      	bx	r3
    83ec:	20007fe8 	.word	0x20007fe8
    83f0:	00000989 	.word	0x00000989
    83f4:	00008375 	.word	0x00008375

000083f8 <__libc_init_array>:
    83f8:	b570      	push	{r4, r5, r6, lr}
    83fa:	4e0d      	ldr	r6, [pc, #52]	; (8430 <__libc_init_array+0x38>)
    83fc:	4c0d      	ldr	r4, [pc, #52]	; (8434 <__libc_init_array+0x3c>)
    83fe:	1ba4      	subs	r4, r4, r6
    8400:	10a4      	asrs	r4, r4, #2
    8402:	2500      	movs	r5, #0
    8404:	42a5      	cmp	r5, r4
    8406:	d109      	bne.n	841c <__libc_init_array+0x24>
    8408:	4e0b      	ldr	r6, [pc, #44]	; (8438 <__libc_init_array+0x40>)
    840a:	4c0c      	ldr	r4, [pc, #48]	; (843c <__libc_init_array+0x44>)
    840c:	f005 f86a 	bl	d4e4 <_init>
    8410:	1ba4      	subs	r4, r4, r6
    8412:	10a4      	asrs	r4, r4, #2
    8414:	2500      	movs	r5, #0
    8416:	42a5      	cmp	r5, r4
    8418:	d105      	bne.n	8426 <__libc_init_array+0x2e>
    841a:	bd70      	pop	{r4, r5, r6, pc}
    841c:	f856 3025 	ldr.w	r3, [r6, r5, lsl #2]
    8420:	4798      	blx	r3
    8422:	3501      	adds	r5, #1
    8424:	e7ee      	b.n	8404 <__libc_init_array+0xc>
    8426:	f856 3025 	ldr.w	r3, [r6, r5, lsl #2]
    842a:	4798      	blx	r3
    842c:	3501      	adds	r5, #1
    842e:	e7f2      	b.n	8416 <__libc_init_array+0x1e>
    8430:	0000d4f0 	.word	0x0000d4f0
    8434:	0000d4f0 	.word	0x0000d4f0
    8438:	0000d4f0 	.word	0x0000d4f0
    843c:	0000d4f4 	.word	0x0000d4f4

00008440 <memcmp>:
    8440:	b510      	push	{r4, lr}
    8442:	3901      	subs	r1, #1
    8444:	4402      	add	r2, r0
    8446:	4290      	cmp	r0, r2
    8448:	d101      	bne.n	844e <memcmp+0xe>
    844a:	2000      	movs	r0, #0
    844c:	bd10      	pop	{r4, pc}
    844e:	f810 3b01 	ldrb.w	r3, [r0], #1
    8452:	f811 4f01 	ldrb.w	r4, [r1, #1]!
    8456:	42a3      	cmp	r3, r4
    8458:	d0f5      	beq.n	8446 <memcmp+0x6>
    845a:	1b18      	subs	r0, r3, r4
    845c:	bd10      	pop	{r4, pc}

0000845e <memcpy>:
    845e:	b510      	push	{r4, lr}
    8460:	1e43      	subs	r3, r0, #1
    8462:	440a      	add	r2, r1
    8464:	4291      	cmp	r1, r2
    8466:	d100      	bne.n	846a <memcpy+0xc>
    8468:	bd10      	pop	{r4, pc}
    846a:	f811 4b01 	ldrb.w	r4, [r1], #1
    846e:	f803 4f01 	strb.w	r4, [r3, #1]!
    8472:	e7f7      	b.n	8464 <memcpy+0x6>

00008474 <memset>:
    8474:	4402      	add	r2, r0
    8476:	4603      	mov	r3, r0
    8478:	4293      	cmp	r3, r2
    847a:	d100      	bne.n	847e <memset+0xa>
    847c:	4770      	bx	lr
    847e:	f803 1b01 	strb.w	r1, [r3], #1
    8482:	e7f9      	b.n	8478 <memset+0x4>

00008484 <iprintf>:
    8484:	b40f      	push	{r0, r1, r2, r3}
    8486:	4b0a      	ldr	r3, [pc, #40]	; (84b0 <iprintf+0x2c>)
    8488:	b513      	push	{r0, r1, r4, lr}
    848a:	681c      	ldr	r4, [r3, #0]
    848c:	b124      	cbz	r4, 8498 <iprintf+0x14>
    848e:	69a3      	ldr	r3, [r4, #24]
    8490:	b913      	cbnz	r3, 8498 <iprintf+0x14>
    8492:	4620      	mov	r0, r4
    8494:	f000 fafe 	bl	8a94 <__sinit>
    8498:	ab05      	add	r3, sp, #20
    849a:	9a04      	ldr	r2, [sp, #16]
    849c:	68a1      	ldr	r1, [r4, #8]
    849e:	9301      	str	r3, [sp, #4]
    84a0:	4620      	mov	r0, r4
    84a2:	f000 fcc1 	bl	8e28 <_vfiprintf_r>
    84a6:	b002      	add	sp, #8
    84a8:	e8bd 4010 	ldmia.w	sp!, {r4, lr}
    84ac:	b004      	add	sp, #16
    84ae:	4770      	bx	lr
    84b0:	20000010 	.word	0x20000010

000084b4 <putchar>:
    84b4:	b538      	push	{r3, r4, r5, lr}
    84b6:	4b08      	ldr	r3, [pc, #32]	; (84d8 <putchar+0x24>)
    84b8:	681c      	ldr	r4, [r3, #0]
    84ba:	4605      	mov	r5, r0
    84bc:	b124      	cbz	r4, 84c8 <putchar+0x14>
    84be:	69a3      	ldr	r3, [r4, #24]
    84c0:	b913      	cbnz	r3, 84c8 <putchar+0x14>
    84c2:	4620      	mov	r0, r4
    84c4:	f000 fae6 	bl	8a94 <__sinit>
    84c8:	68a2      	ldr	r2, [r4, #8]
    84ca:	4629      	mov	r1, r5
    84cc:	4620      	mov	r0, r4
    84ce:	e8bd 4038 	ldmia.w	sp!, {r3, r4, r5, lr}
    84d2:	f000 bf55 	b.w	9380 <_putc_r>
    84d6:	bf00      	nop
    84d8:	20000010 	.word	0x20000010

000084dc <_puts_r>:
    84dc:	b570      	push	{r4, r5, r6, lr}
    84de:	460e      	mov	r6, r1
    84e0:	4605      	mov	r5, r0
    84e2:	b118      	cbz	r0, 84ec <_puts_r+0x10>
    84e4:	6983      	ldr	r3, [r0, #24]
    84e6:	b90b      	cbnz	r3, 84ec <_puts_r+0x10>
    84e8:	f000 fad4 	bl	8a94 <__sinit>
    84ec:	69ab      	ldr	r3, [r5, #24]
    84ee:	68ac      	ldr	r4, [r5, #8]
    84f0:	b913      	cbnz	r3, 84f8 <_puts_r+0x1c>
    84f2:	4628      	mov	r0, r5
    84f4:	f000 face 	bl	8a94 <__sinit>
    84f8:	4b23      	ldr	r3, [pc, #140]	; (8588 <_puts_r+0xac>)
    84fa:	429c      	cmp	r4, r3
    84fc:	d117      	bne.n	852e <_puts_r+0x52>
    84fe:	686c      	ldr	r4, [r5, #4]
    8500:	89a3      	ldrh	r3, [r4, #12]
    8502:	071b      	lsls	r3, r3, #28
    8504:	d51d      	bpl.n	8542 <_puts_r+0x66>
    8506:	6923      	ldr	r3, [r4, #16]
    8508:	b1db      	cbz	r3, 8542 <_puts_r+0x66>
    850a:	3e01      	subs	r6, #1
    850c:	68a3      	ldr	r3, [r4, #8]
    850e:	f816 1f01 	ldrb.w	r1, [r6, #1]!
    8512:	3b01      	subs	r3, #1
    8514:	60a3      	str	r3, [r4, #8]
    8516:	b9e9      	cbnz	r1, 8554 <_puts_r+0x78>
    8518:	2b00      	cmp	r3, #0
    851a:	da2e      	bge.n	857a <_puts_r+0x9e>
    851c:	4622      	mov	r2, r4
    851e:	210a      	movs	r1, #10
    8520:	4628      	mov	r0, r5
    8522:	f000 f905 	bl	8730 <__swbuf_r>
    8526:	3001      	adds	r0, #1
    8528:	d011      	beq.n	854e <_puts_r+0x72>
    852a:	200a      	movs	r0, #10
    852c:	bd70      	pop	{r4, r5, r6, pc}
    852e:	4b17      	ldr	r3, [pc, #92]	; (858c <_puts_r+0xb0>)
    8530:	429c      	cmp	r4, r3
    8532:	d101      	bne.n	8538 <_puts_r+0x5c>
    8534:	68ac      	ldr	r4, [r5, #8]
    8536:	e7e3      	b.n	8500 <_puts_r+0x24>
    8538:	4b15      	ldr	r3, [pc, #84]	; (8590 <_puts_r+0xb4>)
    853a:	429c      	cmp	r4, r3
    853c:	bf08      	it	eq
    853e:	68ec      	ldreq	r4, [r5, #12]
    8540:	e7de      	b.n	8500 <_puts_r+0x24>
    8542:	4621      	mov	r1, r4
    8544:	4628      	mov	r0, r5
    8546:	f000 f945 	bl	87d4 <__swsetup_r>
    854a:	2800      	cmp	r0, #0
    854c:	d0dd      	beq.n	850a <_puts_r+0x2e>
    854e:	f04f 30ff 	mov.w	r0, #4294967295
    8552:	bd70      	pop	{r4, r5, r6, pc}
    8554:	2b00      	cmp	r3, #0
    8556:	da04      	bge.n	8562 <_puts_r+0x86>
    8558:	69a2      	ldr	r2, [r4, #24]
    855a:	4293      	cmp	r3, r2
    855c:	db06      	blt.n	856c <_puts_r+0x90>
    855e:	290a      	cmp	r1, #10
    8560:	d004      	beq.n	856c <_puts_r+0x90>
    8562:	6823      	ldr	r3, [r4, #0]
    8564:	1c5a      	adds	r2, r3, #1
    8566:	6022      	str	r2, [r4, #0]
    8568:	7019      	strb	r1, [r3, #0]
    856a:	e7cf      	b.n	850c <_puts_r+0x30>
    856c:	4622      	mov	r2, r4
    856e:	4628      	mov	r0, r5
    8570:	f000 f8de 	bl	8730 <__swbuf_r>
    8574:	3001      	adds	r0, #1
    8576:	d1c9      	bne.n	850c <_puts_r+0x30>
    8578:	e7e9      	b.n	854e <_puts_r+0x72>
    857a:	6823      	ldr	r3, [r4, #0]
    857c:	200a      	movs	r0, #10
    857e:	1c5a      	adds	r2, r3, #1
    8580:	6022      	str	r2, [r4, #0]
    8582:	7018      	strb	r0, [r3, #0]
    8584:	bd70      	pop	{r4, r5, r6, pc}
    8586:	bf00      	nop
    8588:	0000d470 	.word	0x0000d470
    858c:	0000d490 	.word	0x0000d490
    8590:	0000d450 	.word	0x0000d450

00008594 <puts>:
    8594:	4b02      	ldr	r3, [pc, #8]	; (85a0 <puts+0xc>)
    8596:	4601      	mov	r1, r0
    8598:	6818      	ldr	r0, [r3, #0]
    859a:	f7ff bf9f 	b.w	84dc <_puts_r>
    859e:	bf00      	nop
    85a0:	20000010 	.word	0x20000010

000085a4 <setbuf>:
    85a4:	2900      	cmp	r1, #0
    85a6:	f44f 6380 	mov.w	r3, #1024	; 0x400
    85aa:	bf0c      	ite	eq
    85ac:	2202      	moveq	r2, #2
    85ae:	2200      	movne	r2, #0
    85b0:	f000 b800 	b.w	85b4 <setvbuf>

000085b4 <setvbuf>:
    85b4:	e92d 43f7 	stmdb	sp!, {r0, r1, r2, r4, r5, r6, r7, r8, r9, lr}
    85b8:	461d      	mov	r5, r3
    85ba:	4b51      	ldr	r3, [pc, #324]	; (8700 <setvbuf+0x14c>)
    85bc:	681e      	ldr	r6, [r3, #0]
    85be:	4604      	mov	r4, r0
    85c0:	460f      	mov	r7, r1
    85c2:	4690      	mov	r8, r2
    85c4:	b126      	cbz	r6, 85d0 <setvbuf+0x1c>
    85c6:	69b3      	ldr	r3, [r6, #24]
    85c8:	b913      	cbnz	r3, 85d0 <setvbuf+0x1c>
    85ca:	4630      	mov	r0, r6
    85cc:	f000 fa62 	bl	8a94 <__sinit>
    85d0:	4b4c      	ldr	r3, [pc, #304]	; (8704 <setvbuf+0x150>)
    85d2:	429c      	cmp	r4, r3
    85d4:	d152      	bne.n	867c <setvbuf+0xc8>
    85d6:	6874      	ldr	r4, [r6, #4]
    85d8:	f1b8 0f02 	cmp.w	r8, #2
    85dc:	d006      	beq.n	85ec <setvbuf+0x38>
    85de:	f1b8 0f01 	cmp.w	r8, #1
    85e2:	f200 8089 	bhi.w	86f8 <setvbuf+0x144>
    85e6:	2d00      	cmp	r5, #0
    85e8:	f2c0 8086 	blt.w	86f8 <setvbuf+0x144>
    85ec:	4621      	mov	r1, r4
    85ee:	4630      	mov	r0, r6
    85f0:	f000 f9e6 	bl	89c0 <_fflush_r>
    85f4:	6b61      	ldr	r1, [r4, #52]	; 0x34
    85f6:	b141      	cbz	r1, 860a <setvbuf+0x56>
    85f8:	f104 0344 	add.w	r3, r4, #68	; 0x44
    85fc:	4299      	cmp	r1, r3
    85fe:	d002      	beq.n	8606 <setvbuf+0x52>
    8600:	4630      	mov	r0, r6
    8602:	f000 fb3d 	bl	8c80 <_free_r>
    8606:	2300      	movs	r3, #0
    8608:	6363      	str	r3, [r4, #52]	; 0x34
    860a:	2300      	movs	r3, #0
    860c:	61a3      	str	r3, [r4, #24]
    860e:	6063      	str	r3, [r4, #4]
    8610:	89a3      	ldrh	r3, [r4, #12]
    8612:	061b      	lsls	r3, r3, #24
    8614:	d503      	bpl.n	861e <setvbuf+0x6a>
    8616:	6921      	ldr	r1, [r4, #16]
    8618:	4630      	mov	r0, r6
    861a:	f000 fb31 	bl	8c80 <_free_r>
    861e:	89a3      	ldrh	r3, [r4, #12]
    8620:	f423 634a 	bic.w	r3, r3, #3232	; 0xca0
    8624:	f023 0303 	bic.w	r3, r3, #3
    8628:	f1b8 0f02 	cmp.w	r8, #2
    862c:	81a3      	strh	r3, [r4, #12]
    862e:	d05d      	beq.n	86ec <setvbuf+0x138>
    8630:	ab01      	add	r3, sp, #4
    8632:	466a      	mov	r2, sp
    8634:	4621      	mov	r1, r4
    8636:	4630      	mov	r0, r6
    8638:	f000 fab6 	bl	8ba8 <__swhatbuf_r>
    863c:	89a3      	ldrh	r3, [r4, #12]
    863e:	4318      	orrs	r0, r3
    8640:	81a0      	strh	r0, [r4, #12]
    8642:	bb2d      	cbnz	r5, 8690 <setvbuf+0xdc>
    8644:	9d00      	ldr	r5, [sp, #0]
    8646:	4628      	mov	r0, r5
    8648:	f000 fb12 	bl	8c70 <malloc>
    864c:	4607      	mov	r7, r0
    864e:	2800      	cmp	r0, #0
    8650:	d14e      	bne.n	86f0 <setvbuf+0x13c>
    8652:	f8dd 9000 	ldr.w	r9, [sp]
    8656:	45a9      	cmp	r9, r5
    8658:	d13c      	bne.n	86d4 <setvbuf+0x120>
    865a:	f04f 30ff 	mov.w	r0, #4294967295
    865e:	89a3      	ldrh	r3, [r4, #12]
    8660:	f043 0302 	orr.w	r3, r3, #2
    8664:	81a3      	strh	r3, [r4, #12]
    8666:	2300      	movs	r3, #0
    8668:	60a3      	str	r3, [r4, #8]
    866a:	f104 0347 	add.w	r3, r4, #71	; 0x47
    866e:	6023      	str	r3, [r4, #0]
    8670:	6123      	str	r3, [r4, #16]
    8672:	2301      	movs	r3, #1
    8674:	6163      	str	r3, [r4, #20]
    8676:	b003      	add	sp, #12
    8678:	e8bd 83f0 	ldmia.w	sp!, {r4, r5, r6, r7, r8, r9, pc}
    867c:	4b22      	ldr	r3, [pc, #136]	; (8708 <setvbuf+0x154>)
    867e:	429c      	cmp	r4, r3
    8680:	d101      	bne.n	8686 <setvbuf+0xd2>
    8682:	68b4      	ldr	r4, [r6, #8]
    8684:	e7a8      	b.n	85d8 <setvbuf+0x24>
    8686:	4b21      	ldr	r3, [pc, #132]	; (870c <setvbuf+0x158>)
    8688:	429c      	cmp	r4, r3
    868a:	bf08      	it	eq
    868c:	68f4      	ldreq	r4, [r6, #12]
    868e:	e7a3      	b.n	85d8 <setvbuf+0x24>
    8690:	2f00      	cmp	r7, #0
    8692:	d0d8      	beq.n	8646 <setvbuf+0x92>
    8694:	69b3      	ldr	r3, [r6, #24]
    8696:	b913      	cbnz	r3, 869e <setvbuf+0xea>
    8698:	4630      	mov	r0, r6
    869a:	f000 f9fb 	bl	8a94 <__sinit>
    869e:	f1b8 0f01 	cmp.w	r8, #1
    86a2:	bf08      	it	eq
    86a4:	89a3      	ldrheq	r3, [r4, #12]
    86a6:	6027      	str	r7, [r4, #0]
    86a8:	bf04      	itt	eq
    86aa:	f043 0301 	orreq.w	r3, r3, #1
    86ae:	81a3      	strheq	r3, [r4, #12]
    86b0:	89a3      	ldrh	r3, [r4, #12]
    86b2:	6127      	str	r7, [r4, #16]
    86b4:	f013 0008 	ands.w	r0, r3, #8
    86b8:	6165      	str	r5, [r4, #20]
    86ba:	d01b      	beq.n	86f4 <setvbuf+0x140>
    86bc:	f013 0001 	ands.w	r0, r3, #1
    86c0:	bf18      	it	ne
    86c2:	426d      	negne	r5, r5
    86c4:	f04f 0300 	mov.w	r3, #0
    86c8:	bf1d      	ittte	ne
    86ca:	60a3      	strne	r3, [r4, #8]
    86cc:	61a5      	strne	r5, [r4, #24]
    86ce:	4618      	movne	r0, r3
    86d0:	60a5      	streq	r5, [r4, #8]
    86d2:	e7d0      	b.n	8676 <setvbuf+0xc2>
    86d4:	4648      	mov	r0, r9
    86d6:	f000 facb 	bl	8c70 <malloc>
    86da:	4607      	mov	r7, r0
    86dc:	2800      	cmp	r0, #0
    86de:	d0bc      	beq.n	865a <setvbuf+0xa6>
    86e0:	89a3      	ldrh	r3, [r4, #12]
    86e2:	f043 0380 	orr.w	r3, r3, #128	; 0x80
    86e6:	81a3      	strh	r3, [r4, #12]
    86e8:	464d      	mov	r5, r9
    86ea:	e7d3      	b.n	8694 <setvbuf+0xe0>
    86ec:	2000      	movs	r0, #0
    86ee:	e7b6      	b.n	865e <setvbuf+0xaa>
    86f0:	46a9      	mov	r9, r5
    86f2:	e7f5      	b.n	86e0 <setvbuf+0x12c>
    86f4:	60a0      	str	r0, [r4, #8]
    86f6:	e7be      	b.n	8676 <setvbuf+0xc2>
    86f8:	f04f 30ff 	mov.w	r0, #4294967295
    86fc:	e7bb      	b.n	8676 <setvbuf+0xc2>
    86fe:	bf00      	nop
    8700:	20000010 	.word	0x20000010
    8704:	0000d470 	.word	0x0000d470
    8708:	0000d490 	.word	0x0000d490
    870c:	0000d450 	.word	0x0000d450

00008710 <strcpy>:
    8710:	4603      	mov	r3, r0
    8712:	f811 2b01 	ldrb.w	r2, [r1], #1
    8716:	f803 2b01 	strb.w	r2, [r3], #1
    871a:	2a00      	cmp	r2, #0
    871c:	d1f9      	bne.n	8712 <strcpy+0x2>
    871e:	4770      	bx	lr

00008720 <strlen>:
    8720:	4603      	mov	r3, r0
    8722:	f813 2b01 	ldrb.w	r2, [r3], #1
    8726:	2a00      	cmp	r2, #0
    8728:	d1fb      	bne.n	8722 <strlen+0x2>
    872a:	1a18      	subs	r0, r3, r0
    872c:	3801      	subs	r0, #1
    872e:	4770      	bx	lr

00008730 <__swbuf_r>:
    8730:	b5f8      	push	{r3, r4, r5, r6, r7, lr}
    8732:	460e      	mov	r6, r1
    8734:	4614      	mov	r4, r2
    8736:	4605      	mov	r5, r0
    8738:	b118      	cbz	r0, 8742 <__swbuf_r+0x12>
    873a:	6983      	ldr	r3, [r0, #24]
    873c:	b90b      	cbnz	r3, 8742 <__swbuf_r+0x12>
    873e:	f000 f9a9 	bl	8a94 <__sinit>
    8742:	4b21      	ldr	r3, [pc, #132]	; (87c8 <__swbuf_r+0x98>)
    8744:	429c      	cmp	r4, r3
    8746:	d12a      	bne.n	879e <__swbuf_r+0x6e>
    8748:	686c      	ldr	r4, [r5, #4]
    874a:	69a3      	ldr	r3, [r4, #24]
    874c:	60a3      	str	r3, [r4, #8]
    874e:	89a3      	ldrh	r3, [r4, #12]
    8750:	071a      	lsls	r2, r3, #28
    8752:	d52e      	bpl.n	87b2 <__swbuf_r+0x82>
    8754:	6923      	ldr	r3, [r4, #16]
    8756:	b363      	cbz	r3, 87b2 <__swbuf_r+0x82>
    8758:	6923      	ldr	r3, [r4, #16]
    875a:	6820      	ldr	r0, [r4, #0]
    875c:	1ac0      	subs	r0, r0, r3
    875e:	6963      	ldr	r3, [r4, #20]
    8760:	b2f6      	uxtb	r6, r6
    8762:	4298      	cmp	r0, r3
    8764:	4637      	mov	r7, r6
    8766:	db04      	blt.n	8772 <__swbuf_r+0x42>
    8768:	4621      	mov	r1, r4
    876a:	4628      	mov	r0, r5
    876c:	f000 f928 	bl	89c0 <_fflush_r>
    8770:	bb28      	cbnz	r0, 87be <__swbuf_r+0x8e>
    8772:	68a3      	ldr	r3, [r4, #8]
    8774:	3b01      	subs	r3, #1
    8776:	60a3      	str	r3, [r4, #8]
    8778:	6823      	ldr	r3, [r4, #0]
    877a:	1c5a      	adds	r2, r3, #1
    877c:	6022      	str	r2, [r4, #0]
    877e:	701e      	strb	r6, [r3, #0]
    8780:	6963      	ldr	r3, [r4, #20]
    8782:	3001      	adds	r0, #1
    8784:	4298      	cmp	r0, r3
    8786:	d004      	beq.n	8792 <__swbuf_r+0x62>
    8788:	89a3      	ldrh	r3, [r4, #12]
    878a:	07db      	lsls	r3, r3, #31
    878c:	d519      	bpl.n	87c2 <__swbuf_r+0x92>
    878e:	2e0a      	cmp	r6, #10
    8790:	d117      	bne.n	87c2 <__swbuf_r+0x92>
    8792:	4621      	mov	r1, r4
    8794:	4628      	mov	r0, r5
    8796:	f000 f913 	bl	89c0 <_fflush_r>
    879a:	b190      	cbz	r0, 87c2 <__swbuf_r+0x92>
    879c:	e00f      	b.n	87be <__swbuf_r+0x8e>
    879e:	4b0b      	ldr	r3, [pc, #44]	; (87cc <__swbuf_r+0x9c>)
    87a0:	429c      	cmp	r4, r3
    87a2:	d101      	bne.n	87a8 <__swbuf_r+0x78>
    87a4:	68ac      	ldr	r4, [r5, #8]
    87a6:	e7d0      	b.n	874a <__swbuf_r+0x1a>
    87a8:	4b09      	ldr	r3, [pc, #36]	; (87d0 <__swbuf_r+0xa0>)
    87aa:	429c      	cmp	r4, r3
    87ac:	bf08      	it	eq
    87ae:	68ec      	ldreq	r4, [r5, #12]
    87b0:	e7cb      	b.n	874a <__swbuf_r+0x1a>
    87b2:	4621      	mov	r1, r4
    87b4:	4628      	mov	r0, r5
    87b6:	f000 f80d 	bl	87d4 <__swsetup_r>
    87ba:	2800      	cmp	r0, #0
    87bc:	d0cc      	beq.n	8758 <__swbuf_r+0x28>
    87be:	f04f 37ff 	mov.w	r7, #4294967295
    87c2:	4638      	mov	r0, r7
    87c4:	bdf8      	pop	{r3, r4, r5, r6, r7, pc}
    87c6:	bf00      	nop
    87c8:	0000d470 	.word	0x0000d470
    87cc:	0000d490 	.word	0x0000d490
    87d0:	0000d450 	.word	0x0000d450

000087d4 <__swsetup_r>:
    87d4:	4b32      	ldr	r3, [pc, #200]	; (88a0 <__swsetup_r+0xcc>)
    87d6:	b570      	push	{r4, r5, r6, lr}
    87d8:	681d      	ldr	r5, [r3, #0]
    87da:	4606      	mov	r6, r0
    87dc:	460c      	mov	r4, r1
    87de:	b125      	cbz	r5, 87ea <__swsetup_r+0x16>
    87e0:	69ab      	ldr	r3, [r5, #24]
    87e2:	b913      	cbnz	r3, 87ea <__swsetup_r+0x16>
    87e4:	4628      	mov	r0, r5
    87e6:	f000 f955 	bl	8a94 <__sinit>
    87ea:	4b2e      	ldr	r3, [pc, #184]	; (88a4 <__swsetup_r+0xd0>)
    87ec:	429c      	cmp	r4, r3
    87ee:	d10f      	bne.n	8810 <__swsetup_r+0x3c>
    87f0:	686c      	ldr	r4, [r5, #4]
    87f2:	f9b4 300c 	ldrsh.w	r3, [r4, #12]
    87f6:	b29a      	uxth	r2, r3
    87f8:	0715      	lsls	r5, r2, #28
    87fa:	d42c      	bmi.n	8856 <__swsetup_r+0x82>
    87fc:	06d0      	lsls	r0, r2, #27
    87fe:	d411      	bmi.n	8824 <__swsetup_r+0x50>
    8800:	2209      	movs	r2, #9
    8802:	6032      	str	r2, [r6, #0]
    8804:	f043 0340 	orr.w	r3, r3, #64	; 0x40
    8808:	81a3      	strh	r3, [r4, #12]
    880a:	f04f 30ff 	mov.w	r0, #4294967295
    880e:	bd70      	pop	{r4, r5, r6, pc}
    8810:	4b25      	ldr	r3, [pc, #148]	; (88a8 <__swsetup_r+0xd4>)
    8812:	429c      	cmp	r4, r3
    8814:	d101      	bne.n	881a <__swsetup_r+0x46>
    8816:	68ac      	ldr	r4, [r5, #8]
    8818:	e7eb      	b.n	87f2 <__swsetup_r+0x1e>
    881a:	4b24      	ldr	r3, [pc, #144]	; (88ac <__swsetup_r+0xd8>)
    881c:	429c      	cmp	r4, r3
    881e:	bf08      	it	eq
    8820:	68ec      	ldreq	r4, [r5, #12]
    8822:	e7e6      	b.n	87f2 <__swsetup_r+0x1e>
    8824:	0751      	lsls	r1, r2, #29
    8826:	d512      	bpl.n	884e <__swsetup_r+0x7a>
    8828:	6b61      	ldr	r1, [r4, #52]	; 0x34
    882a:	b141      	cbz	r1, 883e <__swsetup_r+0x6a>
    882c:	f104 0344 	add.w	r3, r4, #68	; 0x44
    8830:	4299      	cmp	r1, r3
    8832:	d002      	beq.n	883a <__swsetup_r+0x66>
    8834:	4630      	mov	r0, r6
    8836:	f000 fa23 	bl	8c80 <_free_r>
    883a:	2300      	movs	r3, #0
    883c:	6363      	str	r3, [r4, #52]	; 0x34
    883e:	89a3      	ldrh	r3, [r4, #12]
    8840:	f023 0324 	bic.w	r3, r3, #36	; 0x24
    8844:	81a3      	strh	r3, [r4, #12]
    8846:	2300      	movs	r3, #0
    8848:	6063      	str	r3, [r4, #4]
    884a:	6923      	ldr	r3, [r4, #16]
    884c:	6023      	str	r3, [r4, #0]
    884e:	89a3      	ldrh	r3, [r4, #12]
    8850:	f043 0308 	orr.w	r3, r3, #8
    8854:	81a3      	strh	r3, [r4, #12]
    8856:	6923      	ldr	r3, [r4, #16]
    8858:	b94b      	cbnz	r3, 886e <__swsetup_r+0x9a>
    885a:	89a3      	ldrh	r3, [r4, #12]
    885c:	f403 7320 	and.w	r3, r3, #640	; 0x280
    8860:	f5b3 7f00 	cmp.w	r3, #512	; 0x200
    8864:	d003      	beq.n	886e <__swsetup_r+0x9a>
    8866:	4621      	mov	r1, r4
    8868:	4630      	mov	r0, r6
    886a:	f000 f9c1 	bl	8bf0 <__smakebuf_r>
    886e:	89a2      	ldrh	r2, [r4, #12]
    8870:	f012 0301 	ands.w	r3, r2, #1
    8874:	d00c      	beq.n	8890 <__swsetup_r+0xbc>
    8876:	2300      	movs	r3, #0
    8878:	60a3      	str	r3, [r4, #8]
    887a:	6963      	ldr	r3, [r4, #20]
    887c:	425b      	negs	r3, r3
    887e:	61a3      	str	r3, [r4, #24]
    8880:	6923      	ldr	r3, [r4, #16]
    8882:	b953      	cbnz	r3, 889a <__swsetup_r+0xc6>
    8884:	f9b4 300c 	ldrsh.w	r3, [r4, #12]
    8888:	f013 0080 	ands.w	r0, r3, #128	; 0x80
    888c:	d1ba      	bne.n	8804 <__swsetup_r+0x30>
    888e:	bd70      	pop	{r4, r5, r6, pc}
    8890:	0792      	lsls	r2, r2, #30
    8892:	bf58      	it	pl
    8894:	6963      	ldrpl	r3, [r4, #20]
    8896:	60a3      	str	r3, [r4, #8]
    8898:	e7f2      	b.n	8880 <__swsetup_r+0xac>
    889a:	2000      	movs	r0, #0
    889c:	e7f7      	b.n	888e <__swsetup_r+0xba>
    889e:	bf00      	nop
    88a0:	20000010 	.word	0x20000010
    88a4:	0000d470 	.word	0x0000d470
    88a8:	0000d490 	.word	0x0000d490
    88ac:	0000d450 	.word	0x0000d450

000088b0 <__sflush_r>:
    88b0:	898a      	ldrh	r2, [r1, #12]
    88b2:	e92d 41f0 	stmdb	sp!, {r4, r5, r6, r7, r8, lr}
    88b6:	4605      	mov	r5, r0
    88b8:	0710      	lsls	r0, r2, #28
    88ba:	460c      	mov	r4, r1
    88bc:	d45a      	bmi.n	8974 <__sflush_r+0xc4>
    88be:	684b      	ldr	r3, [r1, #4]
    88c0:	2b00      	cmp	r3, #0
    88c2:	dc05      	bgt.n	88d0 <__sflush_r+0x20>
    88c4:	6c0b      	ldr	r3, [r1, #64]	; 0x40
    88c6:	2b00      	cmp	r3, #0
    88c8:	dc02      	bgt.n	88d0 <__sflush_r+0x20>
    88ca:	2000      	movs	r0, #0
    88cc:	e8bd 81f0 	ldmia.w	sp!, {r4, r5, r6, r7, r8, pc}
    88d0:	6ae6      	ldr	r6, [r4, #44]	; 0x2c
    88d2:	2e00      	cmp	r6, #0
    88d4:	d0f9      	beq.n	88ca <__sflush_r+0x1a>
    88d6:	2300      	movs	r3, #0
    88d8:	f412 5280 	ands.w	r2, r2, #4096	; 0x1000
    88dc:	682f      	ldr	r7, [r5, #0]
    88de:	602b      	str	r3, [r5, #0]
    88e0:	d033      	beq.n	894a <__sflush_r+0x9a>
    88e2:	6d60      	ldr	r0, [r4, #84]	; 0x54
    88e4:	89a3      	ldrh	r3, [r4, #12]
    88e6:	075a      	lsls	r2, r3, #29
    88e8:	d505      	bpl.n	88f6 <__sflush_r+0x46>
    88ea:	6863      	ldr	r3, [r4, #4]
    88ec:	1ac0      	subs	r0, r0, r3
    88ee:	6b63      	ldr	r3, [r4, #52]	; 0x34
    88f0:	b10b      	cbz	r3, 88f6 <__sflush_r+0x46>
    88f2:	6c23      	ldr	r3, [r4, #64]	; 0x40
    88f4:	1ac0      	subs	r0, r0, r3
    88f6:	2300      	movs	r3, #0
    88f8:	4602      	mov	r2, r0
    88fa:	6ae6      	ldr	r6, [r4, #44]	; 0x2c
    88fc:	6a21      	ldr	r1, [r4, #32]
    88fe:	4628      	mov	r0, r5
    8900:	47b0      	blx	r6
    8902:	1c43      	adds	r3, r0, #1
    8904:	89a3      	ldrh	r3, [r4, #12]
    8906:	d106      	bne.n	8916 <__sflush_r+0x66>
    8908:	6829      	ldr	r1, [r5, #0]
    890a:	291d      	cmp	r1, #29
    890c:	d84b      	bhi.n	89a6 <__sflush_r+0xf6>
    890e:	4a2b      	ldr	r2, [pc, #172]	; (89bc <__sflush_r+0x10c>)
    8910:	40ca      	lsrs	r2, r1
    8912:	07d6      	lsls	r6, r2, #31
    8914:	d547      	bpl.n	89a6 <__sflush_r+0xf6>
    8916:	2200      	movs	r2, #0
    8918:	6062      	str	r2, [r4, #4]
    891a:	04d9      	lsls	r1, r3, #19
    891c:	6922      	ldr	r2, [r4, #16]
    891e:	6022      	str	r2, [r4, #0]
    8920:	d504      	bpl.n	892c <__sflush_r+0x7c>
    8922:	1c42      	adds	r2, r0, #1
    8924:	d101      	bne.n	892a <__sflush_r+0x7a>
    8926:	682b      	ldr	r3, [r5, #0]
    8928:	b903      	cbnz	r3, 892c <__sflush_r+0x7c>
    892a:	6560      	str	r0, [r4, #84]	; 0x54
    892c:	6b61      	ldr	r1, [r4, #52]	; 0x34
    892e:	602f      	str	r7, [r5, #0]
    8930:	2900      	cmp	r1, #0
    8932:	d0ca      	beq.n	88ca <__sflush_r+0x1a>
    8934:	f104 0344 	add.w	r3, r4, #68	; 0x44
    8938:	4299      	cmp	r1, r3
    893a:	d002      	beq.n	8942 <__sflush_r+0x92>
    893c:	4628      	mov	r0, r5
    893e:	f000 f99f 	bl	8c80 <_free_r>
    8942:	2000      	movs	r0, #0
    8944:	6360      	str	r0, [r4, #52]	; 0x34
    8946:	e8bd 81f0 	ldmia.w	sp!, {r4, r5, r6, r7, r8, pc}
    894a:	6a21      	ldr	r1, [r4, #32]
    894c:	2301      	movs	r3, #1
    894e:	4628      	mov	r0, r5
    8950:	47b0      	blx	r6
    8952:	1c41      	adds	r1, r0, #1
    8954:	d1c6      	bne.n	88e4 <__sflush_r+0x34>
    8956:	682b      	ldr	r3, [r5, #0]
    8958:	2b00      	cmp	r3, #0
    895a:	d0c3      	beq.n	88e4 <__sflush_r+0x34>
    895c:	2b1d      	cmp	r3, #29
    895e:	d001      	beq.n	8964 <__sflush_r+0xb4>
    8960:	2b16      	cmp	r3, #22
    8962:	d101      	bne.n	8968 <__sflush_r+0xb8>
    8964:	602f      	str	r7, [r5, #0]
    8966:	e7b0      	b.n	88ca <__sflush_r+0x1a>
    8968:	89a3      	ldrh	r3, [r4, #12]
    896a:	f043 0340 	orr.w	r3, r3, #64	; 0x40
    896e:	81a3      	strh	r3, [r4, #12]
    8970:	e8bd 81f0 	ldmia.w	sp!, {r4, r5, r6, r7, r8, pc}
    8974:	690f      	ldr	r7, [r1, #16]
    8976:	2f00      	cmp	r7, #0
    8978:	d0a7      	beq.n	88ca <__sflush_r+0x1a>
    897a:	0793      	lsls	r3, r2, #30
    897c:	680e      	ldr	r6, [r1, #0]
    897e:	bf08      	it	eq
    8980:	694b      	ldreq	r3, [r1, #20]
    8982:	600f      	str	r7, [r1, #0]
    8984:	bf18      	it	ne
    8986:	2300      	movne	r3, #0
    8988:	eba6 0807 	sub.w	r8, r6, r7
    898c:	608b      	str	r3, [r1, #8]
    898e:	f1b8 0f00 	cmp.w	r8, #0
    8992:	dd9a      	ble.n	88ca <__sflush_r+0x1a>
    8994:	4643      	mov	r3, r8
    8996:	463a      	mov	r2, r7
    8998:	6a21      	ldr	r1, [r4, #32]
    899a:	6aa6      	ldr	r6, [r4, #40]	; 0x28
    899c:	4628      	mov	r0, r5
    899e:	47b0      	blx	r6
    89a0:	2800      	cmp	r0, #0
    89a2:	dc07      	bgt.n	89b4 <__sflush_r+0x104>
    89a4:	89a3      	ldrh	r3, [r4, #12]
    89a6:	f043 0340 	orr.w	r3, r3, #64	; 0x40
    89aa:	81a3      	strh	r3, [r4, #12]
    89ac:	f04f 30ff 	mov.w	r0, #4294967295
    89b0:	e8bd 81f0 	ldmia.w	sp!, {r4, r5, r6, r7, r8, pc}
    89b4:	4407      	add	r7, r0
    89b6:	eba8 0800 	sub.w	r8, r8, r0
    89ba:	e7e8      	b.n	898e <__sflush_r+0xde>
    89bc:	20400001 	.word	0x20400001

000089c0 <_fflush_r>:
    89c0:	b538      	push	{r3, r4, r5, lr}
    89c2:	690b      	ldr	r3, [r1, #16]
    89c4:	4605      	mov	r5, r0
    89c6:	460c      	mov	r4, r1
    89c8:	b1db      	cbz	r3, 8a02 <_fflush_r+0x42>
    89ca:	b118      	cbz	r0, 89d4 <_fflush_r+0x14>
    89cc:	6983      	ldr	r3, [r0, #24]
    89ce:	b90b      	cbnz	r3, 89d4 <_fflush_r+0x14>
    89d0:	f000 f860 	bl	8a94 <__sinit>
    89d4:	4b0c      	ldr	r3, [pc, #48]	; (8a08 <_fflush_r+0x48>)
    89d6:	429c      	cmp	r4, r3
    89d8:	d109      	bne.n	89ee <_fflush_r+0x2e>
    89da:	686c      	ldr	r4, [r5, #4]
    89dc:	f9b4 300c 	ldrsh.w	r3, [r4, #12]
    89e0:	b17b      	cbz	r3, 8a02 <_fflush_r+0x42>
    89e2:	4621      	mov	r1, r4
    89e4:	4628      	mov	r0, r5
    89e6:	e8bd 4038 	ldmia.w	sp!, {r3, r4, r5, lr}
    89ea:	f7ff bf61 	b.w	88b0 <__sflush_r>
    89ee:	4b07      	ldr	r3, [pc, #28]	; (8a0c <_fflush_r+0x4c>)
    89f0:	429c      	cmp	r4, r3
    89f2:	d101      	bne.n	89f8 <_fflush_r+0x38>
    89f4:	68ac      	ldr	r4, [r5, #8]
    89f6:	e7f1      	b.n	89dc <_fflush_r+0x1c>
    89f8:	4b05      	ldr	r3, [pc, #20]	; (8a10 <_fflush_r+0x50>)
    89fa:	429c      	cmp	r4, r3
    89fc:	bf08      	it	eq
    89fe:	68ec      	ldreq	r4, [r5, #12]
    8a00:	e7ec      	b.n	89dc <_fflush_r+0x1c>
    8a02:	2000      	movs	r0, #0
    8a04:	bd38      	pop	{r3, r4, r5, pc}
    8a06:	bf00      	nop
    8a08:	0000d470 	.word	0x0000d470
    8a0c:	0000d490 	.word	0x0000d490
    8a10:	0000d450 	.word	0x0000d450

00008a14 <_cleanup_r>:
    8a14:	4901      	ldr	r1, [pc, #4]	; (8a1c <_cleanup_r+0x8>)
    8a16:	f000 b8a9 	b.w	8b6c <_fwalk_reent>
    8a1a:	bf00      	nop
    8a1c:	000089c1 	.word	0x000089c1

00008a20 <std.isra.0>:
    8a20:	2300      	movs	r3, #0
    8a22:	b510      	push	{r4, lr}
    8a24:	4604      	mov	r4, r0
    8a26:	6003      	str	r3, [r0, #0]
    8a28:	6043      	str	r3, [r0, #4]
    8a2a:	6083      	str	r3, [r0, #8]
    8a2c:	8181      	strh	r1, [r0, #12]
    8a2e:	6643      	str	r3, [r0, #100]	; 0x64
    8a30:	81c2      	strh	r2, [r0, #14]
    8a32:	6103      	str	r3, [r0, #16]
    8a34:	6143      	str	r3, [r0, #20]
    8a36:	6183      	str	r3, [r0, #24]
    8a38:	4619      	mov	r1, r3
    8a3a:	2208      	movs	r2, #8
    8a3c:	305c      	adds	r0, #92	; 0x5c
    8a3e:	f7ff fd19 	bl	8474 <memset>
    8a42:	4b05      	ldr	r3, [pc, #20]	; (8a58 <std.isra.0+0x38>)
    8a44:	6263      	str	r3, [r4, #36]	; 0x24
    8a46:	4b05      	ldr	r3, [pc, #20]	; (8a5c <std.isra.0+0x3c>)
    8a48:	62a3      	str	r3, [r4, #40]	; 0x28
    8a4a:	4b05      	ldr	r3, [pc, #20]	; (8a60 <std.isra.0+0x40>)
    8a4c:	62e3      	str	r3, [r4, #44]	; 0x2c
    8a4e:	4b05      	ldr	r3, [pc, #20]	; (8a64 <std.isra.0+0x44>)
    8a50:	6224      	str	r4, [r4, #32]
    8a52:	6323      	str	r3, [r4, #48]	; 0x30
    8a54:	bd10      	pop	{r4, pc}
    8a56:	bf00      	nop
    8a58:	0000940d 	.word	0x0000940d
    8a5c:	0000942f 	.word	0x0000942f
    8a60:	00009467 	.word	0x00009467
    8a64:	0000948b 	.word	0x0000948b

00008a68 <__sfmoreglue>:
    8a68:	b570      	push	{r4, r5, r6, lr}
    8a6a:	1e4a      	subs	r2, r1, #1
    8a6c:	2568      	movs	r5, #104	; 0x68
    8a6e:	4355      	muls	r5, r2
    8a70:	460e      	mov	r6, r1
    8a72:	f105 0174 	add.w	r1, r5, #116	; 0x74
    8a76:	f000 f951 	bl	8d1c <_malloc_r>
    8a7a:	4604      	mov	r4, r0
    8a7c:	b140      	cbz	r0, 8a90 <__sfmoreglue+0x28>
    8a7e:	2100      	movs	r1, #0
    8a80:	e880 0042 	stmia.w	r0, {r1, r6}
    8a84:	300c      	adds	r0, #12
    8a86:	60a0      	str	r0, [r4, #8]
    8a88:	f105 0268 	add.w	r2, r5, #104	; 0x68
    8a8c:	f7ff fcf2 	bl	8474 <memset>
    8a90:	4620      	mov	r0, r4
    8a92:	bd70      	pop	{r4, r5, r6, pc}

00008a94 <__sinit>:
    8a94:	6983      	ldr	r3, [r0, #24]
    8a96:	b510      	push	{r4, lr}
    8a98:	4604      	mov	r4, r0
    8a9a:	bb33      	cbnz	r3, 8aea <__sinit+0x56>
    8a9c:	6483      	str	r3, [r0, #72]	; 0x48
    8a9e:	64c3      	str	r3, [r0, #76]	; 0x4c
    8aa0:	6503      	str	r3, [r0, #80]	; 0x50
    8aa2:	4b12      	ldr	r3, [pc, #72]	; (8aec <__sinit+0x58>)
    8aa4:	4a12      	ldr	r2, [pc, #72]	; (8af0 <__sinit+0x5c>)
    8aa6:	681b      	ldr	r3, [r3, #0]
    8aa8:	6282      	str	r2, [r0, #40]	; 0x28
    8aaa:	4298      	cmp	r0, r3
    8aac:	bf04      	itt	eq
    8aae:	2301      	moveq	r3, #1
    8ab0:	6183      	streq	r3, [r0, #24]
    8ab2:	f000 f81f 	bl	8af4 <__sfp>
    8ab6:	6060      	str	r0, [r4, #4]
    8ab8:	4620      	mov	r0, r4
    8aba:	f000 f81b 	bl	8af4 <__sfp>
    8abe:	60a0      	str	r0, [r4, #8]
    8ac0:	4620      	mov	r0, r4
    8ac2:	f000 f817 	bl	8af4 <__sfp>
    8ac6:	2200      	movs	r2, #0
    8ac8:	60e0      	str	r0, [r4, #12]
    8aca:	2104      	movs	r1, #4
    8acc:	6860      	ldr	r0, [r4, #4]
    8ace:	f7ff ffa7 	bl	8a20 <std.isra.0>
    8ad2:	2201      	movs	r2, #1
    8ad4:	2109      	movs	r1, #9
    8ad6:	68a0      	ldr	r0, [r4, #8]
    8ad8:	f7ff ffa2 	bl	8a20 <std.isra.0>
    8adc:	2202      	movs	r2, #2
    8ade:	2112      	movs	r1, #18
    8ae0:	68e0      	ldr	r0, [r4, #12]
    8ae2:	f7ff ff9d 	bl	8a20 <std.isra.0>
    8ae6:	2301      	movs	r3, #1
    8ae8:	61a3      	str	r3, [r4, #24]
    8aea:	bd10      	pop	{r4, pc}
    8aec:	0000d44c 	.word	0x0000d44c
    8af0:	00008a15 	.word	0x00008a15

00008af4 <__sfp>:
    8af4:	b5f8      	push	{r3, r4, r5, r6, r7, lr}
    8af6:	4b1c      	ldr	r3, [pc, #112]	; (8b68 <__sfp+0x74>)
    8af8:	681e      	ldr	r6, [r3, #0]
    8afa:	69b3      	ldr	r3, [r6, #24]
    8afc:	4607      	mov	r7, r0
    8afe:	b913      	cbnz	r3, 8b06 <__sfp+0x12>
    8b00:	4630      	mov	r0, r6
    8b02:	f7ff ffc7 	bl	8a94 <__sinit>
    8b06:	3648      	adds	r6, #72	; 0x48
    8b08:	68b4      	ldr	r4, [r6, #8]
    8b0a:	6873      	ldr	r3, [r6, #4]
    8b0c:	3b01      	subs	r3, #1
    8b0e:	d503      	bpl.n	8b18 <__sfp+0x24>
    8b10:	6833      	ldr	r3, [r6, #0]
    8b12:	b133      	cbz	r3, 8b22 <__sfp+0x2e>
    8b14:	6836      	ldr	r6, [r6, #0]
    8b16:	e7f7      	b.n	8b08 <__sfp+0x14>
    8b18:	f9b4 500c 	ldrsh.w	r5, [r4, #12]
    8b1c:	b16d      	cbz	r5, 8b3a <__sfp+0x46>
    8b1e:	3468      	adds	r4, #104	; 0x68
    8b20:	e7f4      	b.n	8b0c <__sfp+0x18>
    8b22:	2104      	movs	r1, #4
    8b24:	4638      	mov	r0, r7
    8b26:	f7ff ff9f 	bl	8a68 <__sfmoreglue>
    8b2a:	6030      	str	r0, [r6, #0]
    8b2c:	2800      	cmp	r0, #0
    8b2e:	d1f1      	bne.n	8b14 <__sfp+0x20>
    8b30:	230c      	movs	r3, #12
    8b32:	603b      	str	r3, [r7, #0]
    8b34:	4604      	mov	r4, r0
    8b36:	4620      	mov	r0, r4
    8b38:	bdf8      	pop	{r3, r4, r5, r6, r7, pc}
    8b3a:	f64f 73ff 	movw	r3, #65535	; 0xffff
    8b3e:	81e3      	strh	r3, [r4, #14]
    8b40:	2301      	movs	r3, #1
    8b42:	81a3      	strh	r3, [r4, #12]
    8b44:	6665      	str	r5, [r4, #100]	; 0x64
    8b46:	6025      	str	r5, [r4, #0]
    8b48:	60a5      	str	r5, [r4, #8]
    8b4a:	6065      	str	r5, [r4, #4]
    8b4c:	6125      	str	r5, [r4, #16]
    8b4e:	6165      	str	r5, [r4, #20]
    8b50:	61a5      	str	r5, [r4, #24]
    8b52:	2208      	movs	r2, #8
    8b54:	4629      	mov	r1, r5
    8b56:	f104 005c 	add.w	r0, r4, #92	; 0x5c
    8b5a:	f7ff fc8b 	bl	8474 <memset>
    8b5e:	6365      	str	r5, [r4, #52]	; 0x34
    8b60:	63a5      	str	r5, [r4, #56]	; 0x38
    8b62:	64a5      	str	r5, [r4, #72]	; 0x48
    8b64:	64e5      	str	r5, [r4, #76]	; 0x4c
    8b66:	e7e6      	b.n	8b36 <__sfp+0x42>
    8b68:	0000d44c 	.word	0x0000d44c

00008b6c <_fwalk_reent>:
    8b6c:	e92d 43f8 	stmdb	sp!, {r3, r4, r5, r6, r7, r8, r9, lr}
    8b70:	4680      	mov	r8, r0
    8b72:	4689      	mov	r9, r1
    8b74:	f100 0448 	add.w	r4, r0, #72	; 0x48
    8b78:	2600      	movs	r6, #0
    8b7a:	b914      	cbnz	r4, 8b82 <_fwalk_reent+0x16>
    8b7c:	4630      	mov	r0, r6
    8b7e:	e8bd 83f8 	ldmia.w	sp!, {r3, r4, r5, r6, r7, r8, r9, pc}
    8b82:	68a5      	ldr	r5, [r4, #8]
    8b84:	6867      	ldr	r7, [r4, #4]
    8b86:	3f01      	subs	r7, #1
    8b88:	d501      	bpl.n	8b8e <_fwalk_reent+0x22>
    8b8a:	6824      	ldr	r4, [r4, #0]
    8b8c:	e7f5      	b.n	8b7a <_fwalk_reent+0xe>
    8b8e:	89ab      	ldrh	r3, [r5, #12]
    8b90:	2b01      	cmp	r3, #1
    8b92:	d907      	bls.n	8ba4 <_fwalk_reent+0x38>
    8b94:	f9b5 300e 	ldrsh.w	r3, [r5, #14]
    8b98:	3301      	adds	r3, #1
    8b9a:	d003      	beq.n	8ba4 <_fwalk_reent+0x38>
    8b9c:	4629      	mov	r1, r5
    8b9e:	4640      	mov	r0, r8
    8ba0:	47c8      	blx	r9
    8ba2:	4306      	orrs	r6, r0
    8ba4:	3568      	adds	r5, #104	; 0x68
    8ba6:	e7ee      	b.n	8b86 <_fwalk_reent+0x1a>

00008ba8 <__swhatbuf_r>:
    8ba8:	b570      	push	{r4, r5, r6, lr}
    8baa:	460e      	mov	r6, r1
    8bac:	f9b1 100e 	ldrsh.w	r1, [r1, #14]
    8bb0:	2900      	cmp	r1, #0
    8bb2:	b090      	sub	sp, #64	; 0x40
    8bb4:	4614      	mov	r4, r2
    8bb6:	461d      	mov	r5, r3
    8bb8:	da07      	bge.n	8bca <__swhatbuf_r+0x22>
    8bba:	2300      	movs	r3, #0
    8bbc:	602b      	str	r3, [r5, #0]
    8bbe:	89b3      	ldrh	r3, [r6, #12]
    8bc0:	061a      	lsls	r2, r3, #24
    8bc2:	d410      	bmi.n	8be6 <__swhatbuf_r+0x3e>
    8bc4:	f44f 6380 	mov.w	r3, #1024	; 0x400
    8bc8:	e00e      	b.n	8be8 <__swhatbuf_r+0x40>
    8bca:	aa01      	add	r2, sp, #4
    8bcc:	f000 fc84 	bl	94d8 <_fstat_r>
    8bd0:	2800      	cmp	r0, #0
    8bd2:	dbf2      	blt.n	8bba <__swhatbuf_r+0x12>
    8bd4:	9a02      	ldr	r2, [sp, #8]
    8bd6:	f402 4270 	and.w	r2, r2, #61440	; 0xf000
    8bda:	f5a2 5300 	sub.w	r3, r2, #8192	; 0x2000
    8bde:	425a      	negs	r2, r3
    8be0:	415a      	adcs	r2, r3
    8be2:	602a      	str	r2, [r5, #0]
    8be4:	e7ee      	b.n	8bc4 <__swhatbuf_r+0x1c>
    8be6:	2340      	movs	r3, #64	; 0x40
    8be8:	2000      	movs	r0, #0
    8bea:	6023      	str	r3, [r4, #0]
    8bec:	b010      	add	sp, #64	; 0x40
    8bee:	bd70      	pop	{r4, r5, r6, pc}

00008bf0 <__smakebuf_r>:
    8bf0:	898b      	ldrh	r3, [r1, #12]
    8bf2:	b573      	push	{r0, r1, r4, r5, r6, lr}
    8bf4:	079d      	lsls	r5, r3, #30
    8bf6:	4606      	mov	r6, r0
    8bf8:	460c      	mov	r4, r1
    8bfa:	d507      	bpl.n	8c0c <__smakebuf_r+0x1c>
    8bfc:	f104 0347 	add.w	r3, r4, #71	; 0x47
    8c00:	6023      	str	r3, [r4, #0]
    8c02:	6123      	str	r3, [r4, #16]
    8c04:	2301      	movs	r3, #1
    8c06:	6163      	str	r3, [r4, #20]
    8c08:	b002      	add	sp, #8
    8c0a:	bd70      	pop	{r4, r5, r6, pc}
    8c0c:	ab01      	add	r3, sp, #4
    8c0e:	466a      	mov	r2, sp
    8c10:	f7ff ffca 	bl	8ba8 <__swhatbuf_r>
    8c14:	9900      	ldr	r1, [sp, #0]
    8c16:	4605      	mov	r5, r0
    8c18:	4630      	mov	r0, r6
    8c1a:	f000 f87f 	bl	8d1c <_malloc_r>
    8c1e:	b948      	cbnz	r0, 8c34 <__smakebuf_r+0x44>
    8c20:	f9b4 300c 	ldrsh.w	r3, [r4, #12]
    8c24:	059a      	lsls	r2, r3, #22
    8c26:	d4ef      	bmi.n	8c08 <__smakebuf_r+0x18>
    8c28:	f023 0303 	bic.w	r3, r3, #3
    8c2c:	f043 0302 	orr.w	r3, r3, #2
    8c30:	81a3      	strh	r3, [r4, #12]
    8c32:	e7e3      	b.n	8bfc <__smakebuf_r+0xc>
    8c34:	4b0d      	ldr	r3, [pc, #52]	; (8c6c <__smakebuf_r+0x7c>)
    8c36:	62b3      	str	r3, [r6, #40]	; 0x28
    8c38:	89a3      	ldrh	r3, [r4, #12]
    8c3a:	6020      	str	r0, [r4, #0]
    8c3c:	f043 0380 	orr.w	r3, r3, #128	; 0x80
    8c40:	81a3      	strh	r3, [r4, #12]
    8c42:	9b00      	ldr	r3, [sp, #0]
    8c44:	6163      	str	r3, [r4, #20]
    8c46:	9b01      	ldr	r3, [sp, #4]
    8c48:	6120      	str	r0, [r4, #16]
    8c4a:	b15b      	cbz	r3, 8c64 <__smakebuf_r+0x74>
    8c4c:	f9b4 100e 	ldrsh.w	r1, [r4, #14]
    8c50:	4630      	mov	r0, r6
    8c52:	f000 fc53 	bl	94fc <_isatty_r>
    8c56:	b128      	cbz	r0, 8c64 <__smakebuf_r+0x74>
    8c58:	89a3      	ldrh	r3, [r4, #12]
    8c5a:	f023 0303 	bic.w	r3, r3, #3
    8c5e:	f043 0301 	orr.w	r3, r3, #1
    8c62:	81a3      	strh	r3, [r4, #12]
    8c64:	89a3      	ldrh	r3, [r4, #12]
    8c66:	431d      	orrs	r5, r3
    8c68:	81a5      	strh	r5, [r4, #12]
    8c6a:	e7cd      	b.n	8c08 <__smakebuf_r+0x18>
    8c6c:	00008a15 	.word	0x00008a15

00008c70 <malloc>:
    8c70:	4b02      	ldr	r3, [pc, #8]	; (8c7c <malloc+0xc>)
    8c72:	4601      	mov	r1, r0
    8c74:	6818      	ldr	r0, [r3, #0]
    8c76:	f000 b851 	b.w	8d1c <_malloc_r>
    8c7a:	bf00      	nop
    8c7c:	20000010 	.word	0x20000010

00008c80 <_free_r>:
    8c80:	b538      	push	{r3, r4, r5, lr}
    8c82:	4605      	mov	r5, r0
    8c84:	2900      	cmp	r1, #0
    8c86:	d045      	beq.n	8d14 <_free_r+0x94>
    8c88:	f851 3c04 	ldr.w	r3, [r1, #-4]
    8c8c:	1f0c      	subs	r4, r1, #4
    8c8e:	2b00      	cmp	r3, #0
    8c90:	bfb8      	it	lt
    8c92:	18e4      	addlt	r4, r4, r3
    8c94:	f000 fca4 	bl	95e0 <__malloc_lock>
    8c98:	4a1f      	ldr	r2, [pc, #124]	; (8d18 <_free_r+0x98>)
    8c9a:	6813      	ldr	r3, [r2, #0]
    8c9c:	4610      	mov	r0, r2
    8c9e:	b933      	cbnz	r3, 8cae <_free_r+0x2e>
    8ca0:	6063      	str	r3, [r4, #4]
    8ca2:	6014      	str	r4, [r2, #0]
    8ca4:	4628      	mov	r0, r5
    8ca6:	e8bd 4038 	ldmia.w	sp!, {r3, r4, r5, lr}
    8caa:	f000 bc9a 	b.w	95e2 <__malloc_unlock>
    8cae:	42a3      	cmp	r3, r4
    8cb0:	d90c      	bls.n	8ccc <_free_r+0x4c>
    8cb2:	6821      	ldr	r1, [r4, #0]
    8cb4:	1862      	adds	r2, r4, r1
    8cb6:	4293      	cmp	r3, r2
    8cb8:	bf04      	itt	eq
    8cba:	681a      	ldreq	r2, [r3, #0]
    8cbc:	685b      	ldreq	r3, [r3, #4]
    8cbe:	6063      	str	r3, [r4, #4]
    8cc0:	bf04      	itt	eq
    8cc2:	1852      	addeq	r2, r2, r1
    8cc4:	6022      	streq	r2, [r4, #0]
    8cc6:	6004      	str	r4, [r0, #0]
    8cc8:	e7ec      	b.n	8ca4 <_free_r+0x24>
    8cca:	4613      	mov	r3, r2
    8ccc:	685a      	ldr	r2, [r3, #4]
    8cce:	b10a      	cbz	r2, 8cd4 <_free_r+0x54>
    8cd0:	42a2      	cmp	r2, r4
    8cd2:	d9fa      	bls.n	8cca <_free_r+0x4a>
    8cd4:	6819      	ldr	r1, [r3, #0]
    8cd6:	1858      	adds	r0, r3, r1
    8cd8:	42a0      	cmp	r0, r4
    8cda:	d10b      	bne.n	8cf4 <_free_r+0x74>
    8cdc:	6820      	ldr	r0, [r4, #0]
    8cde:	4401      	add	r1, r0
    8ce0:	1858      	adds	r0, r3, r1
    8ce2:	4282      	cmp	r2, r0
    8ce4:	6019      	str	r1, [r3, #0]
    8ce6:	d1dd      	bne.n	8ca4 <_free_r+0x24>
    8ce8:	6810      	ldr	r0, [r2, #0]
    8cea:	6852      	ldr	r2, [r2, #4]
    8cec:	605a      	str	r2, [r3, #4]
    8cee:	4401      	add	r1, r0
    8cf0:	6019      	str	r1, [r3, #0]
    8cf2:	e7d7      	b.n	8ca4 <_free_r+0x24>
    8cf4:	d902      	bls.n	8cfc <_free_r+0x7c>
    8cf6:	230c      	movs	r3, #12
    8cf8:	602b      	str	r3, [r5, #0]
    8cfa:	e7d3      	b.n	8ca4 <_free_r+0x24>
    8cfc:	6820      	ldr	r0, [r4, #0]
    8cfe:	1821      	adds	r1, r4, r0
    8d00:	428a      	cmp	r2, r1
    8d02:	bf04      	itt	eq
    8d04:	6811      	ldreq	r1, [r2, #0]
    8d06:	6852      	ldreq	r2, [r2, #4]
    8d08:	6062      	str	r2, [r4, #4]
    8d0a:	bf04      	itt	eq
    8d0c:	1809      	addeq	r1, r1, r0
    8d0e:	6021      	streq	r1, [r4, #0]
    8d10:	605c      	str	r4, [r3, #4]
    8d12:	e7c7      	b.n	8ca4 <_free_r+0x24>
    8d14:	bd38      	pop	{r3, r4, r5, pc}
    8d16:	bf00      	nop
    8d18:	20007fd8 	.word	0x20007fd8

00008d1c <_malloc_r>:
    8d1c:	b570      	push	{r4, r5, r6, lr}
    8d1e:	1ccd      	adds	r5, r1, #3
    8d20:	f025 0503 	bic.w	r5, r5, #3
    8d24:	3508      	adds	r5, #8
    8d26:	2d0c      	cmp	r5, #12
    8d28:	bf38      	it	cc
    8d2a:	250c      	movcc	r5, #12
    8d2c:	2d00      	cmp	r5, #0
    8d2e:	4606      	mov	r6, r0
    8d30:	db01      	blt.n	8d36 <_malloc_r+0x1a>
    8d32:	42a9      	cmp	r1, r5
    8d34:	d903      	bls.n	8d3e <_malloc_r+0x22>
    8d36:	230c      	movs	r3, #12
    8d38:	6033      	str	r3, [r6, #0]
    8d3a:	2000      	movs	r0, #0
    8d3c:	bd70      	pop	{r4, r5, r6, pc}
    8d3e:	f000 fc4f 	bl	95e0 <__malloc_lock>
    8d42:	4a23      	ldr	r2, [pc, #140]	; (8dd0 <_malloc_r+0xb4>)
    8d44:	6814      	ldr	r4, [r2, #0]
    8d46:	4621      	mov	r1, r4
    8d48:	b991      	cbnz	r1, 8d70 <_malloc_r+0x54>
    8d4a:	4c22      	ldr	r4, [pc, #136]	; (8dd4 <_malloc_r+0xb8>)
    8d4c:	6823      	ldr	r3, [r4, #0]
    8d4e:	b91b      	cbnz	r3, 8d58 <_malloc_r+0x3c>
    8d50:	4630      	mov	r0, r6
    8d52:	f000 fb4b 	bl	93ec <_sbrk_r>
    8d56:	6020      	str	r0, [r4, #0]
    8d58:	4629      	mov	r1, r5
    8d5a:	4630      	mov	r0, r6
    8d5c:	f000 fb46 	bl	93ec <_sbrk_r>
    8d60:	1c43      	adds	r3, r0, #1
    8d62:	d126      	bne.n	8db2 <_malloc_r+0x96>
    8d64:	230c      	movs	r3, #12
    8d66:	6033      	str	r3, [r6, #0]
    8d68:	4630      	mov	r0, r6
    8d6a:	f000 fc3a 	bl	95e2 <__malloc_unlock>
    8d6e:	e7e4      	b.n	8d3a <_malloc_r+0x1e>
    8d70:	680b      	ldr	r3, [r1, #0]
    8d72:	1b5b      	subs	r3, r3, r5
    8d74:	d41a      	bmi.n	8dac <_malloc_r+0x90>
    8d76:	2b0b      	cmp	r3, #11
    8d78:	d90f      	bls.n	8d9a <_malloc_r+0x7e>
    8d7a:	600b      	str	r3, [r1, #0]
    8d7c:	50cd      	str	r5, [r1, r3]
    8d7e:	18cc      	adds	r4, r1, r3
    8d80:	4630      	mov	r0, r6
    8d82:	f000 fc2e 	bl	95e2 <__malloc_unlock>
    8d86:	f104 000b 	add.w	r0, r4, #11
    8d8a:	1d23      	adds	r3, r4, #4
    8d8c:	f020 0007 	bic.w	r0, r0, #7
    8d90:	1ac3      	subs	r3, r0, r3
    8d92:	d01b      	beq.n	8dcc <_malloc_r+0xb0>
    8d94:	425a      	negs	r2, r3
    8d96:	50e2      	str	r2, [r4, r3]
    8d98:	bd70      	pop	{r4, r5, r6, pc}
    8d9a:	428c      	cmp	r4, r1
    8d9c:	bf0d      	iteet	eq
    8d9e:	6863      	ldreq	r3, [r4, #4]
    8da0:	684b      	ldrne	r3, [r1, #4]
    8da2:	6063      	strne	r3, [r4, #4]
    8da4:	6013      	streq	r3, [r2, #0]
    8da6:	bf18      	it	ne
    8da8:	460c      	movne	r4, r1
    8daa:	e7e9      	b.n	8d80 <_malloc_r+0x64>
    8dac:	460c      	mov	r4, r1
    8dae:	6849      	ldr	r1, [r1, #4]
    8db0:	e7ca      	b.n	8d48 <_malloc_r+0x2c>
    8db2:	1cc4      	adds	r4, r0, #3
    8db4:	f024 0403 	bic.w	r4, r4, #3
    8db8:	42a0      	cmp	r0, r4
    8dba:	d005      	beq.n	8dc8 <_malloc_r+0xac>
    8dbc:	1a21      	subs	r1, r4, r0
    8dbe:	4630      	mov	r0, r6
    8dc0:	f000 fb14 	bl	93ec <_sbrk_r>
    8dc4:	3001      	adds	r0, #1
    8dc6:	d0cd      	beq.n	8d64 <_malloc_r+0x48>
    8dc8:	6025      	str	r5, [r4, #0]
    8dca:	e7d9      	b.n	8d80 <_malloc_r+0x64>
    8dcc:	bd70      	pop	{r4, r5, r6, pc}
    8dce:	bf00      	nop
    8dd0:	20007fd8 	.word	0x20007fd8
    8dd4:	20007fdc 	.word	0x20007fdc

00008dd8 <__sfputc_r>:
    8dd8:	6893      	ldr	r3, [r2, #8]
    8dda:	3b01      	subs	r3, #1
    8ddc:	2b00      	cmp	r3, #0
    8dde:	b410      	push	{r4}
    8de0:	6093      	str	r3, [r2, #8]
    8de2:	da08      	bge.n	8df6 <__sfputc_r+0x1e>
    8de4:	6994      	ldr	r4, [r2, #24]
    8de6:	42a3      	cmp	r3, r4
    8de8:	db02      	blt.n	8df0 <__sfputc_r+0x18>
    8dea:	b2cb      	uxtb	r3, r1
    8dec:	2b0a      	cmp	r3, #10
    8dee:	d102      	bne.n	8df6 <__sfputc_r+0x1e>
    8df0:	bc10      	pop	{r4}
    8df2:	f7ff bc9d 	b.w	8730 <__swbuf_r>
    8df6:	6813      	ldr	r3, [r2, #0]
    8df8:	1c58      	adds	r0, r3, #1
    8dfa:	6010      	str	r0, [r2, #0]
    8dfc:	7019      	strb	r1, [r3, #0]
    8dfe:	b2c8      	uxtb	r0, r1
    8e00:	bc10      	pop	{r4}
    8e02:	4770      	bx	lr

00008e04 <__sfputs_r>:
    8e04:	b5f8      	push	{r3, r4, r5, r6, r7, lr}
    8e06:	4606      	mov	r6, r0
    8e08:	460f      	mov	r7, r1
    8e0a:	4614      	mov	r4, r2
    8e0c:	18d5      	adds	r5, r2, r3
    8e0e:	42ac      	cmp	r4, r5
    8e10:	d101      	bne.n	8e16 <__sfputs_r+0x12>
    8e12:	2000      	movs	r0, #0
    8e14:	e007      	b.n	8e26 <__sfputs_r+0x22>
    8e16:	463a      	mov	r2, r7
    8e18:	f814 1b01 	ldrb.w	r1, [r4], #1
    8e1c:	4630      	mov	r0, r6
    8e1e:	f7ff ffdb 	bl	8dd8 <__sfputc_r>
    8e22:	1c43      	adds	r3, r0, #1
    8e24:	d1f3      	bne.n	8e0e <__sfputs_r+0xa>
    8e26:	bdf8      	pop	{r3, r4, r5, r6, r7, pc}

00008e28 <_vfiprintf_r>:
    8e28:	e92d 4ff0 	stmdb	sp!, {r4, r5, r6, r7, r8, r9, sl, fp, lr}
    8e2c:	b09d      	sub	sp, #116	; 0x74
    8e2e:	460c      	mov	r4, r1
    8e30:	4617      	mov	r7, r2
    8e32:	9303      	str	r3, [sp, #12]
    8e34:	4606      	mov	r6, r0
    8e36:	b118      	cbz	r0, 8e40 <_vfiprintf_r+0x18>
    8e38:	6983      	ldr	r3, [r0, #24]
    8e3a:	b90b      	cbnz	r3, 8e40 <_vfiprintf_r+0x18>
    8e3c:	f7ff fe2a 	bl	8a94 <__sinit>
    8e40:	4b7c      	ldr	r3, [pc, #496]	; (9034 <_vfiprintf_r+0x20c>)
    8e42:	429c      	cmp	r4, r3
    8e44:	d157      	bne.n	8ef6 <_vfiprintf_r+0xce>
    8e46:	6874      	ldr	r4, [r6, #4]
    8e48:	89a3      	ldrh	r3, [r4, #12]
    8e4a:	0718      	lsls	r0, r3, #28
    8e4c:	d55d      	bpl.n	8f0a <_vfiprintf_r+0xe2>
    8e4e:	6923      	ldr	r3, [r4, #16]
    8e50:	2b00      	cmp	r3, #0
    8e52:	d05a      	beq.n	8f0a <_vfiprintf_r+0xe2>
    8e54:	2300      	movs	r3, #0
    8e56:	9309      	str	r3, [sp, #36]	; 0x24
    8e58:	2320      	movs	r3, #32
    8e5a:	f88d 3029 	strb.w	r3, [sp, #41]	; 0x29
    8e5e:	2330      	movs	r3, #48	; 0x30
    8e60:	f88d 302a 	strb.w	r3, [sp, #42]	; 0x2a
    8e64:	f04f 0b01 	mov.w	fp, #1
    8e68:	46b8      	mov	r8, r7
    8e6a:	4645      	mov	r5, r8
    8e6c:	f815 3b01 	ldrb.w	r3, [r5], #1
    8e70:	2b00      	cmp	r3, #0
    8e72:	d155      	bne.n	8f20 <_vfiprintf_r+0xf8>
    8e74:	ebb8 0a07 	subs.w	sl, r8, r7
    8e78:	d00b      	beq.n	8e92 <_vfiprintf_r+0x6a>
    8e7a:	4653      	mov	r3, sl
    8e7c:	463a      	mov	r2, r7
    8e7e:	4621      	mov	r1, r4
    8e80:	4630      	mov	r0, r6
    8e82:	f7ff ffbf 	bl	8e04 <__sfputs_r>
    8e86:	3001      	adds	r0, #1
    8e88:	f000 80c4 	beq.w	9014 <_vfiprintf_r+0x1ec>
    8e8c:	9b09      	ldr	r3, [sp, #36]	; 0x24
    8e8e:	4453      	add	r3, sl
    8e90:	9309      	str	r3, [sp, #36]	; 0x24
    8e92:	f898 3000 	ldrb.w	r3, [r8]
    8e96:	2b00      	cmp	r3, #0
    8e98:	f000 80bc 	beq.w	9014 <_vfiprintf_r+0x1ec>
    8e9c:	2300      	movs	r3, #0
    8e9e:	f04f 32ff 	mov.w	r2, #4294967295
    8ea2:	9304      	str	r3, [sp, #16]
    8ea4:	9307      	str	r3, [sp, #28]
    8ea6:	9205      	str	r2, [sp, #20]
    8ea8:	9306      	str	r3, [sp, #24]
    8eaa:	f88d 3053 	strb.w	r3, [sp, #83]	; 0x53
    8eae:	931a      	str	r3, [sp, #104]	; 0x68
    8eb0:	2205      	movs	r2, #5
    8eb2:	7829      	ldrb	r1, [r5, #0]
    8eb4:	4860      	ldr	r0, [pc, #384]	; (9038 <_vfiprintf_r+0x210>)
    8eb6:	f000 fb43 	bl	9540 <memchr>
    8eba:	f105 0801 	add.w	r8, r5, #1
    8ebe:	9b04      	ldr	r3, [sp, #16]
    8ec0:	2800      	cmp	r0, #0
    8ec2:	d131      	bne.n	8f28 <_vfiprintf_r+0x100>
    8ec4:	06d9      	lsls	r1, r3, #27
    8ec6:	bf44      	itt	mi
    8ec8:	2220      	movmi	r2, #32
    8eca:	f88d 2053 	strbmi.w	r2, [sp, #83]	; 0x53
    8ece:	071a      	lsls	r2, r3, #28
    8ed0:	bf44      	itt	mi
    8ed2:	222b      	movmi	r2, #43	; 0x2b
    8ed4:	f88d 2053 	strbmi.w	r2, [sp, #83]	; 0x53
    8ed8:	782a      	ldrb	r2, [r5, #0]
    8eda:	2a2a      	cmp	r2, #42	; 0x2a
    8edc:	d02c      	beq.n	8f38 <_vfiprintf_r+0x110>
    8ede:	9a07      	ldr	r2, [sp, #28]
    8ee0:	2100      	movs	r1, #0
    8ee2:	200a      	movs	r0, #10
    8ee4:	46a8      	mov	r8, r5
    8ee6:	3501      	adds	r5, #1
    8ee8:	f898 3000 	ldrb.w	r3, [r8]
    8eec:	3b30      	subs	r3, #48	; 0x30
    8eee:	2b09      	cmp	r3, #9
    8ef0:	d96d      	bls.n	8fce <_vfiprintf_r+0x1a6>
    8ef2:	b371      	cbz	r1, 8f52 <_vfiprintf_r+0x12a>
    8ef4:	e026      	b.n	8f44 <_vfiprintf_r+0x11c>
    8ef6:	4b51      	ldr	r3, [pc, #324]	; (903c <_vfiprintf_r+0x214>)
    8ef8:	429c      	cmp	r4, r3
    8efa:	d101      	bne.n	8f00 <_vfiprintf_r+0xd8>
    8efc:	68b4      	ldr	r4, [r6, #8]
    8efe:	e7a3      	b.n	8e48 <_vfiprintf_r+0x20>
    8f00:	4b4f      	ldr	r3, [pc, #316]	; (9040 <_vfiprintf_r+0x218>)
    8f02:	429c      	cmp	r4, r3
    8f04:	bf08      	it	eq
    8f06:	68f4      	ldreq	r4, [r6, #12]
    8f08:	e79e      	b.n	8e48 <_vfiprintf_r+0x20>
    8f0a:	4621      	mov	r1, r4
    8f0c:	4630      	mov	r0, r6
    8f0e:	f7ff fc61 	bl	87d4 <__swsetup_r>
    8f12:	2800      	cmp	r0, #0
    8f14:	d09e      	beq.n	8e54 <_vfiprintf_r+0x2c>
    8f16:	f04f 30ff 	mov.w	r0, #4294967295
    8f1a:	b01d      	add	sp, #116	; 0x74
    8f1c:	e8bd 8ff0 	ldmia.w	sp!, {r4, r5, r6, r7, r8, r9, sl, fp, pc}
    8f20:	2b25      	cmp	r3, #37	; 0x25
    8f22:	d0a7      	beq.n	8e74 <_vfiprintf_r+0x4c>
    8f24:	46a8      	mov	r8, r5
    8f26:	e7a0      	b.n	8e6a <_vfiprintf_r+0x42>
    8f28:	4a43      	ldr	r2, [pc, #268]	; (9038 <_vfiprintf_r+0x210>)
    8f2a:	1a80      	subs	r0, r0, r2
    8f2c:	fa0b f000 	lsl.w	r0, fp, r0
    8f30:	4318      	orrs	r0, r3
    8f32:	9004      	str	r0, [sp, #16]
    8f34:	4645      	mov	r5, r8
    8f36:	e7bb      	b.n	8eb0 <_vfiprintf_r+0x88>
    8f38:	9a03      	ldr	r2, [sp, #12]
    8f3a:	1d11      	adds	r1, r2, #4
    8f3c:	6812      	ldr	r2, [r2, #0]
    8f3e:	9103      	str	r1, [sp, #12]
    8f40:	2a00      	cmp	r2, #0
    8f42:	db01      	blt.n	8f48 <_vfiprintf_r+0x120>
    8f44:	9207      	str	r2, [sp, #28]
    8f46:	e004      	b.n	8f52 <_vfiprintf_r+0x12a>
    8f48:	4252      	negs	r2, r2
    8f4a:	f043 0302 	orr.w	r3, r3, #2
    8f4e:	9207      	str	r2, [sp, #28]
    8f50:	9304      	str	r3, [sp, #16]
    8f52:	f898 3000 	ldrb.w	r3, [r8]
    8f56:	2b2e      	cmp	r3, #46	; 0x2e
    8f58:	d110      	bne.n	8f7c <_vfiprintf_r+0x154>
    8f5a:	f898 3001 	ldrb.w	r3, [r8, #1]
    8f5e:	2b2a      	cmp	r3, #42	; 0x2a
    8f60:	f108 0101 	add.w	r1, r8, #1
    8f64:	d137      	bne.n	8fd6 <_vfiprintf_r+0x1ae>
    8f66:	9b03      	ldr	r3, [sp, #12]
    8f68:	1d1a      	adds	r2, r3, #4
    8f6a:	681b      	ldr	r3, [r3, #0]
    8f6c:	9203      	str	r2, [sp, #12]
    8f6e:	2b00      	cmp	r3, #0
    8f70:	bfb8      	it	lt
    8f72:	f04f 33ff 	movlt.w	r3, #4294967295
    8f76:	f108 0802 	add.w	r8, r8, #2
    8f7a:	9305      	str	r3, [sp, #20]
    8f7c:	4d31      	ldr	r5, [pc, #196]	; (9044 <_vfiprintf_r+0x21c>)
    8f7e:	f898 1000 	ldrb.w	r1, [r8]
    8f82:	2203      	movs	r2, #3
    8f84:	4628      	mov	r0, r5
    8f86:	f000 fadb 	bl	9540 <memchr>
    8f8a:	b140      	cbz	r0, 8f9e <_vfiprintf_r+0x176>
    8f8c:	2340      	movs	r3, #64	; 0x40
    8f8e:	1b40      	subs	r0, r0, r5
    8f90:	fa03 f000 	lsl.w	r0, r3, r0
    8f94:	9b04      	ldr	r3, [sp, #16]
    8f96:	4303      	orrs	r3, r0
    8f98:	9304      	str	r3, [sp, #16]
    8f9a:	f108 0801 	add.w	r8, r8, #1
    8f9e:	f898 1000 	ldrb.w	r1, [r8]
    8fa2:	4829      	ldr	r0, [pc, #164]	; (9048 <_vfiprintf_r+0x220>)
    8fa4:	f88d 1028 	strb.w	r1, [sp, #40]	; 0x28
    8fa8:	2206      	movs	r2, #6
    8faa:	f108 0701 	add.w	r7, r8, #1
    8fae:	f000 fac7 	bl	9540 <memchr>
    8fb2:	2800      	cmp	r0, #0
    8fb4:	d034      	beq.n	9020 <_vfiprintf_r+0x1f8>
    8fb6:	4b25      	ldr	r3, [pc, #148]	; (904c <_vfiprintf_r+0x224>)
    8fb8:	bb03      	cbnz	r3, 8ffc <_vfiprintf_r+0x1d4>
    8fba:	9b03      	ldr	r3, [sp, #12]
    8fbc:	3307      	adds	r3, #7
    8fbe:	f023 0307 	bic.w	r3, r3, #7
    8fc2:	3308      	adds	r3, #8
    8fc4:	9303      	str	r3, [sp, #12]
    8fc6:	9b09      	ldr	r3, [sp, #36]	; 0x24
    8fc8:	444b      	add	r3, r9
    8fca:	9309      	str	r3, [sp, #36]	; 0x24
    8fcc:	e74c      	b.n	8e68 <_vfiprintf_r+0x40>
    8fce:	fb00 3202 	mla	r2, r0, r2, r3
    8fd2:	2101      	movs	r1, #1
    8fd4:	e786      	b.n	8ee4 <_vfiprintf_r+0xbc>
    8fd6:	2300      	movs	r3, #0
    8fd8:	9305      	str	r3, [sp, #20]
    8fda:	4618      	mov	r0, r3
    8fdc:	250a      	movs	r5, #10
    8fde:	4688      	mov	r8, r1
    8fe0:	3101      	adds	r1, #1
    8fe2:	f898 2000 	ldrb.w	r2, [r8]
    8fe6:	3a30      	subs	r2, #48	; 0x30
    8fe8:	2a09      	cmp	r2, #9
    8fea:	d903      	bls.n	8ff4 <_vfiprintf_r+0x1cc>
    8fec:	2b00      	cmp	r3, #0
    8fee:	d0c5      	beq.n	8f7c <_vfiprintf_r+0x154>
    8ff0:	9005      	str	r0, [sp, #20]
    8ff2:	e7c3      	b.n	8f7c <_vfiprintf_r+0x154>
    8ff4:	fb05 2000 	mla	r0, r5, r0, r2
    8ff8:	2301      	movs	r3, #1
    8ffa:	e7f0      	b.n	8fde <_vfiprintf_r+0x1b6>
    8ffc:	ab03      	add	r3, sp, #12
    8ffe:	9300      	str	r3, [sp, #0]
    9000:	4622      	mov	r2, r4
    9002:	4b13      	ldr	r3, [pc, #76]	; (9050 <_vfiprintf_r+0x228>)
    9004:	a904      	add	r1, sp, #16
    9006:	4630      	mov	r0, r6
    9008:	f3af 8000 	nop.w
    900c:	f1b0 3fff 	cmp.w	r0, #4294967295
    9010:	4681      	mov	r9, r0
    9012:	d1d8      	bne.n	8fc6 <_vfiprintf_r+0x19e>
    9014:	89a3      	ldrh	r3, [r4, #12]
    9016:	065b      	lsls	r3, r3, #25
    9018:	f53f af7d 	bmi.w	8f16 <_vfiprintf_r+0xee>
    901c:	9809      	ldr	r0, [sp, #36]	; 0x24
    901e:	e77c      	b.n	8f1a <_vfiprintf_r+0xf2>
    9020:	ab03      	add	r3, sp, #12
    9022:	9300      	str	r3, [sp, #0]
    9024:	4622      	mov	r2, r4
    9026:	4b0a      	ldr	r3, [pc, #40]	; (9050 <_vfiprintf_r+0x228>)
    9028:	a904      	add	r1, sp, #16
    902a:	4630      	mov	r0, r6
    902c:	f000 f888 	bl	9140 <_printf_i>
    9030:	e7ec      	b.n	900c <_vfiprintf_r+0x1e4>
    9032:	bf00      	nop
    9034:	0000d470 	.word	0x0000d470
    9038:	0000d4b0 	.word	0x0000d4b0
    903c:	0000d490 	.word	0x0000d490
    9040:	0000d450 	.word	0x0000d450
    9044:	0000d4b6 	.word	0x0000d4b6
    9048:	0000d4ba 	.word	0x0000d4ba
    904c:	00000000 	.word	0x00000000
    9050:	00008e05 	.word	0x00008e05

00009054 <_printf_common>:
    9054:	e92d 47f0 	stmdb	sp!, {r4, r5, r6, r7, r8, r9, sl, lr}
    9058:	4691      	mov	r9, r2
    905a:	461f      	mov	r7, r3
    905c:	688a      	ldr	r2, [r1, #8]
    905e:	690b      	ldr	r3, [r1, #16]
    9060:	f8dd 8020 	ldr.w	r8, [sp, #32]
    9064:	4293      	cmp	r3, r2
    9066:	bfb8      	it	lt
    9068:	4613      	movlt	r3, r2
    906a:	f8c9 3000 	str.w	r3, [r9]
    906e:	f891 2043 	ldrb.w	r2, [r1, #67]	; 0x43
    9072:	4606      	mov	r6, r0
    9074:	460c      	mov	r4, r1
    9076:	b112      	cbz	r2, 907e <_printf_common+0x2a>
    9078:	3301      	adds	r3, #1
    907a:	f8c9 3000 	str.w	r3, [r9]
    907e:	6823      	ldr	r3, [r4, #0]
    9080:	0699      	lsls	r1, r3, #26
    9082:	bf42      	ittt	mi
    9084:	f8d9 3000 	ldrmi.w	r3, [r9]
    9088:	3302      	addmi	r3, #2
    908a:	f8c9 3000 	strmi.w	r3, [r9]
    908e:	6825      	ldr	r5, [r4, #0]
    9090:	f015 0506 	ands.w	r5, r5, #6
    9094:	d107      	bne.n	90a6 <_printf_common+0x52>
    9096:	f104 0a19 	add.w	sl, r4, #25
    909a:	68e3      	ldr	r3, [r4, #12]
    909c:	f8d9 2000 	ldr.w	r2, [r9]
    90a0:	1a9b      	subs	r3, r3, r2
    90a2:	429d      	cmp	r5, r3
    90a4:	db29      	blt.n	90fa <_printf_common+0xa6>
    90a6:	f894 3043 	ldrb.w	r3, [r4, #67]	; 0x43
    90aa:	6822      	ldr	r2, [r4, #0]
    90ac:	3300      	adds	r3, #0
    90ae:	bf18      	it	ne
    90b0:	2301      	movne	r3, #1
    90b2:	0692      	lsls	r2, r2, #26
    90b4:	d42e      	bmi.n	9114 <_printf_common+0xc0>
    90b6:	f104 0243 	add.w	r2, r4, #67	; 0x43
    90ba:	4639      	mov	r1, r7
    90bc:	4630      	mov	r0, r6
    90be:	47c0      	blx	r8
    90c0:	3001      	adds	r0, #1
    90c2:	d021      	beq.n	9108 <_printf_common+0xb4>
    90c4:	6823      	ldr	r3, [r4, #0]
    90c6:	68e5      	ldr	r5, [r4, #12]
    90c8:	f8d9 2000 	ldr.w	r2, [r9]
    90cc:	f003 0306 	and.w	r3, r3, #6
    90d0:	2b04      	cmp	r3, #4
    90d2:	bf08      	it	eq
    90d4:	1aad      	subeq	r5, r5, r2
    90d6:	68a3      	ldr	r3, [r4, #8]
    90d8:	6922      	ldr	r2, [r4, #16]
    90da:	bf0c      	ite	eq
    90dc:	ea25 75e5 	biceq.w	r5, r5, r5, asr #31
    90e0:	2500      	movne	r5, #0
    90e2:	4293      	cmp	r3, r2
    90e4:	bfc4      	itt	gt
    90e6:	1a9b      	subgt	r3, r3, r2
    90e8:	18ed      	addgt	r5, r5, r3
    90ea:	f04f 0900 	mov.w	r9, #0
    90ee:	341a      	adds	r4, #26
    90f0:	454d      	cmp	r5, r9
    90f2:	d11b      	bne.n	912c <_printf_common+0xd8>
    90f4:	2000      	movs	r0, #0
    90f6:	e8bd 87f0 	ldmia.w	sp!, {r4, r5, r6, r7, r8, r9, sl, pc}
    90fa:	2301      	movs	r3, #1
    90fc:	4652      	mov	r2, sl
    90fe:	4639      	mov	r1, r7
    9100:	4630      	mov	r0, r6
    9102:	47c0      	blx	r8
    9104:	3001      	adds	r0, #1
    9106:	d103      	bne.n	9110 <_printf_common+0xbc>
    9108:	f04f 30ff 	mov.w	r0, #4294967295
    910c:	e8bd 87f0 	ldmia.w	sp!, {r4, r5, r6, r7, r8, r9, sl, pc}
    9110:	3501      	adds	r5, #1
    9112:	e7c2      	b.n	909a <_printf_common+0x46>
    9114:	18e1      	adds	r1, r4, r3
    9116:	1c5a      	adds	r2, r3, #1
    9118:	2030      	movs	r0, #48	; 0x30
    911a:	f881 0043 	strb.w	r0, [r1, #67]	; 0x43
    911e:	4422      	add	r2, r4
    9120:	f894 1045 	ldrb.w	r1, [r4, #69]	; 0x45
    9124:	f882 1043 	strb.w	r1, [r2, #67]	; 0x43
    9128:	3302      	adds	r3, #2
    912a:	e7c4      	b.n	90b6 <_printf_common+0x62>
    912c:	2301      	movs	r3, #1
    912e:	4622      	mov	r2, r4
    9130:	4639      	mov	r1, r7
    9132:	4630      	mov	r0, r6
    9134:	47c0      	blx	r8
    9136:	3001      	adds	r0, #1
    9138:	d0e6      	beq.n	9108 <_printf_common+0xb4>
    913a:	f109 0901 	add.w	r9, r9, #1
    913e:	e7d7      	b.n	90f0 <_printf_common+0x9c>

00009140 <_printf_i>:
    9140:	e92d 43f0 	stmdb	sp!, {r4, r5, r6, r7, r8, r9, lr}
    9144:	4617      	mov	r7, r2
    9146:	7e0a      	ldrb	r2, [r1, #24]
    9148:	b085      	sub	sp, #20
    914a:	2a6e      	cmp	r2, #110	; 0x6e
    914c:	4698      	mov	r8, r3
    914e:	4606      	mov	r6, r0
    9150:	460c      	mov	r4, r1
    9152:	9b0c      	ldr	r3, [sp, #48]	; 0x30
    9154:	f101 0e43 	add.w	lr, r1, #67	; 0x43
    9158:	f000 80bc 	beq.w	92d4 <_printf_i+0x194>
    915c:	d81a      	bhi.n	9194 <_printf_i+0x54>
    915e:	2a63      	cmp	r2, #99	; 0x63
    9160:	d02e      	beq.n	91c0 <_printf_i+0x80>
    9162:	d80a      	bhi.n	917a <_printf_i+0x3a>
    9164:	2a00      	cmp	r2, #0
    9166:	f000 80c8 	beq.w	92fa <_printf_i+0x1ba>
    916a:	2a58      	cmp	r2, #88	; 0x58
    916c:	f000 808a 	beq.w	9284 <_printf_i+0x144>
    9170:	f104 0542 	add.w	r5, r4, #66	; 0x42
    9174:	f884 2042 	strb.w	r2, [r4, #66]	; 0x42
    9178:	e02a      	b.n	91d0 <_printf_i+0x90>
    917a:	2a64      	cmp	r2, #100	; 0x64
    917c:	d001      	beq.n	9182 <_printf_i+0x42>
    917e:	2a69      	cmp	r2, #105	; 0x69
    9180:	d1f6      	bne.n	9170 <_printf_i+0x30>
    9182:	6821      	ldr	r1, [r4, #0]
    9184:	681a      	ldr	r2, [r3, #0]
    9186:	f011 0f80 	tst.w	r1, #128	; 0x80
    918a:	d023      	beq.n	91d4 <_printf_i+0x94>
    918c:	1d11      	adds	r1, r2, #4
    918e:	6019      	str	r1, [r3, #0]
    9190:	6813      	ldr	r3, [r2, #0]
    9192:	e027      	b.n	91e4 <_printf_i+0xa4>
    9194:	2a73      	cmp	r2, #115	; 0x73
    9196:	f000 80b4 	beq.w	9302 <_printf_i+0x1c2>
    919a:	d808      	bhi.n	91ae <_printf_i+0x6e>
    919c:	2a6f      	cmp	r2, #111	; 0x6f
    919e:	d02a      	beq.n	91f6 <_printf_i+0xb6>
    91a0:	2a70      	cmp	r2, #112	; 0x70
    91a2:	d1e5      	bne.n	9170 <_printf_i+0x30>
    91a4:	680a      	ldr	r2, [r1, #0]
    91a6:	f042 0220 	orr.w	r2, r2, #32
    91aa:	600a      	str	r2, [r1, #0]
    91ac:	e003      	b.n	91b6 <_printf_i+0x76>
    91ae:	2a75      	cmp	r2, #117	; 0x75
    91b0:	d021      	beq.n	91f6 <_printf_i+0xb6>
    91b2:	2a78      	cmp	r2, #120	; 0x78
    91b4:	d1dc      	bne.n	9170 <_printf_i+0x30>
    91b6:	2278      	movs	r2, #120	; 0x78
    91b8:	f884 2045 	strb.w	r2, [r4, #69]	; 0x45
    91bc:	496e      	ldr	r1, [pc, #440]	; (9378 <_printf_i+0x238>)
    91be:	e064      	b.n	928a <_printf_i+0x14a>
    91c0:	681a      	ldr	r2, [r3, #0]
    91c2:	f101 0542 	add.w	r5, r1, #66	; 0x42
    91c6:	1d11      	adds	r1, r2, #4
    91c8:	6019      	str	r1, [r3, #0]
    91ca:	6813      	ldr	r3, [r2, #0]
    91cc:	f884 3042 	strb.w	r3, [r4, #66]	; 0x42
    91d0:	2301      	movs	r3, #1
    91d2:	e0a3      	b.n	931c <_printf_i+0x1dc>
    91d4:	f011 0f40 	tst.w	r1, #64	; 0x40
    91d8:	f102 0104 	add.w	r1, r2, #4
    91dc:	6019      	str	r1, [r3, #0]
    91de:	d0d7      	beq.n	9190 <_printf_i+0x50>
    91e0:	f9b2 3000 	ldrsh.w	r3, [r2]
    91e4:	2b00      	cmp	r3, #0
    91e6:	da03      	bge.n	91f0 <_printf_i+0xb0>
    91e8:	222d      	movs	r2, #45	; 0x2d
    91ea:	425b      	negs	r3, r3
    91ec:	f884 2043 	strb.w	r2, [r4, #67]	; 0x43
    91f0:	4962      	ldr	r1, [pc, #392]	; (937c <_printf_i+0x23c>)
    91f2:	220a      	movs	r2, #10
    91f4:	e017      	b.n	9226 <_printf_i+0xe6>
    91f6:	6820      	ldr	r0, [r4, #0]
    91f8:	6819      	ldr	r1, [r3, #0]
    91fa:	f010 0f80 	tst.w	r0, #128	; 0x80
    91fe:	d003      	beq.n	9208 <_printf_i+0xc8>
    9200:	1d08      	adds	r0, r1, #4
    9202:	6018      	str	r0, [r3, #0]
    9204:	680b      	ldr	r3, [r1, #0]
    9206:	e006      	b.n	9216 <_printf_i+0xd6>
    9208:	f010 0f40 	tst.w	r0, #64	; 0x40
    920c:	f101 0004 	add.w	r0, r1, #4
    9210:	6018      	str	r0, [r3, #0]
    9212:	d0f7      	beq.n	9204 <_printf_i+0xc4>
    9214:	880b      	ldrh	r3, [r1, #0]
    9216:	4959      	ldr	r1, [pc, #356]	; (937c <_printf_i+0x23c>)
    9218:	2a6f      	cmp	r2, #111	; 0x6f
    921a:	bf14      	ite	ne
    921c:	220a      	movne	r2, #10
    921e:	2208      	moveq	r2, #8
    9220:	2000      	movs	r0, #0
    9222:	f884 0043 	strb.w	r0, [r4, #67]	; 0x43
    9226:	6865      	ldr	r5, [r4, #4]
    9228:	60a5      	str	r5, [r4, #8]
    922a:	2d00      	cmp	r5, #0
    922c:	f2c0 809c 	blt.w	9368 <_printf_i+0x228>
    9230:	6820      	ldr	r0, [r4, #0]
    9232:	f020 0004 	bic.w	r0, r0, #4
    9236:	6020      	str	r0, [r4, #0]
    9238:	2b00      	cmp	r3, #0
    923a:	d13f      	bne.n	92bc <_printf_i+0x17c>
    923c:	2d00      	cmp	r5, #0
    923e:	f040 8095 	bne.w	936c <_printf_i+0x22c>
    9242:	4675      	mov	r5, lr
    9244:	2a08      	cmp	r2, #8
    9246:	d10b      	bne.n	9260 <_printf_i+0x120>
    9248:	6823      	ldr	r3, [r4, #0]
    924a:	07da      	lsls	r2, r3, #31
    924c:	d508      	bpl.n	9260 <_printf_i+0x120>
    924e:	6923      	ldr	r3, [r4, #16]
    9250:	6862      	ldr	r2, [r4, #4]
    9252:	429a      	cmp	r2, r3
    9254:	bfde      	ittt	le
    9256:	2330      	movle	r3, #48	; 0x30
    9258:	f805 3c01 	strble.w	r3, [r5, #-1]
    925c:	f105 35ff 	addle.w	r5, r5, #4294967295
    9260:	ebae 0305 	sub.w	r3, lr, r5
    9264:	6123      	str	r3, [r4, #16]
    9266:	f8cd 8000 	str.w	r8, [sp]
    926a:	463b      	mov	r3, r7
    926c:	aa03      	add	r2, sp, #12
    926e:	4621      	mov	r1, r4
    9270:	4630      	mov	r0, r6
    9272:	f7ff feef 	bl	9054 <_printf_common>
    9276:	3001      	adds	r0, #1
    9278:	d155      	bne.n	9326 <_printf_i+0x1e6>
    927a:	f04f 30ff 	mov.w	r0, #4294967295
    927e:	b005      	add	sp, #20
    9280:	e8bd 83f0 	ldmia.w	sp!, {r4, r5, r6, r7, r8, r9, pc}
    9284:	f881 2045 	strb.w	r2, [r1, #69]	; 0x45
    9288:	493c      	ldr	r1, [pc, #240]	; (937c <_printf_i+0x23c>)
    928a:	6822      	ldr	r2, [r4, #0]
    928c:	6818      	ldr	r0, [r3, #0]
    928e:	f012 0f80 	tst.w	r2, #128	; 0x80
    9292:	f100 0504 	add.w	r5, r0, #4
    9296:	601d      	str	r5, [r3, #0]
    9298:	d001      	beq.n	929e <_printf_i+0x15e>
    929a:	6803      	ldr	r3, [r0, #0]
    929c:	e002      	b.n	92a4 <_printf_i+0x164>
    929e:	0655      	lsls	r5, r2, #25
    92a0:	d5fb      	bpl.n	929a <_printf_i+0x15a>
    92a2:	8803      	ldrh	r3, [r0, #0]
    92a4:	07d0      	lsls	r0, r2, #31
    92a6:	bf44      	itt	mi
    92a8:	f042 0220 	orrmi.w	r2, r2, #32
    92ac:	6022      	strmi	r2, [r4, #0]
    92ae:	b91b      	cbnz	r3, 92b8 <_printf_i+0x178>
    92b0:	6822      	ldr	r2, [r4, #0]
    92b2:	f022 0220 	bic.w	r2, r2, #32
    92b6:	6022      	str	r2, [r4, #0]
    92b8:	2210      	movs	r2, #16
    92ba:	e7b1      	b.n	9220 <_printf_i+0xe0>
    92bc:	4675      	mov	r5, lr
    92be:	fbb3 f0f2 	udiv	r0, r3, r2
    92c2:	fb02 3310 	mls	r3, r2, r0, r3
    92c6:	5ccb      	ldrb	r3, [r1, r3]
    92c8:	f805 3d01 	strb.w	r3, [r5, #-1]!
    92cc:	4603      	mov	r3, r0
    92ce:	2800      	cmp	r0, #0
    92d0:	d1f5      	bne.n	92be <_printf_i+0x17e>
    92d2:	e7b7      	b.n	9244 <_printf_i+0x104>
    92d4:	6808      	ldr	r0, [r1, #0]
    92d6:	681a      	ldr	r2, [r3, #0]
    92d8:	6949      	ldr	r1, [r1, #20]
    92da:	f010 0f80 	tst.w	r0, #128	; 0x80
    92de:	d004      	beq.n	92ea <_printf_i+0x1aa>
    92e0:	1d10      	adds	r0, r2, #4
    92e2:	6018      	str	r0, [r3, #0]
    92e4:	6813      	ldr	r3, [r2, #0]
    92e6:	6019      	str	r1, [r3, #0]
    92e8:	e007      	b.n	92fa <_printf_i+0x1ba>
    92ea:	f010 0f40 	tst.w	r0, #64	; 0x40
    92ee:	f102 0004 	add.w	r0, r2, #4
    92f2:	6018      	str	r0, [r3, #0]
    92f4:	6813      	ldr	r3, [r2, #0]
    92f6:	d0f6      	beq.n	92e6 <_printf_i+0x1a6>
    92f8:	8019      	strh	r1, [r3, #0]
    92fa:	2300      	movs	r3, #0
    92fc:	6123      	str	r3, [r4, #16]
    92fe:	4675      	mov	r5, lr
    9300:	e7b1      	b.n	9266 <_printf_i+0x126>
    9302:	681a      	ldr	r2, [r3, #0]
    9304:	1d11      	adds	r1, r2, #4
    9306:	6019      	str	r1, [r3, #0]
    9308:	6815      	ldr	r5, [r2, #0]
    930a:	6862      	ldr	r2, [r4, #4]
    930c:	2100      	movs	r1, #0
    930e:	4628      	mov	r0, r5
    9310:	f000 f916 	bl	9540 <memchr>
    9314:	b108      	cbz	r0, 931a <_printf_i+0x1da>
    9316:	1b40      	subs	r0, r0, r5
    9318:	6060      	str	r0, [r4, #4]
    931a:	6863      	ldr	r3, [r4, #4]
    931c:	6123      	str	r3, [r4, #16]
    931e:	2300      	movs	r3, #0
    9320:	f884 3043 	strb.w	r3, [r4, #67]	; 0x43
    9324:	e79f      	b.n	9266 <_printf_i+0x126>
    9326:	6923      	ldr	r3, [r4, #16]
    9328:	462a      	mov	r2, r5
    932a:	4639      	mov	r1, r7
    932c:	4630      	mov	r0, r6
    932e:	47c0      	blx	r8
    9330:	3001      	adds	r0, #1
    9332:	d0a2      	beq.n	927a <_printf_i+0x13a>
    9334:	6823      	ldr	r3, [r4, #0]
    9336:	079b      	lsls	r3, r3, #30
    9338:	d507      	bpl.n	934a <_printf_i+0x20a>
    933a:	2500      	movs	r5, #0
    933c:	f104 0919 	add.w	r9, r4, #25
    9340:	68e3      	ldr	r3, [r4, #12]
    9342:	9a03      	ldr	r2, [sp, #12]
    9344:	1a9b      	subs	r3, r3, r2
    9346:	429d      	cmp	r5, r3
    9348:	db05      	blt.n	9356 <_printf_i+0x216>
    934a:	68e0      	ldr	r0, [r4, #12]
    934c:	9b03      	ldr	r3, [sp, #12]
    934e:	4298      	cmp	r0, r3
    9350:	bfb8      	it	lt
    9352:	4618      	movlt	r0, r3
    9354:	e793      	b.n	927e <_printf_i+0x13e>
    9356:	2301      	movs	r3, #1
    9358:	464a      	mov	r2, r9
    935a:	4639      	mov	r1, r7
    935c:	4630      	mov	r0, r6
    935e:	47c0      	blx	r8
    9360:	3001      	adds	r0, #1
    9362:	d08a      	beq.n	927a <_printf_i+0x13a>
    9364:	3501      	adds	r5, #1
    9366:	e7eb      	b.n	9340 <_printf_i+0x200>
    9368:	2b00      	cmp	r3, #0
    936a:	d1a7      	bne.n	92bc <_printf_i+0x17c>
    936c:	780b      	ldrb	r3, [r1, #0]
    936e:	f884 3042 	strb.w	r3, [r4, #66]	; 0x42
    9372:	f104 0542 	add.w	r5, r4, #66	; 0x42
    9376:	e765      	b.n	9244 <_printf_i+0x104>
    9378:	0000d4d2 	.word	0x0000d4d2
    937c:	0000d4c1 	.word	0x0000d4c1

00009380 <_putc_r>:
    9380:	b570      	push	{r4, r5, r6, lr}
    9382:	460d      	mov	r5, r1
    9384:	4614      	mov	r4, r2
    9386:	4606      	mov	r6, r0
    9388:	b118      	cbz	r0, 9392 <_putc_r+0x12>
    938a:	6983      	ldr	r3, [r0, #24]
    938c:	b90b      	cbnz	r3, 9392 <_putc_r+0x12>
    938e:	f7ff fb81 	bl	8a94 <__sinit>
    9392:	4b13      	ldr	r3, [pc, #76]	; (93e0 <_putc_r+0x60>)
    9394:	429c      	cmp	r4, r3
    9396:	d112      	bne.n	93be <_putc_r+0x3e>
    9398:	6874      	ldr	r4, [r6, #4]
    939a:	68a3      	ldr	r3, [r4, #8]
    939c:	3b01      	subs	r3, #1
    939e:	2b00      	cmp	r3, #0
    93a0:	60a3      	str	r3, [r4, #8]
    93a2:	da16      	bge.n	93d2 <_putc_r+0x52>
    93a4:	69a2      	ldr	r2, [r4, #24]
    93a6:	4293      	cmp	r3, r2
    93a8:	db02      	blt.n	93b0 <_putc_r+0x30>
    93aa:	b2eb      	uxtb	r3, r5
    93ac:	2b0a      	cmp	r3, #10
    93ae:	d110      	bne.n	93d2 <_putc_r+0x52>
    93b0:	4622      	mov	r2, r4
    93b2:	4629      	mov	r1, r5
    93b4:	4630      	mov	r0, r6
    93b6:	e8bd 4070 	ldmia.w	sp!, {r4, r5, r6, lr}
    93ba:	f7ff b9b9 	b.w	8730 <__swbuf_r>
    93be:	4b09      	ldr	r3, [pc, #36]	; (93e4 <_putc_r+0x64>)
    93c0:	429c      	cmp	r4, r3
    93c2:	d101      	bne.n	93c8 <_putc_r+0x48>
    93c4:	68b4      	ldr	r4, [r6, #8]
    93c6:	e7e8      	b.n	939a <_putc_r+0x1a>
    93c8:	4b07      	ldr	r3, [pc, #28]	; (93e8 <_putc_r+0x68>)
    93ca:	429c      	cmp	r4, r3
    93cc:	bf08      	it	eq
    93ce:	68f4      	ldreq	r4, [r6, #12]
    93d0:	e7e3      	b.n	939a <_putc_r+0x1a>
    93d2:	6823      	ldr	r3, [r4, #0]
    93d4:	1c5a      	adds	r2, r3, #1
    93d6:	6022      	str	r2, [r4, #0]
    93d8:	701d      	strb	r5, [r3, #0]
    93da:	b2e8      	uxtb	r0, r5
    93dc:	bd70      	pop	{r4, r5, r6, pc}
    93de:	bf00      	nop
    93e0:	0000d470 	.word	0x0000d470
    93e4:	0000d490 	.word	0x0000d490
    93e8:	0000d450 	.word	0x0000d450

000093ec <_sbrk_r>:
    93ec:	b538      	push	{r3, r4, r5, lr}
    93ee:	4c06      	ldr	r4, [pc, #24]	; (9408 <_sbrk_r+0x1c>)
    93f0:	2300      	movs	r3, #0
    93f2:	4605      	mov	r5, r0
    93f4:	4608      	mov	r0, r1
    93f6:	6023      	str	r3, [r4, #0]
    93f8:	f7f7 fae0 	bl	9bc <_sbrk>
    93fc:	1c43      	adds	r3, r0, #1
    93fe:	d102      	bne.n	9406 <_sbrk_r+0x1a>
    9400:	6823      	ldr	r3, [r4, #0]
    9402:	b103      	cbz	r3, 9406 <_sbrk_r+0x1a>
    9404:	602b      	str	r3, [r5, #0]
    9406:	bd38      	pop	{r3, r4, r5, pc}
    9408:	200090ac 	.word	0x200090ac

0000940c <__sread>:
    940c:	b510      	push	{r4, lr}
    940e:	460c      	mov	r4, r1
    9410:	f9b1 100e 	ldrsh.w	r1, [r1, #14]
    9414:	f000 f8e6 	bl	95e4 <_read_r>
    9418:	2800      	cmp	r0, #0
    941a:	bfab      	itete	ge
    941c:	6d63      	ldrge	r3, [r4, #84]	; 0x54
    941e:	89a3      	ldrhlt	r3, [r4, #12]
    9420:	181b      	addge	r3, r3, r0
    9422:	f423 5380 	biclt.w	r3, r3, #4096	; 0x1000
    9426:	bfac      	ite	ge
    9428:	6563      	strge	r3, [r4, #84]	; 0x54
    942a:	81a3      	strhlt	r3, [r4, #12]
    942c:	bd10      	pop	{r4, pc}

0000942e <__swrite>:
    942e:	e92d 41f0 	stmdb	sp!, {r4, r5, r6, r7, r8, lr}
    9432:	461f      	mov	r7, r3
    9434:	898b      	ldrh	r3, [r1, #12]
    9436:	05db      	lsls	r3, r3, #23
    9438:	4605      	mov	r5, r0
    943a:	460c      	mov	r4, r1
    943c:	4616      	mov	r6, r2
    943e:	d505      	bpl.n	944c <__swrite+0x1e>
    9440:	2302      	movs	r3, #2
    9442:	2200      	movs	r2, #0
    9444:	f9b1 100e 	ldrsh.w	r1, [r1, #14]
    9448:	f000 f868 	bl	951c <_lseek_r>
    944c:	89a3      	ldrh	r3, [r4, #12]
    944e:	f9b4 100e 	ldrsh.w	r1, [r4, #14]
    9452:	f423 5380 	bic.w	r3, r3, #4096	; 0x1000
    9456:	81a3      	strh	r3, [r4, #12]
    9458:	4632      	mov	r2, r6
    945a:	463b      	mov	r3, r7
    945c:	4628      	mov	r0, r5
    945e:	e8bd 41f0 	ldmia.w	sp!, {r4, r5, r6, r7, r8, lr}
    9462:	f000 b817 	b.w	9494 <_write_r>

00009466 <__sseek>:
    9466:	b510      	push	{r4, lr}
    9468:	460c      	mov	r4, r1
    946a:	f9b1 100e 	ldrsh.w	r1, [r1, #14]
    946e:	f000 f855 	bl	951c <_lseek_r>
    9472:	1c43      	adds	r3, r0, #1
    9474:	89a3      	ldrh	r3, [r4, #12]
    9476:	bf15      	itete	ne
    9478:	6560      	strne	r0, [r4, #84]	; 0x54
    947a:	f423 5380 	biceq.w	r3, r3, #4096	; 0x1000
    947e:	f443 5380 	orrne.w	r3, r3, #4096	; 0x1000
    9482:	81a3      	strheq	r3, [r4, #12]
    9484:	bf18      	it	ne
    9486:	81a3      	strhne	r3, [r4, #12]
    9488:	bd10      	pop	{r4, pc}

0000948a <__sclose>:
    948a:	f9b1 100e 	ldrsh.w	r1, [r1, #14]
    948e:	f000 b813 	b.w	94b8 <_close_r>
	...

00009494 <_write_r>:
    9494:	b538      	push	{r3, r4, r5, lr}
    9496:	4c07      	ldr	r4, [pc, #28]	; (94b4 <_write_r+0x20>)
    9498:	4605      	mov	r5, r0
    949a:	4608      	mov	r0, r1
    949c:	4611      	mov	r1, r2
    949e:	2200      	movs	r2, #0
    94a0:	6022      	str	r2, [r4, #0]
    94a2:	461a      	mov	r2, r3
    94a4:	f7fe ff54 	bl	8350 <_write>
    94a8:	1c43      	adds	r3, r0, #1
    94aa:	d102      	bne.n	94b2 <_write_r+0x1e>
    94ac:	6823      	ldr	r3, [r4, #0]
    94ae:	b103      	cbz	r3, 94b2 <_write_r+0x1e>
    94b0:	602b      	str	r3, [r5, #0]
    94b2:	bd38      	pop	{r3, r4, r5, pc}
    94b4:	200090ac 	.word	0x200090ac

000094b8 <_close_r>:
    94b8:	b538      	push	{r3, r4, r5, lr}
    94ba:	4c06      	ldr	r4, [pc, #24]	; (94d4 <_close_r+0x1c>)
    94bc:	2300      	movs	r3, #0
    94be:	4605      	mov	r5, r0
    94c0:	4608      	mov	r0, r1
    94c2:	6023      	str	r3, [r4, #0]
    94c4:	f7f7 fa88 	bl	9d8 <_close>
    94c8:	1c43      	adds	r3, r0, #1
    94ca:	d102      	bne.n	94d2 <_close_r+0x1a>
    94cc:	6823      	ldr	r3, [r4, #0]
    94ce:	b103      	cbz	r3, 94d2 <_close_r+0x1a>
    94d0:	602b      	str	r3, [r5, #0]
    94d2:	bd38      	pop	{r3, r4, r5, pc}
    94d4:	200090ac 	.word	0x200090ac

000094d8 <_fstat_r>:
    94d8:	b538      	push	{r3, r4, r5, lr}
    94da:	4c07      	ldr	r4, [pc, #28]	; (94f8 <_fstat_r+0x20>)
    94dc:	2300      	movs	r3, #0
    94de:	4605      	mov	r5, r0
    94e0:	4608      	mov	r0, r1
    94e2:	4611      	mov	r1, r2
    94e4:	6023      	str	r3, [r4, #0]
    94e6:	f7f7 fa7a 	bl	9de <_fstat>
    94ea:	1c43      	adds	r3, r0, #1
    94ec:	d102      	bne.n	94f4 <_fstat_r+0x1c>
    94ee:	6823      	ldr	r3, [r4, #0]
    94f0:	b103      	cbz	r3, 94f4 <_fstat_r+0x1c>
    94f2:	602b      	str	r3, [r5, #0]
    94f4:	bd38      	pop	{r3, r4, r5, pc}
    94f6:	bf00      	nop
    94f8:	200090ac 	.word	0x200090ac

000094fc <_isatty_r>:
    94fc:	b538      	push	{r3, r4, r5, lr}
    94fe:	4c06      	ldr	r4, [pc, #24]	; (9518 <_isatty_r+0x1c>)
    9500:	2300      	movs	r3, #0
    9502:	4605      	mov	r5, r0
    9504:	4608      	mov	r0, r1
    9506:	6023      	str	r3, [r4, #0]
    9508:	f7f7 fa6e 	bl	9e8 <_isatty>
    950c:	1c43      	adds	r3, r0, #1
    950e:	d102      	bne.n	9516 <_isatty_r+0x1a>
    9510:	6823      	ldr	r3, [r4, #0]
    9512:	b103      	cbz	r3, 9516 <_isatty_r+0x1a>
    9514:	602b      	str	r3, [r5, #0]
    9516:	bd38      	pop	{r3, r4, r5, pc}
    9518:	200090ac 	.word	0x200090ac

0000951c <_lseek_r>:
    951c:	b538      	push	{r3, r4, r5, lr}
    951e:	4c07      	ldr	r4, [pc, #28]	; (953c <_lseek_r+0x20>)
    9520:	4605      	mov	r5, r0
    9522:	4608      	mov	r0, r1
    9524:	4611      	mov	r1, r2
    9526:	2200      	movs	r2, #0
    9528:	6022      	str	r2, [r4, #0]
    952a:	461a      	mov	r2, r3
    952c:	f7f7 fa5e 	bl	9ec <_lseek>
    9530:	1c43      	adds	r3, r0, #1
    9532:	d102      	bne.n	953a <_lseek_r+0x1e>
    9534:	6823      	ldr	r3, [r4, #0]
    9536:	b103      	cbz	r3, 953a <_lseek_r+0x1e>
    9538:	602b      	str	r3, [r5, #0]
    953a:	bd38      	pop	{r3, r4, r5, pc}
    953c:	200090ac 	.word	0x200090ac

00009540 <memchr>:
    9540:	f001 01ff 	and.w	r1, r1, #255	; 0xff
    9544:	2a10      	cmp	r2, #16
    9546:	db2b      	blt.n	95a0 <memchr+0x60>
    9548:	f010 0f07 	tst.w	r0, #7
    954c:	d008      	beq.n	9560 <memchr+0x20>
    954e:	f810 3b01 	ldrb.w	r3, [r0], #1
    9552:	3a01      	subs	r2, #1
    9554:	428b      	cmp	r3, r1
    9556:	d02d      	beq.n	95b4 <memchr+0x74>
    9558:	f010 0f07 	tst.w	r0, #7
    955c:	b342      	cbz	r2, 95b0 <memchr+0x70>
    955e:	d1f6      	bne.n	954e <memchr+0xe>
    9560:	b4f0      	push	{r4, r5, r6, r7}
    9562:	ea41 2101 	orr.w	r1, r1, r1, lsl #8
    9566:	ea41 4101 	orr.w	r1, r1, r1, lsl #16
    956a:	f022 0407 	bic.w	r4, r2, #7
    956e:	f07f 0700 	mvns.w	r7, #0
    9572:	2300      	movs	r3, #0
    9574:	e8f0 5602 	ldrd	r5, r6, [r0], #8
    9578:	3c08      	subs	r4, #8
    957a:	ea85 0501 	eor.w	r5, r5, r1
    957e:	ea86 0601 	eor.w	r6, r6, r1
    9582:	fa85 f547 	uadd8	r5, r5, r7
    9586:	faa3 f587 	sel	r5, r3, r7
    958a:	fa86 f647 	uadd8	r6, r6, r7
    958e:	faa5 f687 	sel	r6, r5, r7
    9592:	b98e      	cbnz	r6, 95b8 <memchr+0x78>
    9594:	d1ee      	bne.n	9574 <memchr+0x34>
    9596:	bcf0      	pop	{r4, r5, r6, r7}
    9598:	f001 01ff 	and.w	r1, r1, #255	; 0xff
    959c:	f002 0207 	and.w	r2, r2, #7
    95a0:	b132      	cbz	r2, 95b0 <memchr+0x70>
    95a2:	f810 3b01 	ldrb.w	r3, [r0], #1
    95a6:	3a01      	subs	r2, #1
    95a8:	ea83 0301 	eor.w	r3, r3, r1
    95ac:	b113      	cbz	r3, 95b4 <memchr+0x74>
    95ae:	d1f8      	bne.n	95a2 <memchr+0x62>
    95b0:	2000      	movs	r0, #0
    95b2:	4770      	bx	lr
    95b4:	3801      	subs	r0, #1
    95b6:	4770      	bx	lr
    95b8:	2d00      	cmp	r5, #0
    95ba:	bf06      	itte	eq
    95bc:	4635      	moveq	r5, r6
    95be:	3803      	subeq	r0, #3
    95c0:	3807      	subne	r0, #7
    95c2:	f015 0f01 	tst.w	r5, #1
    95c6:	d107      	bne.n	95d8 <memchr+0x98>
    95c8:	3001      	adds	r0, #1
    95ca:	f415 7f80 	tst.w	r5, #256	; 0x100
    95ce:	bf02      	ittt	eq
    95d0:	3001      	addeq	r0, #1
    95d2:	f415 3fc0 	tsteq.w	r5, #98304	; 0x18000
    95d6:	3001      	addeq	r0, #1
    95d8:	bcf0      	pop	{r4, r5, r6, r7}
    95da:	3801      	subs	r0, #1
    95dc:	4770      	bx	lr
    95de:	bf00      	nop

000095e0 <__malloc_lock>:
    95e0:	4770      	bx	lr

000095e2 <__malloc_unlock>:
    95e2:	4770      	bx	lr

000095e4 <_read_r>:
    95e4:	b538      	push	{r3, r4, r5, lr}
    95e6:	4c07      	ldr	r4, [pc, #28]	; (9604 <_read_r+0x20>)
    95e8:	4605      	mov	r5, r0
    95ea:	4608      	mov	r0, r1
    95ec:	4611      	mov	r1, r2
    95ee:	2200      	movs	r2, #0
    95f0:	6022      	str	r2, [r4, #0]
    95f2:	461a      	mov	r2, r3
    95f4:	f7fe fe9c 	bl	8330 <_read>
    95f8:	1c43      	adds	r3, r0, #1
    95fa:	d102      	bne.n	9602 <_read_r+0x1e>
    95fc:	6823      	ldr	r3, [r4, #0]
    95fe:	b103      	cbz	r3, 9602 <_read_r+0x1e>
    9600:	602b      	str	r3, [r5, #0]
    9602:	bd38      	pop	{r3, r4, r5, pc}
    9604:	200090ac 	.word	0x200090ac
    9608:	40003000 	.word	0x40003000
    960c:	40003400 	.word	0x40003400
    9610:	41012000 	.word	0x41012000
    9614:	41014000 	.word	0x41014000
    9618:	43000000 	.word	0x43000000
    961c:	43000400 	.word	0x43000400
    9620:	43000800 	.word	0x43000800
    9624:	43000c00 	.word	0x43000c00

00009628 <_i2cms>:
	...

00009640 <_usarts>:
    9640:	00000001 40100004 00030000 00700002     .......@......p.
    9650:	0000fcb9 00000000 00000005 40100004     ...............@
    9660:	00030000 00700002 0000fcb9 00000000     ......p.........
    9670:	65687465 74656e72 6d5f6669 695f6361     ethernetif_mac_i
    9680:	7475706e 5049203a 706e6920 65207475     nput: IP input e
    9690:	726f7272 2f2e2e00 7069776c 69776c2f     rror.../lwip/lwi
    96a0:	2e312d70 2f302e34 2f637273 65726f63     p-1.4.0/src/core
    96b0:	6368642f 00632e70 70636864 6572635f     /dhcp.c.dhcp_cre
    96c0:	5f657461 3a67736d 74656e20 21206669     ate_msg: netif !
    96d0:	554e203d 41004c4c 72657373 6e6f6974     = NULL.Assertion
    96e0:	73252220 61662022 64656c69 20746120      "%s" failed at 
    96f0:	656e696c 20642520 25206e69 64000a73     line %d in %s..d
    9700:	5f706368 61657263 6d5f6574 203a6773     hcp_create_msg: 
    9710:	70636864 203d2120 4c4c554e 63686400     dhcp != NULL.dhc
    9720:	72635f70 65746165 67736d5f 203a2928     p_create_msg(): 
    9730:	6c756f63 6f6e2064 6c612074 61636f6c     could not alloca
    9740:	70206574 00667562 6e617274 74636173     te pbuf.transact
    9750:	206e6f69 78206469 25286469 000a2978     ion id xid(%x)..
    9760:	70636864 6568635f 6e286b63 66697465     dhcp_check(netif
    9770:	2970253d 25632520 64000a63 5f706368     =%p) %c%c..dhcp_
    9780:	63656863 63203a6b 646c756f 746f6e20     check: could not
    9790:	72657020 6d726f66 50524120 65757120      perform ARP que
    97a0:	64007972 5f706368 63656863 3a29286b     ry.dhcp_check():
    97b0:	74657320 71657220 74736575 6d697420      set request tim
    97c0:	74756f65 75682520 65736d20 000a7363     eout %hu msecs..
    97d0:	70636864 6e69625f 6e203a64 66697465     dhcp_bind: netif
    97e0:	203d2120 4c4c554e 63686400 69625f70      != NULL.dhcp_bi
    97f0:	203a646e 70636864 203d2120 4c4c554e     nd: dhcp != NULL
    9800:	63686400 69625f70 6e28646e 66697465     .dhcp_bind(netif
    9810:	2970253d 25632520 75682563 6864000a     =%p) %c%c%hu..dh
    9820:	625f7063 28646e69 74203a29 65722031     cp_bind(): t1 re
    9830:	6177656e 6974206c 2072656d 73207525     newal timer %u s
    9840:	0a736365 63686400 69625f70 2928646e     ecs..dhcp_bind()
    9850:	6573203a 65722074 73657571 69742074     : set request ti
    9860:	756f656d 75252074 65736d20 000a7363     meout %u msecs..
    9870:	70636864 6e69625f 3a292864 20327420     dhcp_bind(): t2 
    9880:	69626572 7420646e 72656d69 20752520     rebind timer %u 
    9890:	73636573 6864000a 625f7063 28646e69     secs..dhcp_bind(
    98a0:	49203a29 30203a50 38302578 64000a78     ): IP: 0x%08x..d
    98b0:	5f706368 646e6962 203a2928 203a4e53     hcp_bind(): SN: 
    98c0:	30257830 000a7838 70636864 6e69625f     0x%08x..dhcp_bin
    98d0:	3a292864 3a574720 25783020 0a783830     d(): GW: 0x%08x.
    98e0:	63686400 706f5f70 6e6f6974 6172745f     .dhcp_option_tra
    98f0:	72656c69 6864203a 21207063 554e203d     iler: dhcp != NU
    9900:	64004c4c 5f706368 656c6564 6d5f6574     LL.dhcp_delete_m
    9910:	203a6773 70636864 203d2120 4c4c554e     sg: dhcp != NULL
    9920:	63686400 65725f70 646e6962 64002928     .dhcp_rebind().d
    9930:	5f706368 69626572 203a646e 49424552     hcp_rebind: REBI
    9940:	4e49444e 68640047 725f7063 6e696265     NDING.dhcp_rebin
    9950:	63203a64 646c756f 746f6e20 6c6c6120     d: could not all
    9960:	7461636f 48442065 72205043 65757165     ocate DHCP reque
    9970:	64007473 5f706368 69626572 2928646e     st.dhcp_rebind()
    9980:	6573203a 65722074 73657571 69742074     : set request ti
    9990:	756f656d 68252074 736d2075 0a736365     meout %hu msecs.
    99a0:	63686400 69645f70 766f6373 29287265     .dhcp_discover()
    99b0:	63686400 69645f70 766f6373 203a7265     .dhcp_discover: 
    99c0:	696b616d 7220676e 65757165 64007473     making request.d
    99d0:	5f706368 63736964 7265766f 6572203a     hcp_discover: re
    99e0:	6f6c6c61 69292863 6400676e 5f706368     alloc()ing.dhcp_
    99f0:	63736964 7265766f 6573203a 6f74646e     discover: sendto
    9a00:	53494428 45564f43 49202c52 44415f50     (DISCOVER, IP_AD
    9a10:	425f5244 44414f52 54534143 4844202c     DR_BROADCAST, DH
    9a20:	535f5043 45565245 4f505f52 00295452     CP_SERVER_PORT).
    9a30:	70636864 7369645f 65766f63 64203a72     dhcp_discover: d
    9a40:	74656c65 28676e69 676e6929 63686400     eleting()ing.dhc
    9a50:	69645f70 766f6373 203a7265 454c4553     p_discover: SELE
    9a60:	4e495443 68640047 645f7063 6f637369     CTING.dhcp_disco
    9a70:	3a726576 756f6320 6e20646c 6120746f     ver: could not a
    9a80:	636f6c6c 20657461 50434844 71657220     llocate DHCP req
    9a90:	74736575 63686400 69645f70 766f6373     uest.dhcp_discov
    9aa0:	29287265 6573203a 65722074 73657571     er(): set reques
    9ab0:	69742074 756f656d 68252074 736d2075     t timeout %hu ms
    9ac0:	0a736365 63686400 65735f70 7463656c     ecs..dhcp_select
    9ad0:	74656e28 253d6669 25202970 25632563     (netif=%p) %c%c%
    9ae0:	000a7568 70636864 6c65735f 3a746365     hu..dhcp_select:
    9af0:	51455220 54534555 00474e49 70636864      REQUESTING.dhcp
    9b00:	6c65735f 3a746365 756f6320 6e20646c     _select: could n
    9b10:	6120746f 636f6c6c 20657461 50434844     ot allocate DHCP
    9b20:	71657220 74736575 63686400 65735f70      request.dhcp_se
    9b30:	7463656c 203a2928 20746573 75716572     lect(): set requ
    9b40:	20747365 656d6974 2074756f 20756825     est timeout %hu 
    9b50:	6365736d 64000a73 5f706368 6f626572     msecs..dhcp_rebo
    9b60:	2928746f 63686400 65725f70 746f6f62     ot().dhcp_reboot
    9b70:	4552203a 544f4f42 00474e49 70636864     : REBOOTING.dhcp
    9b80:	6265725f 3a746f6f 756f6320 6e20646c     _reboot: could n
    9b90:	6120746f 636f6c6c 20657461 50434844     ot allocate DHCP
    9ba0:	71657220 74736575 63686400 65725f70      request.dhcp_re
    9bb0:	746f6f62 203a2928 20746573 75716572     boot(): set requ
    9bc0:	20747365 656d6974 2074756f 20756825     est timeout %hu 
    9bd0:	6365736d 64000a73 5f706368 76636572     msecs..dhcp_recv
    9be0:	75627028 203d2066 20297025 6d6f7266     (pbuf = %p) from
    9bf0:	43484420 65732050 72657672 75682520      DHCP server %hu
    9c00:	7568252e 7568252e 7568252e 726f7020     .%hu.%hu.%hu por
    9c10:	68252074 70000a75 2d667562 6e656c3e     t %hu..pbuf->len
    9c20:	25203d20 000a7568 66756270 6f743e2d      = %hu..pbuf->to
    9c30:	656c5f74 203d206e 0a756825 43484400     t_len = %hu..DHC
    9c40:	65722050 20796c70 7373656d 20656761     P reply message 
    9c50:	7020726f 20667562 206f6f74 726f6873     or pbuf too shor
    9c60:	6f6e0074 20612074 50434844 70657220     t.not a DHCP rep
    9c70:	6d20796c 61737365 202c6567 20747562     ly message, but 
    9c80:	65707974 75682520 656e000a 2d666974     type %hu..netif-
    9c90:	6177683e 5b726464 5d756825 30253d3d     >hwaddr[%hu]==%0
    9ca0:	20786832 72203d21 796c7065 67736d5f     2hx != reply_msg
    9cb0:	68633e2d 72646461 7568255b 253d3d5d     ->chaddr[%hu]==%
    9cc0:	78683230 7274000a 61736e61 6f697463     02hx..transactio
    9cd0:	6469206e 73696d20 6374616d 65722068     n id mismatch re
    9ce0:	5f796c70 2d67736d 6469783e 29782528     ply_msg->xid(%x)
    9cf0:	68643d21 3e2d7063 28646978 0a297825     !=dhcp->xid(%x).
    9d00:	6e656c00 203d3d20 656c0034 3d3e206e     .len == 4.len >=
    9d10:	63656420 5f65646f 006e656c 206e656c      decode_len.len 
    9d20:	31203d3d 696b7300 6e697070 706f2067     == 1.skipping op
    9d30:	6e6f6974 75682520 206e6920 6974706f     tion %hu in opti
    9d40:	0a736e6f 63656400 5f65646f 206e656c     ons..decode_len 
    9d50:	20342025 30203d3d 766e6900 64696c61     % 4 == 0.invalid
    9d60:	63656420 5f65646f 006e656c 7265766f      decode_len.over
    9d70:	64616f6c 66206465 20656c69 6c656966     loaded file fiel
    9d80:	766f0064 6f6c7265 64656461 616e7320     d.overloaded sna
    9d90:	6620656d 646c6569 65766f00 616f6c72     me field.overloa
    9da0:	20646564 6d616e73 6e612065 69662064     ded sname and fi
    9db0:	6620656c 646c6569 766e6900 64696c61     le field.invalid
    9dc0:	65766f20 616f6c72 706f2064 6e6f6974      overload option
    9dd0:	6425203a 7270000a 656c626f 6e75206d     : %d..problem un
    9de0:	646c6f66 20676e69 50434844 73656d20     folding DHCP mes
    9df0:	65676173 74202d20 73206f6f 74726f68     sage - too short
    9e00:	206e6f20 6f6d656d 003f7972 72616573      on memory?.sear
    9e10:	6e696863 48442067 4f5f5043 4f495450     ching DHCP_OPTIO
    9e20:	454d5f4e 47415353 59545f45 44004550     N_MESSAGE_TYPE.D
    9e30:	5f504348 4954504f 4d5f4e4f 41535345     HCP_OPTION_MESSA
    9e40:	545f4547 20455059 6974706f 6e206e6f     GE_TYPE option n
    9e50:	6620746f 646e756f 43484400 43415f50     ot found.DHCP_AC
    9e60:	6572204b 76696563 44006465 5f504348     K received.DHCP_
    9e70:	204b414e 65636572 64657669 63686400     NAK received.dhc
    9e80:	61685f70 656c646e 6b616e5f 74656e28     p_handle_nak(net
    9e90:	253d6669 25202970 25632563 000a7568     if=%p) %c%c%hu..
    9ea0:	50434844 46464f5f 72205245 69656365     DHCP_OFFER recei
    9eb0:	20646576 44206e69 5f504348 454c4553     ved in DHCP_SELE
    9ec0:	4e495443 74732047 00657461 70636864     CTING state.dhcp
    9ed0:	6e61685f 5f656c64 6566666f 656e2872     _handle_offer(ne
    9ee0:	3d666974 20297025 63256325 0a756825     tif=%p) %c%c%hu.
    9ef0:	63686400 61685f70 656c646e 66666f5f     .dhcp_handle_off
    9f00:	29287265 6573203a 72657672 25783020     er(): server 0x%
    9f10:	0a783830 63686400 61685f70 656c646e     08x..dhcp_handle
    9f20:	66666f5f 29287265 666f203a 20726566     _offer(): offer 
    9f30:	20726f66 30257830 000a7838 70636864     for 0x%08x..dhcp
    9f40:	6e61685f 5f656c64 6566666f 656e2872     _handle_offer(ne
    9f50:	3d666974 20297025 20646964 20746f6e     tif=%p) did not 
    9f60:	20746567 76726573 49207265 000a2144     get server ID!..
    9f70:	70636864 666e695f 286d726f 63203a29     dhcp_inform(): c
    9f80:	646c756f 746f6e20 74626f20 206e6961     ould not obtain 
    9f90:	00626370 70636864 666e695f 286d726f     pcb.dhcp_inform(
    9fa0:	63203a29 74616572 6e206465 75207765     ): created new u
    9fb0:	70207064 64006263 5f706368 6f666e69     dp pcb.dhcp_info
    9fc0:	203a6d72 4f464e49 4e494d52 68640047     rm: INFORMING.dh
    9fd0:	695f7063 726f666e 63203a6d 646c756f     cp_inform: could
    9fe0:	746f6e20 6c6c6120 7461636f 48442065      not allocate DH
    9ff0:	72205043 65757165 64007473 5f706368     CP request.dhcp_
    a000:	5f707261 6c706572 00292879 70636864     arp_reply().dhcp
    a010:	7072615f 7065725f 2928796c 4843203a     _arp_reply(): CH
    a020:	494b4345 202c474e 20707261 6c706572     ECKING, arp repl
    a030:	6f662079 78302072 78383025 6864000a     y for 0x%08x..dh
    a040:	615f7063 725f7072 796c7065 203a2928     cp_arp_reply(): 
    a050:	20707261 6c706572 616d2079 65686374     arp reply matche
    a060:	69772064 6f206874 72656666 61206465     d with offered a
    a070:	65726464 202c7373 6c636564 6e696e69     ddress, declinin
    a080:	68640067 645f7063 696c6365 2928656e     g.dhcp_decline()
    a090:	63686400 65645f70 6e696c63 42203a65     .dhcp_decline: B
    a0a0:	494b4341 4f20474e 64004646 5f706368     ACKING OFF.dhcp_
    a0b0:	6c636564 3a656e69 756f6320 6e20646c     decline: could n
    a0c0:	6120746f 636f6c6c 20657461 50434844     ot allocate DHCP
    a0d0:	71657220 74736575 63686400 65645f70      request.dhcp_de
    a0e0:	6e696c63 3a292865 74657320 71657220     cline(): set req
    a0f0:	74736575 6d697420 74756f65 75682520     uest timeout %hu
    a100:	65736d20 000a7363 70636864 6e65725f      msecs..dhcp_ren
    a110:	29287765 63686400 65725f70 3a77656e     ew().dhcp_renew:
    a120:	4e455220 4e495745 68640047 725f7063      RENEWING.dhcp_r
    a130:	77656e65 6f63203a 20646c75 20746f6e     enew: could not 
    a140:	6f6c6c61 65746163 43484420 65722050     allocate DHCP re
    a150:	73657571 68640074 725f7063 77656e65     quest.dhcp_renew
    a160:	203a2928 20746573 75716572 20747365     (): set request 
    a170:	656d6974 2074756f 20756825 6365736d     timeout %hu msec
    a180:	64000a73 5f706368 72616f63 745f6573     s..dhcp_coarse_t
    a190:	2928726d 63686400 6f635f70 65737261     mr().dhcp_coarse
    a1a0:	726d745f 203a2928 74203274 6f656d69     _tmr(): t2 timeo
    a1b0:	64007475 5f706368 745f3274 6f656d69     ut.dhcp_t2_timeo
    a1c0:	29287475 63686400 32745f70 6d69745f     ut().dhcp_t2_tim
    a1d0:	74756f65 203a2928 7473756d 62657220     eout(): must reb
    a1e0:	00646e69 70636864 616f635f 5f657372     ind.dhcp_coarse_
    a1f0:	28726d74 74203a29 69742031 756f656d     tmr(): t1 timeou
    a200:	68640074 745f7063 69745f31 756f656d     t.dhcp_t1_timeou
    a210:	00292874 70636864 5f31745f 656d6974     t().dhcp_t1_time
    a220:	2874756f 6d203a29 20747375 656e6572     out(): must rene
    a230:	68640077 725f7063 61656c65 29286573     w.dhcp_release()
    a240:	63686400 65725f70 7361656c 52203a65     .dhcp_release: R
    a250:	41454c45 2c444553 43484420 464f5f50     ELEASED, DHCP_OF
    a260:	68640046 725f7063 61656c65 203a6573     F.dhcp_release: 
    a270:	6c756f63 6f6e2064 6c612074 61636f6c     could not alloca
    a280:	44206574 20504348 75716572 00747365     te DHCP request.
    a290:	70636864 6c65725f 65736165 203a2928     dhcp_release(): 
    a2a0:	20746573 75716572 20747365 656d6974     set request time
    a2b0:	2074756f 20756825 6365736d 64000a73     out %hu msecs..d
    a2c0:	5f706368 656e6966 726d745f 203a2928     hcp_fine_tmr(): 
    a2d0:	75716572 20747365 656d6974 0074756f     request timeout.
    a2e0:	70636864 6d69745f 74756f65 64002928     dhcp_timeout().d
    a2f0:	5f706368 656d6974 2874756f 72203a29     hcp_timeout(): r
    a300:	61747365 6e697472 69642067 766f6373     estarting discov
    a310:	00797265 70636864 6d69745f 74756f65     ery.dhcp_timeout
    a320:	203a2928 55514552 49545345 202c474e     (): REQUESTING, 
    a330:	50434844 71657220 74736575 6d697420     DHCP request tim
    a340:	6f206465 64007475 5f706368 656d6974     ed out.dhcp_time
    a350:	2874756f 52203a29 45555145 4e495453     out(): REQUESTIN
    a360:	72202c47 61656c65 676e6973 6572202c     G, releasing, re
    a370:	72617473 676e6974 63686400 69745f70     starting.dhcp_ti
    a380:	756f656d 3a292874 45484320 4e494b43     meout(): CHECKIN
    a390:	41202c47 72205052 65757165 74207473     G, ARP request t
    a3a0:	64656d69 74756f20 63686400 69745f70     imed out.dhcp_ti
    a3b0:	756f656d 3a292874 4e455220 4e495745     meout(): RENEWIN
    a3c0:	44202c47 20504348 75716572 20747365     G, DHCP request 
    a3d0:	656d6974 756f2064 68640074 745f7063     timed out.dhcp_t
    a3e0:	6f656d69 29287475 4552203a 444e4942     imeout(): REBIND
    a3f0:	2c474e49 43484420 65722050 73657571     ING, DHCP reques
    a400:	69742074 2064656d 0074756f 70636864     t timed out.dhcp
    a410:	6d69745f 74756f65 203a2928 454c4552     _timeout(): RELE
    a420:	4e495341 44202c47 4f435349 49524556     ASING, DISCOVERI
    a430:	6400474e 5f706368 706f7473 656e203a     NG.dhcp_stop: ne
    a440:	20666974 4e203d21 004c4c55 70636864     tif != NULL.dhcp
    a450:	6f74735f 00292870 70636864 6174735f     _stop().dhcp_sta
    a460:	6e287472 66697465 2970253d 25632520     rt(netif=%p) %c%
    a470:	75682563 6864000a 735f7063 74726174     c%hu..dhcp_start
    a480:	203a2928 45206f4e 52414854 656e2050     (): No ETHARP ne
    a490:	00666974 70636864 6174735f 29287472     tif.dhcp_start()
    a4a0:	6143203a 746f6e6e 65737520 69687420     : Cannot use thi
    a4b0:	656e2073 20666974 68746977 43484420     s netif with DHC
    a4c0:	4d203a50 69205554 6f742073 6d73206f     P: MTU is too sm
    a4d0:	006c6c61 70636864 6174735f 29287472     all.dhcp_start()
    a4e0:	7473203a 69747261 6e20676e 44207765     : starting new D
    a4f0:	20504348 65696c63 6400746e 5f706368     HCP client.dhcp_
    a500:	72617473 3a292874 756f6320 6e20646c     start(): could n
    a510:	6120746f 636f6c6c 20657461 70636864     ot allocate dhcp
    a520:	63686400 74735f70 28747261 61203a29     .dhcp_start(): a
    a530:	636f6c6c 64657461 63686420 68640070     llocated dhcp.dh
    a540:	735f7063 74726174 203a2928 74736572     cp_start(): rest
    a550:	69747261 4420676e 20504348 666e6f63     arting DHCP conf
    a560:	72756769 6f697461 6864006e 735f7063     iguration.dhcp_s
    a570:	74726174 203a2928 6c756f63 6f6e2064     tart(): could no
    a580:	626f2074 6e696174 62637020 63686400     t obtain pcb.dhc
    a590:	74735f70 28747261 73203a29 74726174     p_start(): start
    a5a0:	20676e69 50434844 6e6f6320 75676966     ing DHCP configu
    a5b0:	69746172 69006e6f 5f706d63 656d6974     ration.icmp_time
    a5c0:	6378655f 65646565 66203a64 656c6961     _exceeded: faile
    a5d0:	6f742064 6c6c6120 7461636f 62702065     d to allocate pb
    a5e0:	66206675 4920726f 20504d43 6b636170     uf for ICMP pack
    a5f0:	002e7465 706d6369 6d69745f 78655f65     et..icmp_time_ex
    a600:	64656563 66206465 206d6f72 75682500     ceeded from .%hu
    a610:	7568252e 7568252e 7568252e 6f742000     .%hu.%hu.%hu. to
    a620:	63690020 695f706d 7475706e 6873203a      .icmp_input: sh
    a630:	2074726f 504d4349 68252820 79622075     ort ICMP (%hu by
    a640:	29736574 63657220 65766965 69000a64     tes) received..i
    a650:	5f706d63 75706e69 4e203a74 6520746f     cmp_input: Not e
    a660:	696f6863 7420676e 756d206f 6369746c     choing to multic
    a670:	20747361 6220726f 64616f72 74736163     ast or broadcast
    a680:	6e697020 69007367 5f706d63 75706e69      pings.icmp_inpu
    a690:	70203a74 00676e69 706d6369 706e695f     t: ping.icmp_inp
    a6a0:	203a7475 20646162 504d4349 68636520     ut: bad ICMP ech
    a6b0:	6572206f 76696563 69006465 5f706d63     o received.icmp_
    a6c0:	75706e69 63203a74 6b636568 206d7573     input: checksum 
    a6d0:	6c696166 66206465 7220726f 69656365     failed for recei
    a6e0:	20646576 504d4349 68636520 6369006f     ved ICMP echo.ic
    a6f0:	695f706d 7475706e 6c61203a 61636f6c     mp_input: alloca
    a700:	676e6974 77656e20 75627020 61662066     ting new pbuf fa
    a710:	64656c69 6d636900 6e695f70 3a747570     iled.icmp_input:
    a720:	5f706920 7074756f 695f7475 65722066      ip_output_if re
    a730:	6e727574 61206465 7265206e 3a726f72     turned an error:
    a740:	2e632520 6369000a 695f706d 7475706e      %c...icmp_input
    a750:	4349203a 7420504d 20657079 20646825     : ICMP type %hd 
    a760:	65646f63 64682520 746f6e20 70757320     code %hd not sup
    a770:	74726f70 0a2e6465 656e6900 68635f74     ported...inet_ch
    a780:	6d75736b 6573705f 286f6475 63203a29     ksum_pseudo(): c
    a790:	6b636568 6d6d7573 20676e69 66756270     hecksumming pbuf
    a7a0:	20702520 73616828 78656e20 70252074      %p (has next %p
    a7b0:	000a2029 74656e69 6b68635f 5f6d7573     ) ..inet_chksum_
    a7c0:	75657370 29286f64 6270203a 63206675     pseudo(): pbuf c
    a7d0:	6e696168 69776c20 68635f70 6d75736b     hain lwip_chksum
    a7e0:	253d2928 69000a78 6f725f70 3a657475     ()=%x..ip_route:
    a7f0:	206f4e20 74756f72 6f742065 75682520      No route to %hu
    a800:	7568252e 7568252e 7568252e 5049000a     .%hu.%hu.%hu..IP
    a810:	61656820 3a726564 2d2d2b00 2d2d2d2d      header:.+------
    a820:	2d2d2d2d 2d2d2d2d 2d2d2d2d 2d2d2d2d     ----------------
    a830:	2d2d2d2d 2d2d2d2d 7c002b2d 64683225     ---------+.|%2hd
    a840:	32257c20 7c206468 78302020 68323025      |%2hd |  0x%02h
    a850:	207c2078 20202020 75683525 20202020     x |     %5hu    
    a860:	28207c20 68202c76 74202c6c 202c736f      | (v, hl, tos, 
    a870:	296e656c 207c000a 25202020 20756835     len)..|    %5hu 
    a880:	20202020 68257c20 75682575 7c756825          |%hu%hu%hu|
    a890:	20202020 75683425 7c202020 64692820         %4hu   | (id
    a8a0:	6c66202c 2c736761 66666f20 29746573     , flags, offset)
    a8b0:	207c000a 68332520 7c202075 33252020     ..|  %3hu  |  %3
    a8c0:	20207568 2020207c 25783020 78683430     hu  |    0x%04hx
    a8d0:	20202020 28207c20 2c6c7474 6f727020          | (ttl, pro
    a8e0:	202c6f74 736b6863 0a296d75 20207c00     to, chksum)..|  
    a8f0:	75683325 207c2020 68332520 7c202075     %3hu  |  %3hu  |
    a900:	33252020 20207568 2520207c 20756833       %3hu  |  %3hu 
    a910:	28207c20 29637273 207c000a 68332520      | (src)..|  %3h
    a920:	7c202075 33252020 20207568 2520207c     u  |  %3hu  |  %
    a930:	20756833 20207c20 75683325 207c2020     3hu  |  %3hu  | 
    a940:	73656428 000a2974 70205049 656b6361     (dest)..IP packe
    a950:	72642074 6570706f 75642064 6f742065     t dropped due to
    a960:	64616220 72657620 6e6f6973 6d756e20      bad version num
    a970:	20726562 0a756825 20504900 64616568     ber %hu..IP head
    a980:	28207265 206e656c 29756825 656f6420     er (len %hu) doe
    a990:	6f6e2073 69662074 6e692074 72696620     s not fit in fir
    a9a0:	70207473 20667562 6e656c28 75682520     st pbuf (len %hu
    a9b0:	49202c29 61702050 74656b63 6f726420     ), IP packet dro
    a9c0:	64657070 49000a2e 6c282050 25206e65     pped...IP (len %
    a9d0:	20297568 6c207369 65676e6f 68742072     hu) is longer th
    a9e0:	70206e61 20667562 6e656c28 75682520     an pbuf (len %hu
    a9f0:	49202c29 61702050 74656b63 6f726420     ), IP packet dro
    aa00:	64657070 43000a2e 6b636568 206d7573     pped...Checksum 
    aa10:	25783028 20297868 6c696166 202c6465     (0x%hx) failed, 
    aa20:	70205049 656b6361 72642074 6570706f     IP packet droppe
    aa30:	000a2e64 695f7069 7475706e 7069203a     d...ip_input: ip
    aa40:	2d726468 7365643e 78302074 6e207825     hdr->dest 0x%x n
    aa50:	66697465 70693e2d 6464615f 78302072     etif->ip_addr 0x
    aa60:	28207825 78257830 7830202c 202c7825     %x (0x%x, 0x%x, 
    aa70:	78257830 69000a29 6e695f70 3a747570     0x%x)..ip_input:
    aa80:	63617020 2074656b 65636361 64657470      packet accepted
    aa90:	206e6f20 65746e69 63616672 63252065      on interface %c
    aaa0:	000a6325 695f7069 7475706e 4455203a     %c..ip_input: UD
    aab0:	61702050 74656b63 206f7420 50434844     P packet to DHCP
    aac0:	696c6320 20746e65 74726f70 75682520      client port %hu
    aad0:	7069000a 706e695f 203a7475 50434844     ..ip_input: DHCP
    aae0:	63617020 2074656b 65636361 64657470      packet accepted
    aaf0:	7069002e 706e695f 203a7475 6b636170     ..ip_input: pack
    ab00:	73207465 6372756f 73692065 746f6e20     et source is not
    ab10:	6c617620 002e6469 695f7069 7475706e      valid..ip_input
    ab20:	6170203a 74656b63 746f6e20 726f6620     : packet not for
    ab30:	2e737520 20504900 6b636170 69207465      us..IP packet i
    ab40:	20612073 67617266 746e656d 64692820     s a fragment (id
    ab50:	2578303d 78683430 746f7420 6e656c5f     =0x%04hx tot_len
    ab60:	7568253d 6e656c20 7568253d 3d464d20     =%hu len=%hu MF=
    ab70:	20756825 7366666f 253d7465 2c297568     %hu offset=%hu),
    ab80:	6c616320 676e696c 5f706920 73616572      calling ip_reas
    ab90:	0a292873 5f706900 75706e69 00203a74     s()..ip_input: .
    aba0:	695f7069 7475706e 2d70203a 6e656c3e     ip_input: p->len
    abb0:	75682520 3e2d7020 5f746f74 206e656c      %hu p->tot_len 
    abc0:	0a756825 736e5500 6f707075 64657472     %hu..Unsupported
    abd0:	61727420 6f70736e 70207472 6f746f72      transport proto
    abe0:	206c6f63 0a756825 5f706900 7074756f     col %hu..ip_outp
    abf0:	203a7475 20746f6e 756f6e65 72206867     ut: not enough r
    ac00:	206d6f6f 20726f66 68205049 65646165     oom for IP heade
    ac10:	6e692072 75627020 70690066 74756f5f     r in pbuf.ip_out
    ac20:	5f747570 203a6669 63256325 0a756825     put_if: %c%c%hu.
    ac30:	74656e00 3e2d6669 7074756f 29287475     .netif->output()
    ac40:	5f706900 7074756f 203a7475 72206f4e     .ip_output: No r
    ac50:	6574756f 206f7420 2e756825 2e756825     oute to %hu.%hu.
    ac60:	2e756825 0a756825 00000000              %hu.%hu.....

0000ac6c <ip_addr_broadcast>:
    ac6c:	ffffffff                                ....

0000ac70 <ip_addr_any>:
    ac70:	00000000 725f7069 73736165 726d745f     ....ip_reass_tmr
    ac80:	6974203a 2072656d 20636564 0a756825     : timer dec %hu.
    ac90:	5f706900 73616572 6d745f73 74203a72     .ip_reass_tmr: t
    aca0:	72656d69 6d697420 6f206465 69007475     imer timed out.i
    acb0:	65725f70 3a737361 20504920 6974706f     p_reass: IP opti
    acc0:	20736e6f 72727563 6c746e65 6f6e2079     ons currently no
    acd0:	75732074 726f7070 21646574 5f706900     t supported!.ip_
    ace0:	73616572 4f203a73 66726576 20776f6c     reass: Overflow 
    acf0:	646e6f63 6f697469 70203a6e 63667562     condition: pbufc
    ad00:	64253d74 6c63202c 253d6e65 4d202c64     t=%d, clen=%d, M
    ad10:	253d5841 69000a64 65725f70 3a737361     AX=%d..ip_reass:
    ad20:	74616d20 6e696863 72702067 6f697665      matching previo
    ad30:	66207375 6d676172 20746e65 253d4449     us fragment ID=%
    ad40:	000a7868 6c696146 74206465 6c61206f     hx..Failed to al
    ad50:	20636f6c 73616572 74616473 74732061     loc reassdata st
    ad60:	74637572 5f706900 73616572 6c203a73     ruct.ip_reass: l
    ad70:	20747361 67617266 746e656d 65657320     ast fragment see
    ad80:	74202c6e 6c61746f 6e656c20 64682520     n, total len %hd
    ad90:	7069000a 6165725f 705f7373 63667562     ..ip_reass_pbufc
    ada0:	746e756f 6425203a 74756f20 7069000a     ount: %d out..ip
    adb0:	6165725f 203a7373 6c6c756e 75746572     _reass: nullretu
    adc0:	6d006e72 665f6d65 28656572 3d3d2070     rn.mem_free(p ==
    add0:	4c554e20 7720294c 63207361 656c6c61      NULL) was calle
    ade0:	6d002e64 665f6d65 3a656572 6c6c6920     d..mem_free: ill
    adf0:	6c616765 6d656d20 0079726f 5f6d656d     egal memory.mem_
    ae00:	6d697274 6c69203a 6167656c 656d206c     trim: illegal me
    ae10:	79726f6d 6d656d00 6c616d5f 3a636f6c     mory.mem_malloc:
    ae20:	756f6320 6e20646c 6120746f 636f6c6c      could not alloc
    ae30:	20657461 20646825 65747962 00000a73     ate %hd bytes...

0000ae40 <memp_num>:
    ae40:	00040004 00080005 00050010 0005000f     ................
    ae50:	00100010                                ....

0000ae54 <memp_sizes>:
    ae54:	0020001c 001c0098 00200014 00140018     .. ....... .....
    ae64:	05fc0010                                ....

0000ae68 <memp_desc>:
    ae68:	0000aef7 0000aeff 0000af07 0000af0f     ................
    ae78:	0000af1e 0000af26 0000af30 0000af3a     ....&...0...:...
    ae88:	0000af46 0000af53 6c2f2e2e 2f706977     F...S...../lwip/
    ae98:	7069776c 342e312d 732f302e 632f6372     lwip-1.4.0/src/c
    aea8:	2f65726f 706d656d 6d00632e 5f706d65     ore/memp.c.memp_
    aeb8:	6c6c616d 203a636f 65707974 4d203c20     malloc: type < M
    aec8:	5f504d45 0058414d 706d656d 6c616d5f     EMP_MAX.memp_mal
    aed8:	3a636f6c 74756f20 20666f20 6f6d656d     loc: out of memo
    aee8:	69207972 6f70206e 25206c6f 52000a73     ry in pool %s..R
    aef8:	505f5741 55004243 505f5044 54004243     AW_PCB.UDP_PCB.T
    af08:	505f5043 54004243 505f5043 4c5f4243     CP_PCB.TCP_PCB_L
    af18:	45545349 4354004e 45535f50 45520047     ISTEN.TCP_SEG.RE
    af28:	44535341 00415441 47415246 5542505f     ASSDATA.FRAG_PBU
    af38:	59530046 49545f53 554f454d 42500054     F.SYS_TIMEOUT.PB
    af48:	525f4655 522f4645 50004d4f 5f465542     UF_REF/ROM.PBUF_
    af58:	4c4f4f50 74656e00 665f6669 3a646e69     POOL.netif_find:
    af68:	756f6620 2520646e 0a632563 74656e00      found %c%c..net
    af78:	665f6669 3a646e69 64696420 2074276e     if_find: didn't 
    af88:	646e6966 25632520 6e000a63 66697465     find %c%c..netif
    af98:	7465735f 6170695f 3a726464 74656e20     _set_ipaddr: net
    afa8:	61206669 65726464 62207373 676e6965     if address being
    afb8:	61686320 6465676e 74656e00 735f6669      changed.netif_s
    afc8:	695f7465 64646170 61203a72 74726f62     et_ipaddr: abort
    afd8:	20676e69 20504354 20626370 000a7025     ing TCP pcb %p..
    afe8:	6974656e 49203a66 64612050 73657264     netif: IP addres
    aff8:	666f2073 746e6920 61667265 25206563     s of interface %
    b008:	20632563 20746573 25206f74 252e7568     c%c set to %hu.%
    b018:	252e7568 252e7568 000a7568 6974656e     hu.%hu.%hu..neti
    b028:	47203a66 64612057 73657264 666f2073     f: GW address of
    b038:	746e6920 61667265 25206563 20632563      interface %c%c 
    b048:	20746573 25206f74 252e7568 252e7568     set to %hu.%hu.%
    b058:	252e7568 000a7568 6974656e 6e203a66     hu.%hu..netif: n
    b068:	616d7465 6f206b73 6e692066 66726574     etmask of interf
    b078:	20656361 63256325 74657320 206f7420     ace %c%c set to 
    b088:	2e756825 2e756825 2e756825 0a756825     %hu.%hu.%hu.%hu.
    b098:	74656e00 203a6669 65646461 6e692064     .netif: added in
    b0a8:	66726574 20656361 63256325 20504920     terface %c%c IP 
    b0b8:	72646461 6e200020 616d7465 00206b73     addr . netmask .
    b0c8:	20776720 74656e00 203a6669 74746573      gw .netif: sett
    b0d8:	20676e69 61666564 20746c75 65746e69     ing default inte
    b0e8:	63616672 63252065 000a6325 6974656e     rface %c%c..neti
    b0f8:	65725f66 65766f6d 6572203a 65766f6d     f_remove: remove
    b108:	656e2064 00666974 66756270 6572665f     d netif.pbuf_fre
    b118:	6f6f5f65 3a716573 65726620 676e6965     e_ooseq: freeing
    b128:	74756f20 2d666f2d 75716573 65636e65      out-of-sequence
    b138:	75627020 70007366 5f667562 6f6c6c61      pbufs.pbuf_allo
    b148:	5f646563 74737563 6c286d6f 74676e65     ced_custom(lengt
    b158:	68253d68 000a2975 66756270 6c6c615f     h=%hu)..pbuf_all
    b168:	6465636f 7375635f 286d6f74 676e656c     oced_custom(leng
    b178:	253d6874 20297568 66667562 74207265     th=%hu) buffer t
    b188:	73206f6f 74726f68 2e2e000a 69776c2f     oo short..../lwi
    b198:	776c2f70 312d7069 302e342e 6372732f     p/lwip-1.4.0/src
    b1a8:	726f632f 62702f65 632e6675 636e6900     /core/pbuf.c.inc
    b1b8:	656d6572 6d5f746e 696e6761 65647574     rement_magnitude
    b1c8:	203d3c20 6c3e2d70 70006e65 5f667562      <= p->len.pbuf_
    b1d8:	64616568 203a7265 6c696166 61206465     header: failed a
    b1e8:	70252073 25203c20 6e282070 6520746f     s %p < %p (not e
    b1f8:	67756f6e 70732068 20656361 20726f66     nough space for 
    b208:	2077656e 64616568 73207265 29657a69     new header size)
    b218:	6270000a 685f6675 65646165 6f203a72     ..pbuf_header: o
    b228:	2520646c 656e2070 70252077 68252820     ld %p new %p (%h
    b238:	000a2964 66756270 6572665f 20702865     d)..pbuf_free(p 
    b248:	4e203d3d 294c4c55 73617720 6c616320     == NULL) was cal
    b258:	2e64656c 75627000 72665f66 25286565     led..pbuf_free(%
    b268:	000a2970 66756270 6572665f 64203a65     p)..pbuf_free: d
    b278:	6c6c6165 7461636f 20676e69 000a7025     eallocating %p..
    b288:	66756270 6572665f 25203a65 61682070     pbuf_free: %p ha
    b298:	65722073 68252066 65202c75 6e69646e     s ref %hu, endin
    b2a8:	65682067 0a2e6572 46455200 75627000     g here...REF.pbu
    b2b8:	6c615f66 28636f6c 676e656c 253d6874     f_alloc(length=%
    b2c8:	0a297568 75627000 6c615f66 3a636f6c     hu)..pbuf_alloc:
    b2d8:	6c6c6120 7461636f 70206465 20667562      allocated pbuf 
    b2e8:	000a7025 66756270 6c6c615f 203a636f     %p..pbuf_alloc: 
    b2f8:	6c756f43 6f6e2064 6c612074 61636f6c     Could not alloca
    b308:	4d206574 5f504d45 46554250 726f6620     te MEMP_PBUF for
    b318:	55425020 73255f46 70000a2e 5f667562      PBUF_%s...pbuf_
    b328:	6f6c6c61 656c2863 6874676e 7568253d     alloc(length=%hu
    b338:	3d3d2029 0a702520 20682800 4e203d21     ) == %p..(h != N
    b348:	294c4c55 20262620 21207428 554e203d     ULL) && (t != NU
    b358:	20294c4c 6f727028 6d617267 2072656d     LL) (programmer 
    b368:	6c6f6976 73657461 49504120 62700029     violates API).pb
    b378:	635f6675 6e696168 7025203a 66657220     uf_chain: %p ref
    b388:	6e657265 20736563 000a7025 66756270     erences %p..pbuf
    b398:	6365645f 6e696168 6e75203a 65666572     _dechain: unrefe
    b3a8:	636e6572 20676e69 000a7025 66756270     rencing %p..pbuf
    b3b8:	6365645f 6e696168 6564203a 6f6c6c61     _dechain: deallo
    b3c8:	65746163 70252064 73612820 20746920     cated %p (as it 
    b3d8:	6e207369 6f6c206f 7265676e 66657220     is no longer ref
    b3e8:	6e657265 29646563 6270000a 635f6675     erenced)..pbuf_c
    b3f8:	2879706f 202c7025 0a297025 75627000     opy(%p, %p)..pbu
    b408:	6f635f66 203a7970 67726174 6e207465     f_copy: target n
    b418:	6220746f 65206769 67756f6e 6f742068     ot big enough to
    b428:	6c6f6820 6f732064 65637275 745f7000      hold source.p_t
    b438:	3d21206f 4c554e20 6270004c 635f6675     o != NULL.pbuf_c
    b448:	2879706f 6f642029 6e207365 6120746f     opy() does not a
    b458:	776f6c6c 63617020 2074656b 75657571     llow packet queu
    b468:	0a217365 75627000 6f635f66 203a7970     es!..pbuf_copy: 
    b478:	20646e65 6320666f 6e696168 61657220     end of chain rea
    b488:	64656863 6270002e 635f6675 5f79706f     ched..pbuf_copy_
    b498:	74726170 3a6c6169 766e6920 64696c61     partial: invalid
    b4a8:	66756220 75627000 6f635f66 705f7970      buf.pbuf_copy_p
    b4b8:	69747261 203a6c61 61766e69 2064696c     artial: invalid 
    b4c8:	61746164 00727470 66756270 6b61745f     dataptr.pbuf_tak
    b4d8:	69203a65 6c61766e 62206469 70006675     e: invalid buf.p
    b4e8:	5f667562 656b6174 6e69203a 696c6176     buf_take: invali
    b4f8:	61642064 74706174 00000072              d dataptr...

0000b504 <tcp_pcb_lists>:
    b504:	20009094 2000909c 2000908c 200090a0     ... ... ... ... 

0000b514 <tcp_persist_backoff>:
    b514:	180c0603 01786030                                ....0`x

0000b51b <tcp_backoff>:
    b51b:	04030201 07070605 07070707 00b94707              .............

0000b528 <tcp_state_str>:
    b528:	0000b947 0000af17 0000bb9f 0000bba8     G...............
    b538:	0000bbb1 0000bbbd 0000bbc8 0000bbd3     ................
    b548:	0000bbde 0000bbe6 0000bbef 6c2f2e2e     ............../l
    b558:	2f706977 7069776c 342e312d 732f302e     wip/lwip-1.4.0/s
    b568:	632f6372 2f65726f 2e706374 63740063     rc/core/tcp.c.tc
    b578:	69625f70 203a646e 206e6163 796c6e6f     p_bind: can only
    b588:	6e696220 6e692064 61747320 43206574      bind in state C
    b598:	45534f4c 63740044 69625f70 203a646e     LOSED.tcp_bind: 
    b5a8:	646e6962 206f7420 74726f70 75682520     bind to port %hu
    b5b8:	6374000a 696c5f70 6e657473 6370203a     ..tcp_listen: pc
    b5c8:	6c612062 64616572 6f632079 63656e6e     b already connec
    b5d8:	00646574 5f706374 76636572 203a6465     ted.tcp_recved: 
    b5e8:	76636572 65766965 68252064 79622075     recveived %hu by
    b5f8:	2c736574 646e7720 75682520 68252820     tes, wnd %hu (%h
    b608:	0a2e2975 70637400 6263705f 7275705f     u)...tcp_pcb_pur
    b618:	74006567 705f7063 705f6263 65677275     ge.tcp_pcb_purge
    b628:	6164203a 6c206174 20746665 2d206e6f     : data left on -
    b638:	6665723e 64657375 7461645f 63740061     >refused_data.tc
    b648:	63705f70 75705f62 3a656772 746f6e20     p_pcb_purge: not
    b658:	6c6c6120 74616420 65732061 7400746e      all data sent.t
    b668:	705f7063 705f6263 65677275 6164203a     cp_pcb_purge: da
    b678:	6c206174 20746665 2d206e6f 616e753e     ta left on ->una
    b688:	64656b63 70637400 6263705f 7275705f     cked.tcp_pcb_pur
    b698:	203a6567 61746164 66656c20 6e6f2074     ge: data left on
    b6a8:	6f3e2d20 7165736f 70637400 6f6c735f      ->ooseq.tcp_slo
    b6b8:	726d7477 6f6e203a 74636120 20657669     wtmr: no active 
    b6c8:	73626370 70637400 6f6c735f 726d7477     pcbs.tcp_slowtmr
    b6d8:	7270203a 7365636f 676e6973 74636120     : processing act
    b6e8:	20657669 00626370 5f706374 776f6c73     ive pcb.tcp_slow
    b6f8:	3a726d74 78616d20 4e595320 74657220     tmr: max SYN ret
    b708:	73656972 61657220 64656863 70637400     ries reached.tcp
    b718:	6f6c735f 726d7477 616d203a 41442078     _slowtmr: max DA
    b728:	72204154 69727465 72207365 68636165     TA retries reach
    b738:	74006465 735f7063 74776f6c 203a726d     ed.tcp_slowtmr: 
    b748:	6d697472 68252065 63702064 723e2d62     rtime %hd pcb->r
    b758:	25206f74 000a6468 5f706374 776f6c73     to %hd..tcp_slow
    b768:	3a726d74 6d657220 6e69766f 63702067     tmr: removing pc
    b778:	74732062 206b6375 46206e69 572d4e49     b stuck in FIN-W
    b788:	2d544941 63740032 6c735f70 6d74776f     AIT-2.tcp_slowtm
    b798:	4b203a72 41504545 4556494c 6d697420     r: KEEPALIVE tim
    b7a8:	74756f65 6241202e 6974726f 6320676e     eout. Aborting c
    b7b8:	656e6e6f 6f697463 6f74206e 75682520     onnection to %hu
    b7c8:	7568252e 7568252e 7568252e 74000a2e     .%hu.%hu.%hu...t
    b7d8:	735f7063 74776f6c 203a726d 6f6d6572     cp_slowtmr: remo
    b7e8:	676e6976 62637020 75747320 69206b63     ving pcb stuck i
    b7f8:	5953206e 43522d4e 74004456 735f7063     n SYN-RCVD.tcp_s
    b808:	74776f6c 203a726d 6f6d6572 676e6976     lowtmr: removing
    b818:	62637020 75747320 69206b63 414c206e      pcb stuck in LA
    b828:	412d5453 74004b43 735f7063 74776f6c     ST-ACK.tcp_slowt
    b838:	203a726d 6c6c6f70 20676e69 6c707061     mr: polling appl
    b848:	74616369 006e6f69 5f706374 6f6c6c61     ication.tcp_allo
    b858:	6b203a63 696c6c69 6f20676e 6f206666     c: killing off o
    b868:	7365646c 49542074 572d454d 20544941     ldest TIME-WAIT 
    b878:	6e6e6f63 69746365 74006e6f 6b5f7063     connection.tcp_k
    b888:	5f6c6c69 656d6974 74696177 696b203a     ill_timewait: ki
    b898:	6e696c6c 6c6f2067 74736564 4d495420     lling oldest TIM
    b8a8:	41572d45 50205449 25204243 25282070     E-WAIT PCB %p (%
    b8b8:	000a2964 5f706374 6f6c6c61 6b203a63     d)..tcp_alloc: k
    b8c8:	696c6c69 6320676e 656e6e6f 6f697463     illing connectio
    b8d8:	6977206e 70206874 206f6972 65776f6c     n with prio lowe
    b8e8:	68742072 25206e61 74000a64 6b5f7063     r than %d..tcp_k
    b8f8:	5f6c6c69 6f697270 696b203a 6e696c6c     ill_prio: killin
    b908:	6c6f2067 74736564 42435020 20702520     g oldest PCB %p 
    b918:	29642528 6374000a 6f635f70 63656e6e     (%d)..tcp_connec
    b928:	63203a74 6f206e61 20796c6e 6e6e6f63     t: can only conn
    b938:	20746365 6d6f7266 61747320 43206574     ect from state C
    b948:	45534f4c 63740044 6f635f70 63656e6e     LOSED.tcp_connec
    b958:	6f742074 726f7020 68252074 53000a75     t to port %hu..S
    b968:	65746174 7325203a 6374000a 6c635f70     tate: %s..tcp_cl
    b978:	3a65736f 6f6c6320 676e6973 206e6920     ose: closing in 
    b988:	70637400 706e695f 203a7475 69746f6e     .tcp_input: noti
    b998:	6b207966 20747065 6b636170 74007465     fy kept packet.t
    b9a8:	695f7063 7475706e 7264203a 6920706f     cp_input: drop i
    b9b8:	6d6f636e 20676e69 6b636170 2c737465     ncoming packets,
    b9c8:	63656220 65737561 62637020 20736920      because pcb is 
    b9d8:	6c756622 7400226c 665f7063 74747361     "full".tcp_fastt
    b9e8:	203a726d 616c6564 20646579 004b4341     mr: delayed ACK.
    b9f8:	204e4946 4e595300 53520020 50002054     FIN .SYN .RST .P
    ba08:	00204853 204b4341 47525500 43450020     SH .ACK .URG .EC
    ba18:	43002045 00205257 20504354 64616568     E .CWR .TCP head
    ba28:	003a7265 2020207c 68352520 20202075     er:.|    %5hu   
    ba38:	7c202020 20202020 75683525 20202020        |    %5hu    
    ba48:	207c2020 63727328 726f7020 64202c74       | (src port, d
    ba58:	20747365 74726f70 7c000a29 20202020     est port)..|    
    ba68:	20202020 25202020 75303130 20202020            %010u    
    ba78:	20202020 207c2020 71657328 296f6e20           | (seq no)
    ba88:	207c000a 20202020 20202020 30252020     ..|           %0
    ba98:	20753031 20202020 20202020 28207c20     10u          | (
    baa8:	206b6361 0a296f6e 25207c00 20756832     ack no)..| %2hu 
    bab8:	2020207c 7568257c 25756825 68257568     |   |%hu%hu%hu%h
    bac8:	75682575 7c756825 20202020 68352520     u%hu%hu|     %5h
    bad8:	20202075 207c2020 72646828 2c6e656c     u     | (hdrlen,
    bae8:	616c6620 28207367 202c2900 296e6977      flags (.), win)
    baf8:	20207c00 78302020 68343025 20202078     .|    0x%04hx   
    bb08:	207c2020 20202020 75683525 20202020       |     %5hu    
    bb18:	28207c20 736b6863 202c6d75 70677275      | (chksum, urgp
    bb28:	41000a29 76697463 43502065 74732042     )..Active PCB st
    bb38:	73657461 6f4c003a 206c6163 74726f70     ates:.Local port
    bb48:	75682520 6f66202c 67696572 6f70206e      %hu, foreign po
    bb58:	25207472 73207568 6e5f646e 25207478     rt %hu snd_nxt %
    bb68:	63722075 786e5f76 75252074 694c0020     u rcv_nxt %u .Li
    bb78:	6e657473 42435020 61747320 3a736574     sten PCB states:
    bb88:	4d495400 41572d45 50205449 73204243     .TIME-WAIT PCB s
    bb98:	65746174 53003a73 535f4e59 00544e45     tates:.SYN_SENT.
    bba8:	5f4e5953 44564352 54534500 494c4241     SYN_RCVD.ESTABLI
    bbb8:	44454853 4e494600 4941575f 00315f54     SHED.FIN_WAIT_1.
    bbc8:	5f4e4946 54494157 4300325f 45534f4c     FIN_WAIT_2.CLOSE
    bbd8:	4941575f 4c430054 4e49534f 414c0047     _WAIT.CLOSING.LA
    bbe8:	415f5453 54004b43 5f454d49 54494157     ST_ACK.TIME_WAIT
    bbf8:	70637400 6365725f 65766965 4341203a     .tcp_receive: AC
    bc08:	6f66204b 75252072 6e75202c 656b6361     K for %u, unacke
    bc18:	733e2d64 6f6e7165 3a752520 000a7525     d->seqno %u:%u..
    bc28:	5f706374 65636572 3a657669 6d657220     tcp_receive: rem
    bc38:	6e69766f 75252067 2075253a 6d6f7266     oving %u:%u from
    bc48:	62637020 6e753e2d 656b6361 74000a64      pcb->unacked..t
    bc58:	725f7063 69656365 203a6576 6f6d6572     cp_receive: remo
    bc68:	676e6976 3a752520 66207525 206d6f72     ving %u:%u from 
    bc78:	2d626370 736e753e 0a746e65 70637400     pcb->unsent..tcp
    bc88:	6365725f 65766965 6370203a 723e2d62     _receive: pcb->r
    bc98:	73657474 75252074 73747220 25207165     ttest %u rtseq %
    bca8:	63612075 206f6e6b 000a7525 5f706374     u ackno %u..tcp_
    bcb8:	65636572 3a657669 70786520 65697265     receive: experie
    bcc8:	6465636e 74747220 75682520 63697420     nced rtt %hu tic
    bcd8:	2820736b 20756825 6365736d 000a2e29     ks (%hu msec)...
    bce8:	5f706374 65636572 3a657669 4f545220     tcp_receive: RTO
    bcf8:	75682520 68252820 696d2075 73696c6c      %hu (%hu millis
    bd08:	6e6f6365 0a297364 70637400 6365725f     econds)..tcp_rec
    bd18:	65766965 7564203a 63696c70 20657461     eive: duplicate 
    bd28:	6e716573 7525206f 6374000a 65725f70     seqno %u..tcp_re
    bd38:	76696563 6f203a65 72656874 646e6520     ceive: other end
    bd48:	65766f20 6e617272 63657220 65766965      overran receive
    bd58:	6e697720 73776f64 6f6e7165 20752520      windowseqno %u 
    bd68:	206e656c 20756825 68676972 64652074     len %hu right ed
    bd78:	25206567 74000a75 725f7063 69656365     ge %u..tcp_recei
    bd88:	203a6576 65636572 64657669 2d6e6920     ve: received in-
    bd98:	6564726f 49462072 62202c4e 696e6e69     order FIN, binni
    bda8:	6f20676e 7165736f 65757120 74006575     ng ooseq queue.t
    bdb8:	725f7063 69656365 203a6576 65636572     cp_receive: rece
    bdc8:	64657669 4e494620 6374002e 65725f70     ived FIN..tcp_re
    bdd8:	76696563 64203a65 65757165 20646575     ceive: dequeued 
    bde8:	2e4e4946 70637400 7261705f 706f6573     FIN..tcp_parseop
    bdf8:	45203a74 74004c4f 705f7063 65737261     t: EOL.tcp_parse
    be08:	3a74706f 504f4e20 70637400 7261705f     opt: NOP.tcp_par
    be18:	706f6573 4d203a74 74005353 705f7063     seopt: MSS.tcp_p
    be28:	65737261 3a74706f 64616220 6e656c20     arseopt: bad len
    be38:	00687467 5f706374 73726170 74706f65     gth.tcp_parseopt
    be48:	746f203a 00726568 5f706374 75706e69     : other.tcp_inpu
    be58:	73203a74 74726f68 63617020 2074656b     t: short packet 
    be68:	75682528 74796220 20297365 63736964     (%hu bytes) disc
    be78:	65647261 74000a64 695f7063 7475706e     arded..tcp_input
    be88:	6170203a 74656b63 73696420 64726163     : packet discard
    be98:	64206465 74206575 6166206f 6e696c69     ed due to failin
    bea8:	68632067 736b6365 30206d75 34302578     g checksum 0x%04
    beb8:	000a7868 5f706374 75706e69 73203a74     hx..tcp_input: s
    bec8:	74726f68 63617020 0074656b 5f706374     hort packet.tcp_
    bed8:	75706e69 70203a74 656b6361 6f662064     input: packed fo
    bee8:	49542072 575f454d 69544941 6320676e     r TIME_WAITing c
    bef8:	656e6e6f 6f697463 74002e6e 695f7063     onnection..tcp_i
    bf08:	7475706e 6170203a 64656b63 726f6620     nput: packed for
    bf18:	53494c20 694e4554 6320676e 656e6e6f      LISTENing conne
    bf28:	6f697463 54002e6e 63205043 656e6e6f     ction..TCP conne
    bf38:	6f697463 6572206e 73657571 68252074     ction request %h
    bf48:	3e2d2075 75682520 74000a2e 6c5f7063     u -> %hu...tcp_l
    bf58:	65747369 6e695f6e 3a747570 756f6320     isten_input: cou
    bf68:	6e20646c 6120746f 636f6c6c 20657461     ld not allocate 
    bf78:	00424350 2d2b2d2b 2d2b2d2b 2d2b2d2b     PCB.+-+-+-+-+-+-
    bf88:	2d2b2d2b 2d2b2d2b 2d2b2d2b 2d2b2d2b     +-+-+-+-+-+-+-+-
    bf98:	70637420 706e695f 203a7475 67616c66      tcp_input: flag
    bfa8:	2d002073 2d2b2d2b 2d2b2d2b 2d2b2d2b     s .-+-+-+-+-+-+-
    bfb8:	2d2b2d2b 2d2b2d2b 2d2b2d2b 002b2d2b     +-+-+-+-+-+-+-+.
    bfc8:	2d4e5953 544e4553 6361203a 206f6e6b     SYN-SENT: ackno 
    bfd8:	70207525 3e2d6263 5f646e73 2074786e     %u pcb->snd_nxt 
    bfe8:	75207525 6b63616e 25206465 54000a75     %u unacked %u..T
    bff8:	63205043 656e6e6f 6f697463 7365206e     CP connection es
    c008:	6c626174 65687369 68252064 3e2d2075     tablished %hu ->
    c018:	75682520 54000a2e 63205043 656e6e6f      %hu...TCP conne
    c028:	6f697463 6c63206e 6465736f 4946203a     ction closed: FI
    c038:	41575f4e 315f5449 75682520 203e2d20     N_WAIT_1 %hu -> 
    c048:	2e756825 4354000a 6f632050 63656e6e     %hu...TCP connec
    c058:	6e6f6974 6f6c6320 3a646573 4e494620     tion closed: FIN
    c068:	4941575f 20325f54 20756825 25203e2d     _WAIT_2 %hu -> %
    c078:	0a2e7568 50435400 6e6f6320 7463656e     hu...TCP connect
    c088:	206e6f69 736f6c63 203a6465 534f4c43     ion closed: CLOS
    c098:	20474e49 20756825 25203e2d 0a2e7568     ING %hu -> %hu..
    c0a8:	50435400 6e6f6320 7463656e 206e6f69     .TCP connection 
    c0b8:	736f6c63 203a6465 5453414c 4b43415f     closed: LAST_ACK
    c0c8:	75682520 203e2d20 2e756825 6374000a      %hu -> %hu...tc
    c0d8:	6e695f70 3a747570 65656b20 6e692070     p_input: keep in
    c0e8:	696d6f63 7020676e 656b6361 62202c74     coming packet, b
    c0f8:	75616365 70206573 69206263 66222073     ecause pcb is "f
    c108:	226c6c75 70637400 6f72705f 73736563     ull".tcp_process
    c118:	6f43203a 63656e6e 6e6f6974 53455220     : Connection RES
    c128:	74005445 705f7063 65636f72 203a7373     ET.tcp_process: 
    c138:	63616e75 74706563 656c6261 73657220     unacceptable res
    c148:	73207465 6f6e7165 20752520 5f766372     et seqno %u rcv_
    c158:	2074786e 000a7525 5f706374 61657263     nxt %u..tcp_crea
    c168:	735f6574 656d6765 203a746e 6d206f6e     te_segment: no m
    c178:	726f6d65 74002e79 635f7063 74616572     emory..tcp_creat
    c188:	65735f65 6e656d67 6e203a74 6f72206f     e_segment: no ro
    c198:	66206d6f 5420726f 68205043 65646165     om for TCP heade
    c1a8:	6e692072 75627020 74002e66 775f7063     r in pbuf..tcp_w
    c1b8:	65746972 62637028 2c70253d 74616420     rite(pcb=%p, dat
    c1c8:	70253d61 656c202c 68253d6e 61202c75     a=%p, len=%hu, a
    c1d8:	6c666970 3d736761 29756825 2e2e000a     piflags=%hu)....
    c1e8:	69776c2f 776c2f70 312d7069 302e342e     /lwip/lwip-1.4.0
    c1f8:	6372732f 726f632f 63742f65 756f5f70     /src/core/tcp_ou
    c208:	00632e74 5f706374 74697277 61203a65     t.c.tcp_write: a
    c218:	3d206772 554e203d 28204c4c 676f7270     rg == NULL (prog
    c228:	6d6d6172 76207265 616c6f69 20736574     rammer violates 
    c238:	29495041 70637400 6972775f 29286574     API).tcp_write()
    c248:	6c616320 2064656c 69206e69 6c61766e      called in inval
    c258:	73206469 65746174 70637400 6972775f     id state.tcp_wri
    c268:	203a6574 206f6f74 6863756d 74616420     te: too much dat
    c278:	6c282061 253d6e65 3e207568 646e7320     a (len=%hu > snd
    c288:	6675625f 7568253d 74000a29 775f7063     _buf=%hu)..tcp_w
    c298:	65746972 6f74203a 6f6c206f 7120676e     rite: too long q
    c2a8:	65756575 75682520 616d2820 68252078     ueue %hu (max %h
    c2b8:	000a2975 5f706374 74697277 203a2065     u)..tcp_write : 
    c2c8:	6c756f63 6f6e2064 6c612074 61636f6c     could not alloca
    c2d8:	6d206574 726f6d65 6f662079 62702072     te memory for pb
    c2e8:	63206675 2079706f 657a6973 75682520     uf copy size %hu
    c2f8:	6374000a 72775f70 3a657469 756f6320     ..tcp_write: cou
    c308:	6e20646c 6120746f 636f6c6c 20657461     ld not allocate 
    c318:	6f6d656d 66207972 7a20726f 2d6f7265     memory for zero-
    c328:	79706f63 75627020 63740066 72775f70     copy pbuf.tcp_wr
    c338:	3a657469 756f6320 6e20646c 6120746f     ite: could not a
    c348:	636f6c6c 20657461 6f6d656d 66207972     llocate memory f
    c358:	6820726f 65646165 62702072 74006675     or header pbuf.t
    c368:	775f7063 65746972 7571203a 20657565     cp_write: queue 
    c378:	206f6f74 676e6f6c 75682520 68252820     too long %hu (%h
    c388:	000a2975 5f706374 74697277 71203a65     u)..tcp_write: q
    c398:	65756575 20676e69 253a7525 74000a75     ueueing %u:%u..t
    c3a8:	655f7063 6575716e 665f6575 7367616c     cp_enqueue_flags
    c3b8:	6f74203a 6f6c206f 7120676e 65756575     : too long queue
    c3c8:	75682520 616d2820 68252078 000a2975      %hu (max %hu)..
    c3d8:	5f706374 75716e65 5f657565 67616c66     tcp_enqueue_flag
    c3e8:	6e203a73 6573206f 6220646e 65666675     s: no send buffe
    c3f8:	76612072 616c6961 00656c62 5f706374     r available.tcp_
    c408:	75716e65 5f657565 67616c66 71203a73     enqueue_flags: q
    c418:	65756575 20676e69 253a7525 30282075     ueueing %u:%u (0
    c428:	78682578 74000a29 6f5f7063 75707475     x%hx)..tcp_outpu
    c438:	28203a74 294b4341 756f6320 6e20646c     t: (ACK) could n
    c448:	6120746f 636f6c6c 20657461 66756270     ot allocate pbuf
    c458:	70637400 74756f5f 3a747570 6e657320     .tcp_output: sen
    c468:	676e6964 4b434120 726f6620 0a752520     ding ACK for %u.
    c478:	70637400 74756f5f 3a747570 746f6e20     .tcp_output: not
    c488:	676e6968 206f7420 646e6573 70252820     hing to send (%p
    c498:	74000a29 6f5f7063 75707475 65735f74     )..tcp_output_se
    c4a8:	6e656d67 72203a74 71657374 0a752520     gment: rtseq %u.
    c4b8:	70637400 74756f5f 5f747570 6d676573     .tcp_output_segm
    c4c8:	3a746e65 3a752520 000a7525 5f706374     ent: %u:%u..tcp_
    c4d8:	3a747372 756f6320 6e20646c 6120746f     rst: could not a
    c4e8:	636f6c6c 20657461 6f6d656d 66207972     llocate memory f
    c4f8:	7020726f 00667562 5f706374 65636572     or pbuf.tcp_rece
    c508:	3a657669 70756420 736b6361 75682520     ive: dupacks %hu
    c518:	75252820 66202c29 20747361 72746572      (%u), fast retr
    c528:	6d736e61 25207469 74000a75 725f7063     ansmit %u..tcp_r
    c538:	69656365 203a6576 20656854 696e696d     eceive: The mini
    c548:	206d756d 756c6176 6f662065 73732072     mum value for ss
    c558:	65726874 25206873 73207568 6c756f68     thresh %hu shoul
    c568:	65622064 6e696d20 6d203220 25207373     d be min 2 mss %
    c578:	2e2e7568 74000a2e 6b5f7063 61706565     hu.....tcp_keepa
    c588:	6576696c 6573203a 6e69646e 454b2067     live: sending KE
    c598:	4c415045 20455649 626f7270 6f742065     EPALIVE probe to
    c5a8:	75682520 7568252e 7568252e 7568252e      %hu.%hu.%hu.%hu
    c5b8:	6374000a 656b5f70 6c617065 3a657669     ..tcp_keepalive:
    c5c8:	70637420 6369745f 2520736b 20202075      tcp_ticks %u   
    c5d8:	2d626370 726d743e 20752520 2d626370     pcb->tmr %u pcb-
    c5e8:	65656b3e 6e635f70 65735f74 2520746e     >keep_cnt_sent %
    c5f8:	000a7568 5f706374 7065656b 76696c61     hu..tcp_keepaliv
    c608:	63203a65 646c756f 746f6e20 6c6c6120     e: could not all
    c618:	7461636f 656d2065 79726f6d 726f6620     ocate memory for
    c628:	75627020 63740066 656b5f70 6c617065      pbuf.tcp_keepal
    c638:	3a657669 71657320 25206f6e 63612075     ive: seqno %u ac
    c648:	206f6e6b 0a2e7525 70637400 72657a5f     kno %u...tcp_zer
    c658:	69775f6f 776f646e 6f72705f 203a6562     o_window_probe: 
    c668:	646e6573 20676e69 4f52455a 4e495720     sending ZERO WIN
    c678:	20574f44 626f7270 6f742065 75682520     DOW probe to %hu
    c688:	7568252e 7568252e 7568252e 6374000a     .%hu.%hu.%hu..tc
    c698:	657a5f70 775f6f72 6f646e69 72705f77     p_zero_window_pr
    c6a8:	3a65626f 70637420 6369745f 2520736b     obe: tcp_ticks %
    c6b8:	20202075 2d626370 726d743e 20752520     u   pcb->tmr %u 
    c6c8:	2d626370 65656b3e 6e635f70 65735f74     pcb->keep_cnt_se
    c6d8:	2520746e 000a7568 5f706374 6f72657a     nt %hu..tcp_zero
    c6e8:	6e69775f 5f776f64 626f7270 6e203a65     _window_probe: n
    c6f8:	656d206f 79726f6d 726f6620 75627020     o memory for pbu
    c708:	63740066 657a5f70 775f6f72 6f646e69     f.tcp_zero_windo
    c718:	72705f77 3a65626f 71657320 25206f6e     w_probe: seqno %
    c728:	63612075 206f6e6b 0a2e7525 70637400     u ackno %u...tcp
    c738:	745f7069 745f7063 72656d69 5f706900     ip_tcp_timer.ip_
    c748:	73616572 69745f73 0072656d 70636864     reass_timer.dhcp
    c758:	6d69745f 635f7265 7372616f 68640065     _timer_coarse.dh
    c768:	745f7063 72656d69 6e69665f 64750065     cp_timer_fine.ud
    c778:	69625f70 6928646e 64646170 203d2072     p_bind(ipaddr = 
    c788:	70202c00 2074726f 6825203d 000a2975     ., port = %hu)..
    c798:	5f706475 646e6962 6f6c203a 206c6163     udp_bind: local 
    c7a8:	74726f70 75682520 726c6120 79646165     port %hu already
    c7b8:	756f6220 6220646e 6e612079 6568746f      bound by anothe
    c7c8:	63702072 75000a62 625f7064 3a646e69     r pcb..udp_bind:
    c7d8:	74756f20 20666f20 65657266 50445520      out of free UDP
    c7e8:	726f7020 75007374 625f7064 3a646e69      ports.udp_bind:
    c7f8:	756f6220 7420646e 6825206f 68252e75      bound to %hu.%h
    c808:	68252e75 68252e75 70202c75 2074726f     u.%hu.%hu, port 
    c818:	0a756825 70647500 6e65735f 6e203a64     %hu..udp_send: n
    c828:	7920746f 62207465 646e756f 206f7420     ot yet bound to 
    c838:	6f702061 202c7472 646e6962 20676e69     a port, binding 
    c848:	00776f6e 5f706475 646e6573 6f66203a     now.udp_send: fo
    c858:	64656372 726f7020 69622074 6620646e     rced port bind f
    c868:	656c6961 64750064 65735f70 203a646e     ailed.udp_send: 
    c878:	6c756f63 6f6e2064 6c612074 61636f6c     could not alloca
    c888:	68206574 65646165 64750072 65735f70     te header.udp_se
    c898:	203a646e 65646461 65682064 72656461     nd: added header
    c8a8:	75627020 70252066 66656220 2065726f      pbuf %p before 
    c8b8:	65766967 6270206e 25206675 75000a70     given pbuf %p..u
    c8c8:	735f7064 3a646e65 64646120 68206465     dp_send: added h
    c8d8:	65646165 6e692072 76696720 70206e65     eader in given p
    c8e8:	20667562 000a7025 5f706475 646e6573     buf %p..udp_send
    c8f8:	6573203a 6e69646e 61642067 72676174     : sending datagr
    c908:	6f206d61 656c2066 6874676e 75682520     am of length %hu
    c918:	6475000a 65735f70 203a646e 20504455     ..udp_send: UDP 
    c928:	6b636170 6c207465 74676e65 68252068     packet length %h
    c938:	75000a75 735f7064 3a646e65 50445520     u..udp_send: UDP
    c948:	65686320 75736b63 7830206d 68343025      checksum 0x%04h
    c958:	75000a78 735f7064 3a646e65 5f706920     x..udp_send: ip_
    c968:	7074756f 695f7475 2c282066 492c2c2c     output_if (,,,,I
    c978:	52505f50 5f4f544f 2c504455 64750029     P_PROTO_UDP,).ud
    c988:	65735f70 7500646e 735f7064 3a646e65     p_send.udp_send:
    c998:	206f4e20 74756f72 6f742065 75682520      No route to %hu
    c9a8:	7568252e 7568252e 7568252e 6475000a     .%hu.%hu.%hu..ud
    c9b8:	6f635f70 63656e6e 63203a74 656e6e6f     p_connect: conne
    c9c8:	64657463 206f7420 2e756825 2e756825     cted to %hu.%hu.
    c9d8:	2e756825 2c756825 74726f70 75682520     %hu.%hu,port %hu
    c9e8:	4455000a 65682050 72656461 207c003a     ..UDP header:.| 
    c9f8:	20202020 75683525 20202020 20207c20         %5hu     |  
    ca08:	25202020 20756835 20202020 7328207c        %5hu     | (s
    ca18:	70206372 2c74726f 73656420 6f702074     rc port, dest po
    ca28:	0a297472 20207c00 25202020 20756835     rt)..|     %5hu 
    ca38:	20202020 2020207c 78302020 68343025         |     0x%04h
    ca48:	20202078 28207c20 2c6e656c 6b686320     x    | (len, chk
    ca58:	296d7573 6475000a 6e695f70 3a747570     sum)..udp_input:
    ca68:	6f687320 55207472 64205044 67617461      short UDP datag
    ca78:	206d6172 75682528 74796220 20297365     ram (%hu bytes) 
    ca88:	63736964 65647261 75000a64 695f7064     discarded..udp_i
    ca98:	7475706e 6572203a 76696563 64206465     nput: received d
    caa8:	67617461 206d6172 6c20666f 74676e65     atagram of lengt
    cab8:	68252068 75000a75 28207064 2e756825     h %hu..udp (%hu.
    cac8:	2e756825 2e756825 2c756825 75682520     %hu.%hu.%hu, %hu
    cad8:	2d3c2029 2528202d 252e7568 252e7568     ) <-- (%hu.%hu.%
    cae8:	252e7568 202c7568 29756825 6370000a     hu.%hu, %hu)..pc
    caf8:	25282062 252e7568 252e7568 252e7568     b (%hu.%hu.%hu.%
    cb08:	202c7568 29756825 2d2d2d20 68252820     hu, %hu) --- (%h
    cb18:	68252e75 68252e75 68252e75 25202c75     u.%hu.%hu.%hu, %
    cb28:	0a297568 70647500 706e695f 203a7475     hu)..udp_input: 
    cb38:	636c6163 74616c75 20676e69 63656863     calculating chec
    cb48:	6d75736b 70647500 706e695f 203a7475     ksum.udp_input: 
    cb58:	20504455 61746164 6d617267 73696420     UDP datagram dis
    cb68:	64726163 64206465 74206575 6166206f     carded due to fa
    cb78:	6e696c69 68632067 736b6365 75006d75     iling checksum.u
    cb88:	695f7064 7475706e 6f6e203a 6f662074     dp_input: not fo
    cb98:	73752072 0000002e                                r us..

0000cb9e <ethzero>:
    cb9e:	00000000 ffff0000                                ......

0000cba4 <ethbroadcast>:
    cba4:	ffffffff 7465ffff 70726168 6572665f     ......etharp_fre
    cbb4:	6e655f65 3a797274 65726620 676e6965     e_entry: freeing
    cbc4:	746e6520 25207972 202c7568 6b636170      entry %hu, pack
    cbd4:	71207465 65756575 2e702520 7465000a     et queue %p...et
    cbe4:	70726168 6e69665f 6e655f64 3a797274     harp_find_entry:
    cbf4:	756f6620 6520646e 7974706d 746e6520      found empty ent
    cc04:	25207972 000a7568 61687465 665f7072     ry %hu..etharp_f
    cc14:	5f646e69 72746e65 66203a79 646e756f     ind_entry: found
    cc24:	74616d20 6e696863 6e652067 20797274      matching entry 
    cc34:	0a756825 68746500 5f707261 646e6966     %hu..etharp_find
    cc44:	746e655f 203a7972 65206f6e 7974706d     _entry: no empty
    cc54:	746e6520 66207972 646e756f 646e6120      entry found and
    cc64:	746f6e20 6c6c6120 6465776f 206f7420      not allowed to 
    cc74:	79636572 00656c63 61687465 665f7072     recycle.etharp_f
    cc84:	5f646e69 72746e65 73203a79 63656c65     ind_entry: selec
    cc94:	676e6974 706d6520 65207974 7972746e     ting empty entry
    cca4:	75682520 7465000a 70726168 6e69665f      %hu..etharp_fin
    ccb4:	6e655f64 3a797274 6c657320 69746365     d_entry: selecti
    ccc4:	6f20676e 7365646c 74732074 656c6261     ng oldest stable
    ccd4:	746e6520 25207972 000a7568 61687465      entry %hu..etha
    cce4:	665f7072 5f646e69 72746e65 73203a79     rp_find_entry: s
    ccf4:	63656c65 676e6974 646c6f20 20747365     electing oldest 
    cd04:	646e6570 20676e69 72746e65 68252079     pending entry %h
    cd14:	77282075 6f687469 71207475 65756575     u (without queue
    cd24:	65000a29 72616874 69665f70 655f646e     )..etharp_find_e
    cd34:	7972746e 6573203a 7463656c 20676e69     ntry: selecting 
    cd44:	65646c6f 70207473 69646e65 6520676e     oldest pending e
    cd54:	7972746e 75682520 7266202c 6e696565     ntry %hu, freein
    cd64:	61702067 74656b63 65757120 25206575     g packet queue %
    cd74:	65000a70 72616874 69665f70 655f646e     p..etharp_find_e
    cd84:	7972746e 6f6e203a 706d6520 6f207974     ntry: no empty o
    cd94:	65722072 6c637963 656c6261 746e6520     r recyclable ent
    cda4:	73656972 756f6620 6500646e 72616874     ries found.ethar
    cdb4:	65735f70 695f646e 73203a70 69646e65     p_send_ip: sendi
    cdc4:	7020676e 656b6361 70252074 7473000a     ng packet %p..st
    cdd4:	656c6261 6e657000 676e6964 68746500     able.pending.eth
    cde4:	5f707261 656d6974 74650072 70726168     arp_timer.etharp
    cdf4:	6d69745f 203a7265 69707865 20646572     _timer: expired 
    ce04:	65207325 7972746e 75682520 65000a2e     %s entry %hu...e
    ce14:	72616874 65725f70 73657571 73203a74     tharp_request: s
    ce24:	69646e65 4120676e 72205052 65757165     ending ARP reque
    ce34:	002e7473 61687465 725f7072 203a7761     st..etharp_raw: 
    ce44:	6c756f63 6f6e2064 6c612074 61636f6c     could not alloca
    ce54:	70206574 20667562 20726f66 20505241     te pbuf for ARP 
    ce64:	75716572 2e747365 68746500 5f707261     request..etharp_
    ce74:	3a776172 6e657320 676e6964 77617220     raw: sending raw
    ce84:	50524120 63617020 2e74656b 68746500      ARP packet..eth
    ce94:	5f707261 72657571 77203a79 206c6c69     arp_query: will 
    cea4:	20746f6e 20646461 2d6e6f6e 63696e75     not add non-unic
    ceb4:	20747361 61205049 65726464 74207373     ast IP address t
    cec4:	5241206f 61632050 00656863 61687465     o ARP cache.etha
    ced4:	715f7072 79726575 6f63203a 20646c75     rp_query: could 
    cee4:	20746f6e 61657263 41206574 65205052     not create ARP e
    cef4:	7972746e 68746500 5f707261 72657571     ntry.etharp_quer
    cf04:	70203a79 656b6361 72642074 6570706f     y: packet droppe
    cf14:	74650064 70726168 6575715f 203a7972     d.etharp_query: 
    cf24:	706f7264 20646570 76657270 73756f69     dropped previous
    cf34:	7120796c 65756575 61702064 74656b63     ly queued packet
    cf44:	20702520 20726f66 20505241 72746e65      %p for ARP entr
    cf54:	68252079 65000a64 72616874 75715f70     y %hd..etharp_qu
    cf64:	3a797265 65757120 20646575 6b636170     ery: queued pack
    cf74:	25207465 6e6f2070 50524120 746e6520     et %p on ARP ent
    cf84:	25207972 000a6468 61687465 715f7072     ry %hd..etharp_q
    cf94:	79726575 6f63203a 20646c75 20746f6e     uery: could not 
    cfa4:	75657571 20612065 79706f63 20666f20     queue a copy of 
    cfb4:	46554250 4645525f 63617020 2074656b     PBUF_REF packet 
    cfc4:	28207025 2074756f 6d20666f 726f6d65     %p (out of memor
    cfd4:	000a2979 61687465 6f5f7072 75707475     y)..etharp_outpu
    cfe4:	63203a74 646c756f 746f6e20 6c6c6120     t: could not all
    cff4:	7461636f 6f722065 66206d6f 6820726f     ocate room for h
    d004:	65646165 65002e72 72656874 5f74656e     eader..ethernet_
    d014:	75706e69 64203a74 3a747365 78323025     input: dest:%02x
    d024:	3230253a 30253a78 253a7832 3a783230     :%02x:%02x:%02x:
    d034:	78323025 3230253a 73202c78 253a6372     %02x:%02x, src:%
    d044:	3a783230 78323025 3230253a 30253a78     02x:%02x:%02x:%0
    d054:	253a7832 3a783230 78323025 7974202c     2x:%02x:%02x, ty
    d064:	253a6570 000a7868 61687465 615f7072     pe:%hx..etharp_a
    d074:	695f7072 7475706e 6170203a 74656b63     rp_input: packet
    d084:	6f726420 64657070 6f74202c 6873206f      dropped, too sh
    d094:	2074726f 64682528 6468252f 65000a29     ort (%hd/%hd)..e
    d0a4:	72616874 72615f70 6e695f70 3a747570     tharp_arp_input:
    d0b4:	63617020 2074656b 706f7264 2c646570      packet dropped,
    d0c4:	6f727720 6820676e 79742077 202c6570      wrong hw type, 
    d0d4:	656c7768 70202c6e 6f746f72 7270202c     hwlen, proto, pr
    d0e4:	6c6f746f 6f206e65 74652072 6e726568     otolen or ethern
    d0f4:	74207465 20657079 75682528 7568252f     et type (%hu/%hu
    d104:	7568252f 7568252f 65000a29 72616874     /%hu/%hu)..ethar
    d114:	70755f70 65746164 7072615f 746e655f     p_update_arp_ent
    d124:	203a7972 2e756825 2e756825 2e756825     ry: %hu.%hu.%hu.
    d134:	20756825 3025202d 3a786832 68323025     %hu - %02hx:%02h
    d144:	30253a78 3a786832 68323025 30253a78     x:%02hx:%02hx:%0
    d154:	3a786832 68323025 65000a78 72616874     2hx:%02hx..ethar
    d164:	70755f70 65746164 7072615f 746e655f     p_update_arp_ent
    d174:	203a7972 6c6c6977 746f6e20 64646120     ry: will not add
    d184:	6e6f6e20 696e752d 74736163 20504920      non-unicast IP 
    d194:	72646461 20737365 41206f74 63205052     address to ARP c
    d1a4:	65686361 68746500 5f707261 61647075     ache.etharp_upda
    d1b4:	615f6574 655f7072 7972746e 7075203a     te_arp_entry: up
    d1c4:	69746164 7320676e 6c626174 6e652065     dating stable en
    d1d4:	20797274 0a646825 68746500 5f707261     try %hd..etharp_
    d1e4:	5f707261 75706e69 69203a74 6d6f636e     arp_input: incom
    d1f4:	20676e69 20505241 75716572 00747365     ing ARP request.
    d204:	61687465 615f7072 695f7072 7475706e     etharp_arp_input
    d214:	6572203a 69796c70 7420676e 5241206f     : replying to AR
    d224:	65722050 73657571 6f662074 756f2072     P request for ou
    d234:	50492072 64646120 73736572 68746500     r IP address.eth
    d244:	5f707261 5f707261 75706e69 77203a74     arp_arp_input: w
    d254:	72612065 6e752065 666e6f63 72756769     e are unconfigur
    d264:	202c6465 20505241 75716572 20747365     ed, ARP request 
    d274:	6f6e6769 2e646572 68746500 5f707261     ignored..etharp_
    d284:	5f707261 75706e69 41203a74 72205052     arp_input: ARP r
    d294:	65757165 77207473 6e207361 6620746f     equest was not f
    d2a4:	7520726f 65002e73 72616874 72615f70     or us..etharp_ar
    d2b4:	6e695f70 3a747570 636e6920 6e696d6f     p_input: incomin
    d2c4:	52412067 65722050 00796c70 61687465     g ARP reply.etha
    d2d4:	615f7072 695f7072 7475706e 5241203a     rp_arp_input: AR
    d2e4:	6e752050 776f6e6b 706f206e 65646f63     P unknown opcode
    d2f4:	70797420 68252065 28000a64 50434844      type %hd..(DHCP
    d304:	53280029 49544154 49002943 7265746e     ).(STATIC).Inter
    d314:	65636166 20705520 0a3a7325 746e4900     face Up %s:..Int
    d324:	61667265 44206563 2e6e776f 6e694c00     erface Down..Lin
    d334:	7055206b 6552002e 72617473 676e6974     k Up..Restarting
    d344:	43484420 694c0050 44206b6e 2e6e776f      DHCP.Link Down.
    d354:	63657200 65766965 74612064 2c642520     .received at %d,
    d364:	68636520 676e696f 206f7420 20656874      echoing to the 
    d374:	656d6173 726f7020 55000a74 72205044     same port..UDP r
    d384:	25207663 79622064 3a736574 2a2a0020     cv %d bytes: .**
    d394:	2a2a2a2a 2a2a2a2a 2a2a2a2a 2a2a2a2a     ****************
    d3a4:	2a2a2a2a 2a2a2a2a 7445000a 746f4d68     ********..EthMot
    d3b4:	4173726f 445f6d72 38385652 725f3030     orsArm_DRV8800_r
    d3c4:	31307665 0a0d000a 6c6c6548 5441206f     ev01....Hello AT
    d3d4:	204c454d 6c726f57 000d2164 65687445     MEL World!..Ethe
    d3e4:	74656e72 6e6f4320 7463656e 206e6f69     rnet Connection 
    d3f4:	61747365 73696c62 00646568 50434844     established.DHCP
    d404:	61745320 64657472 6572000d 32647663      Started..recvd2
    d414:	5049000a 4444415f 20202052 25203a20     ..IP_ADDR    : %
    d424:	000a0d73 5f54454e 4b53414d 3a202020     s...NET_MASK   :
    d434:	0d732520 4147000a 41574554 50495f59      %s...GATEWAY_IP
    d444:	25203a20 000a0d73                        : %s...

0000d44c <_global_impure_ptr>:
    d44c:	20000014                                ... 

0000d450 <__sf_fake_stderr>:
	...

0000d470 <__sf_fake_stdin>:
	...

0000d490 <__sf_fake_stdout>:
	...
    d4b0:	2b302d23 6c680020 6665004c 47464567     #-0+ .hlL.efgEFG
    d4c0:	32313000 36353433 41393837 45444342     .0123456789ABCDE
    d4d0:	31300046 35343332 39383736 64636261     F.0123456789abcd
    d4e0:	00006665                                ef..

0000d4e4 <_init>:
    d4e4:	b5f8      	push	{r3, r4, r5, r6, r7, lr}
    d4e6:	bf00      	nop
    d4e8:	bcf8      	pop	{r3, r4, r5, r6, r7}
    d4ea:	bc08      	pop	{r3}
    d4ec:	469e      	mov	lr, r3
    d4ee:	4770      	bx	lr

0000d4f0 <__init_array_start>:
    d4f0:	00000289 	.word	0x00000289

0000d4f4 <_fini>:
    d4f4:	b5f8      	push	{r3, r4, r5, r6, r7, lr}
    d4f6:	bf00      	nop
    d4f8:	bcf8      	pop	{r3, r4, r5, r6, r7}
    d4fa:	bc08      	pop	{r3}
    d4fc:	469e      	mov	lr, r3
    d4fe:	4770      	bx	lr

0000d500 <__fini_array_start>:
    d500:	00000265 	.word	0x00000265
